(lp1
(dp2
S'data'
p3
(lp4
(dp5
S'score'
p6
F5.343521
sS'id'
p7
S'521'
p8
sS'name'
p9
S'1.jpg.bin'
p10
sa(dp11
g6
F4.6645570000000003
sg7
S'608'
p12
sg9
S'2.jpg.bin'
p13
sa(dp14
g6
F3.9467029999999999
sg7
S'825'
p15
sg9
S'4_noplate.jpg.bin'
p16
sa(dp17
g6
F3.8784749999999999
sg7
S'763'
p18
sg9
S'5_noplate.jpg.bin'
p19
sa(dp20
g6
F3.4850940000000001
sg7
S'577'
p21
sg9
S'2.jpg.bin'
p22
sa(dp23
g6
F3.3429199999999999
sg7
S'73'
p24
sg9
S'1.jpg.bin'
p25
sa(dp26
g6
F3.325396
sg7
S'148'
p27
sg9
S'1.jpg.bin'
p28
sa(dp29
g6
F3.2103199999999998
sg7
S'710'
p30
sg9
S'2.jpg.bin'
p31
sa(dp32
g6
F2.8962059999999998
sg7
S'449'
p33
sg9
S'4_noplate.jpg.bin'
p34
sa(dp35
g6
F2.8824770000000002
sg7
S'126'
p36
sg9
S'1.jpg.bin'
p37
sa(dp38
g6
F2.8294260000000002
sg7
S'614'
p39
sg9
S'4_noplate.jpg.bin'
p40
sa(dp41
g6
F2.5234049999999999
sg7
S'831'
p42
sg9
S'3_noplate.jpg.bin'
p43
sa(dp44
g6
F2.5154320000000001
sg7
S'844'
p45
sg9
S'0_noplate.jpg.bin'
p46
sa(dp47
g6
F2.49119
sg7
S'518'
p48
sg9
S'4.jpg.bin'
p49
sa(dp50
g6
F2.4878439999999999
sg7
S'615'
p51
sg9
S'4.jpg.bin'
p52
sa(dp53
g6
F2.4757180000000001
sg7
S'279'
p54
sg9
S'5.jpg.bin'
p55
sa(dp56
g6
F2.447632
sg7
S'700'
p57
sg9
S'3_noplate.jpg.bin'
p58
sa(dp59
g6
F2.346552
sg7
S'469'
p60
sg9
S'4_noplate.jpg.bin'
p61
sa(dp62
g6
F2.289177
sg7
S'930'
p63
sg9
S'7_noplate.jpg.bin'
p64
sa(dp65
g6
F2.2813400000000001
sg7
S'713'
p66
sg9
S'5.jpg.bin'
p67
sasg7
S'73'
p68
sg9
S'2.jpg.bin'
p69
sa(dp70
g3
(lp71
(dp72
g6
F6.6544299999999996
sg7
S'37'
p73
sg9
S'4.jpg.bin'
p74
sa(dp75
g6
F3.8549329999999999
sg7
S'124'
p76
sg9
S'0_noplate.jpg.bin'
p77
sa(dp78
g6
F2.501938
sg7
S'639'
p79
sg9
S'3.jpg.bin'
p80
sa(dp81
g6
F2.130709
sg7
S'661'
p82
sg9
S'3_noplate.jpg.bin'
p83
sa(dp84
g6
F2.0986229999999999
sg7
S'966'
p85
sg9
S'2_noplate.jpg.bin'
p86
sa(dp87
g6
F1.475922
sg7
S'359'
p88
sg9
S'3.jpg.bin'
p89
sa(dp90
g6
F1.4382760000000001
sg7
S'600'
p91
sg9
S'8.jpg.bin'
p92
sa(dp93
g6
F1.2959860000000001
sg7
S'368'
p94
sg9
S'0_noplate.jpg.bin'
p95
sa(dp96
g6
F1.280497
sg7
S'462'
p97
sg9
S'0_noplate.jpg.bin'
p98
sa(dp99
g6
F1.101013
sg7
S'549'
p100
sg9
S'0_noplate.jpg.bin'
p101
sa(dp102
g6
F1.078138
sg7
S'345'
p103
sg9
S'1_noplate.jpg.bin'
p104
sa(dp105
g6
F1.0235019999999999
sg7
S'85'
p106
sg9
S'0_noplate.jpg.bin'
p107
sa(dp108
g6
F0.83330199999999999
sg7
S'272'
p109
sg9
S'1_noplate.jpg.bin'
p110
sa(dp111
g6
F0.83123400000000003
sg7
S'128'
p112
sg9
S'1_noplate.jpg.bin'
p113
sa(dp114
g6
F0.68086199999999997
sg7
S'949'
p115
sg9
S'3_noplate.jpg.bin'
p116
sa(dp117
g6
F0.641289
sg7
S'556'
p118
sg9
S'8.jpg.bin'
p119
sa(dp120
g6
F0.49941099999999999
sg7
S'254'
p121
sg9
S'1.jpg.bin'
p122
sa(dp123
g6
F0.49110199999999998
sg7
S'157'
p124
sg9
S'5_noplate.jpg.bin'
p125
sa(dp126
g6
F0.35595500000000002
sg7
S'993'
p127
sg9
S'8_noplate.jpg.bin'
p128
sa(dp129
g6
F0.32011000000000001
sg7
S'900'
p130
sg9
S'4.jpg.bin'
p131
sasg7
S'37'
p132
sg9
S'2_noplate.jpg.bin'
p133
sa(dp134
g3
(lp135
(dp136
g6
F8.7489220000000003
sg7
S'283'
p137
sg9
S'7_noplate.jpg.bin'
p138
sa(dp139
g6
F6.8120900000000004
sg7
S'10'
p140
sg9
S'1.jpg.bin'
p141
sa(dp142
g6
F6.6866830000000004
sg7
S'521'
p143
sg9
S'1.jpg.bin'
p144
sa(dp145
g6
F6.256392
sg7
S'251'
p146
sg9
S'3.jpg.bin'
p147
sa(dp148
g6
F6.2177030000000002
sg7
S'825'
p149
sg9
S'4_noplate.jpg.bin'
p150
sa(dp151
g6
F6.1392379999999998
sg7
S'279'
p152
sg9
S'5.jpg.bin'
p153
sa(dp154
g6
F4.9030040000000001
sg7
S'73'
p155
sg9
S'1.jpg.bin'
p156
sa(dp157
g6
F4.6785259999999997
sg7
S'903'
p158
sg9
S'4.jpg.bin'
p159
sa(dp160
g6
F4.3569930000000001
sg7
S'217'
p161
sg9
S'6_noplate.jpg.bin'
p162
sa(dp163
g6
F4.312214
sg7
S'577'
p164
sg9
S'2.jpg.bin'
p165
sa(dp166
g6
F4.2699680000000004
sg7
S'362'
p167
sg9
S'1_noplate.jpg.bin'
p168
sa(dp169
g6
F3.970596
sg7
S'998'
p170
sg9
S'2_noplate.jpg.bin'
p171
sa(dp172
g6
F3.114662
sg7
S'809'
p173
sg9
S'4.jpg.bin'
p174
sa(dp175
g6
F2.7181890000000002
sg7
S'746'
p176
sg9
S'5.jpg.bin'
p177
sa(dp178
g6
F2.583755
sg7
S'518'
p179
sg9
S'4.jpg.bin'
p180
sa(dp181
g6
F2.5721759999999998
sg7
S'799'
p182
sg9
S'5.jpg.bin'
p183
sa(dp184
g6
F2.5554459999999999
sg7
S'129'
p185
sg9
S'2.jpg.bin'
p186
sa(dp187
g6
F2.2639710000000002
sg7
S'469'
p188
sg9
S'4_noplate.jpg.bin'
p189
sa(dp190
g6
F2.254858
sg7
S'786'
p191
sg9
S'1.jpg.bin'
p192
sa(dp193
g6
F2.2124000000000001
sg7
S'789'
p194
sg9
S'5_noplate.jpg.bin'
p195
sasg7
S'10'
p196
sg9
S'18.jpg.bin'
p197
sa(dp198
g3
(lp199
(dp200
g6
F9.2595270000000003
sg7
S'72'
p201
sg9
S'2_noplate.jpg.bin'
p202
sa(dp203
g6
F6.6290230000000001
sg7
S'729'
p204
sg9
S'2.jpg.bin'
p205
sa(dp206
g6
F5.0248280000000003
sg7
S'94'
p207
sg9
S'4_noplate.jpg.bin'
p208
sa(dp209
g6
F4.5117630000000002
sg7
S'632'
p210
sg9
S'5.jpg.bin'
p211
sa(dp212
g6
F3.5464020000000001
sg7
S'798'
p213
sg9
S'0_noplate.jpg.bin'
p214
sa(dp215
g6
F3.2045349999999999
sg7
S'270'
p216
sg9
S'4_noplate.jpg.bin'
p217
sa(dp218
g6
F2.9815179999999999
sg7
S'760'
p219
sg9
S'3_noplate.jpg.bin'
p220
sa(dp221
g6
F2.721123
sg7
S'831'
p222
sg9
S'3_noplate.jpg.bin'
p223
sa(dp224
g6
F2.645575
sg7
S'455'
p225
sg9
S'3.jpg.bin'
p226
sa(dp227
g6
F2.3615780000000002
sg7
S'130'
p228
sg9
S'4_noplate.jpg.bin'
p229
sa(dp230
g6
F2.1948279999999998
sg7
S'413'
p231
sg9
S'8_noplate.jpg.bin'
p232
sa(dp233
g6
F2.0622220000000002
sg7
S'239'
p234
sg9
S'1_noplate.jpg.bin'
p235
sa(dp236
g6
F1.9712179999999999
sg7
S'880'
p237
sg9
S'3_noplate.jpg.bin'
p238
sa(dp239
g6
F1.954107
sg7
S'568'
p240
sg9
S'2_noplate.jpg.bin'
p241
sa(dp242
g6
F1.9470229999999999
sg7
S'255'
p243
sg9
S'1_noplate.jpg.bin'
p244
sa(dp245
g6
F1.803823
sg7
S'627'
p246
sg9
S'3_noplate.jpg.bin'
p247
sa(dp248
g6
F1.774672
sg7
S'850'
p249
sg9
S'1_noplate.jpg.bin'
p250
sa(dp251
g6
F1.7324219999999999
sg7
S'312'
p252
sg9
S'6_noplate.jpg.bin'
p253
sa(dp254
g6
F1.6559120000000001
sg7
S'148'
p255
sg9
S'1.jpg.bin'
p256
sa(dp257
g6
F1.608212
sg7
S'780'
p258
sg9
S'2_noplate.jpg.bin'
p259
sasg7
S'72'
p260
sg9
S'1_noplate.jpg.bin'
p261
sa(dp262
g3
(lp263
(dp264
g6
F5.7611850000000002
sg7
S'940'
p265
sg9
S'3_noplate.jpg.bin'
p266
sa(dp267
g6
F4.5077930000000004
sg7
S'67'
p268
sg9
S'2.jpg.bin'
p269
sa(dp270
g6
F3.1724890000000001
sg7
S'761'
p271
sg9
S'1_noplate.jpg.bin'
p272
sa(dp273
g6
F2.943419
sg7
S'634'
p274
sg9
S'1_noplate.jpg.bin'
p275
sa(dp276
g6
F2.668831
sg7
S'446'
p277
sg9
S'0.jpg.bin'
p278
sa(dp279
g6
F2.1053790000000001
sg7
S'162'
p280
sg9
S'3_noplate.jpg.bin'
p281
sa(dp282
g6
F1.9280200000000001
sg7
S'978'
p283
sg9
S'3_noplate.jpg.bin'
p284
sa(dp285
g6
F1.8416600000000001
sg7
S'726'
p286
sg9
S'0_noplate.jpg.bin'
p287
sa(dp288
g6
F1.3744719999999999
sg7
S'807'
p289
sg9
S'4.jpg.bin'
p290
sa(dp291
g6
F1.2801899999999999
sg7
S'219'
p292
sg9
S'3_noplate.jpg.bin'
p293
sa(dp294
g6
F1.2531049999999999
sg7
S'27'
p295
sg9
S'2.jpg.bin'
p296
sa(dp297
g6
F1.083307
sg7
S'836'
p298
sg9
S'4_noplate.jpg.bin'
p299
sa(dp300
g6
F1.0769770000000001
sg7
S'513'
p301
sg9
S'1_noplate.jpg.bin'
p302
sa(dp303
g6
F1.0506359999999999
sg7
S'696'
p304
sg9
S'1_noplate.jpg.bin'
p305
sa(dp306
g6
F0.55227999999999999
sg7
S'431'
p307
sg9
S'1.jpg.bin'
p308
sa(dp309
g6
F0.44635000000000002
sg7
S'515'
p310
sg9
S'0.jpg.bin'
p311
sa(dp312
g6
F0.43779200000000001
sg7
S'967'
p313
sg9
S'3.jpg.bin'
p314
sa(dp315
g6
F0.42356300000000002
sg7
S'945'
p316
sg9
S'3.jpg.bin'
p317
sa(dp318
g6
F0.37189499999999998
sg7
S'638'
p319
sg9
S'2_noplate.jpg.bin'
p320
sa(dp321
g6
F0.36953399999999997
sg7
S'527'
p322
sg9
S'4_noplate.jpg.bin'
p323
sasg7
S'67'
p324
sg9
S'1_noplate.jpg.bin'
p325
sa(dp326
g3
(lp327
(dp328
g6
F7.7578620000000003
sg7
S'595'
p329
sg9
S'3_noplate.jpg.bin'
p330
sa(dp331
g6
F4.1762600000000001
sg7
S'61'
p332
sg9
S'3_noplate.jpg.bin'
p333
sa(dp334
g6
F3.9317090000000001
sg7
S'411'
p335
sg9
S'2_noplate.jpg.bin'
p336
sa(dp337
g6
F3.80891
sg7
S'880'
p338
sg9
S'3_noplate.jpg.bin'
p339
sa(dp340
g6
F2.8122729999999998
sg7
S'685'
p341
sg9
S'3_noplate.jpg.bin'
p342
sa(dp343
g6
F2.5823290000000001
sg7
S'627'
p344
sg9
S'3_noplate.jpg.bin'
p345
sa(dp346
g6
F2.2639309999999999
sg7
S'817'
p347
sg9
S'0_noplate.jpg.bin'
p348
sa(dp349
g6
F1.4092499999999999
sg7
S'757'
p350
sg9
S'4_noplate.jpg.bin'
p351
sa(dp352
g6
F1.330044
sg7
S'562'
p353
sg9
S'3.jpg.bin'
p354
sa(dp355
g6
F1.0735319999999999
sg7
S'148'
p356
sg9
S'1.jpg.bin'
p357
sa(dp358
g6
F0.90586299999999997
sg7
S'712'
p359
sg9
S'1.jpg.bin'
p360
sa(dp361
g6
F0.76743300000000003
sg7
S'191'
p362
sg9
S'5_noplate.jpg.bin'
p363
sa(dp364
g6
F0.70390699999999995
sg7
S'258'
p365
sg9
S'3.jpg.bin'
p366
sa(dp367
g6
F0.67127199999999998
sg7
S'276'
p368
sg9
S'0_noplate.jpg.bin'
p369
sa(dp370
g6
F0.634714
sg7
S'428'
p371
sg9
S'2_noplate.jpg.bin'
p372
sa(dp373
g6
F0.58223199999999997
sg7
S'214'
p374
sg9
S'3.jpg.bin'
p375
sa(dp376
g6
F0.58183499999999999
sg7
S'944'
p377
sg9
S'4_noplate.jpg.bin'
p378
sa(dp379
g6
F0.53393000000000002
sg7
S'255'
p380
sg9
S'1_noplate.jpg.bin'
p381
sa(dp382
g6
F0.41789999999999999
sg7
S'729'
p383
sg9
S'2.jpg.bin'
p384
sa(dp385
g6
F0.39760400000000001
sg7
S'538'
p386
sg9
S'3.jpg.bin'
p387
sasg7
S'61'
p388
sg9
S'6_noplate.jpg.bin'
p389
sa(dp390
g3
(lp391
(dp392
g6
F6.4751589999999997
sg7
S'104'
p393
sg9
S'9_noplate.jpg.bin'
p394
sa(dp395
g6
F5.7273240000000003
sg7
S'903'
p396
sg9
S'4.jpg.bin'
p397
sa(dp398
g6
F5.2717510000000001
sg7
S'336'
p399
sg9
S'11.jpg.bin'
p400
sa(dp401
g6
F4.3376659999999996
sg7
S'512'
p402
sg9
S'2_noplate.jpg.bin'
p403
sa(dp404
g6
F4.1905669999999997
sg7
S'844'
p405
sg9
S'0_noplate.jpg.bin'
p406
sa(dp407
g6
F4.159338
sg7
S'362'
p408
sg9
S'1_noplate.jpg.bin'
p409
sa(dp410
g6
F3.9395850000000001
sg7
S'577'
p411
sg9
S'2.jpg.bin'
p412
sa(dp413
g6
F3.9043770000000002
sg7
S'86'
p414
sg9
S'10.jpg.bin'
p415
sa(dp416
g6
F3.5701100000000001
sg7
S'414'
p417
sg9
S'2.jpg.bin'
p418
sa(dp419
g6
F3.1862490000000001
sg7
S'321'
p420
sg9
S'1.jpg.bin'
p421
sa(dp422
g6
F2.8893010000000001
sg7
S'129'
p423
sg9
S'2.jpg.bin'
p424
sa(dp425
g6
F2.834187
sg7
S'518'
p426
sg9
S'4.jpg.bin'
p427
sa(dp428
g6
F2.81785
sg7
S'930'
p429
sg9
S'7_noplate.jpg.bin'
p430
sa(dp431
g6
F2.8110469999999999
sg7
S'789'
p432
sg9
S'5_noplate.jpg.bin'
p433
sa(dp434
g6
F2.7861859999999998
sg7
S'757'
p435
sg9
S'4_noplate.jpg.bin'
p436
sa(dp437
g6
F2.5440770000000001
sg7
S'221'
p438
sg9
S'7_noplate.jpg.bin'
p439
sa(dp440
g6
F2.206928
sg7
S'251'
p441
sg9
S'3.jpg.bin'
p442
sa(dp443
g6
F2.1262569999999998
sg7
S'141'
p444
sg9
S'7_noplate.jpg.bin'
p445
sa(dp446
g6
F1.8990020000000001
sg7
S'856'
p447
sg9
S'0.jpg.bin'
p448
sa(dp449
g6
F1.738586
sg7
S'33'
p450
sg9
S'8.jpg.bin'
p451
sasg7
S'86'
p452
sg9
S'0.jpg.bin'
p453
sa(dp454
g3
(lp455
(dp456
g6
F7.4591519999999996
sg7
S'7'
sg9
S'3.jpg.bin'
p457
sa(dp458
g6
F4.8921640000000002
sg7
S'254'
p459
sg9
S'1.jpg.bin'
p460
sa(dp461
g6
F4.4067920000000003
sg7
S'596'
p462
sg9
S'6.jpg.bin'
p463
sa(dp464
g6
F4.0979979999999996
sg7
S'675'
p465
sg9
S'4_noplate.jpg.bin'
p466
sa(dp467
g6
F3.9203009999999998
sg7
S'629'
p468
sg9
S'3_noplate.jpg.bin'
p469
sa(dp470
g6
F3.0010680000000001
sg7
S'821'
p471
sg9
S'2.jpg.bin'
p472
sa(dp473
g6
F2.4129429999999998
sg7
S'952'
p474
sg9
S'3.jpg.bin'
p475
sa(dp476
g6
F2.4117299999999999
sg7
S'779'
p477
sg9
S'4_noplate.jpg.bin'
p478
sa(dp479
g6
F2.3386269999999998
sg7
S'573'
p480
sg9
S'2.jpg.bin'
p481
sa(dp482
g6
F1.832695
sg7
S'353'
p483
sg9
S'4.jpg.bin'
p484
sa(dp485
g6
F1.81246
sg7
S'496'
p486
sg9
S'0_noplate.jpg.bin'
p487
sa(dp488
g6
F1.6369590000000001
sg7
S'301'
p489
sg9
S'0_noplate.jpg.bin'
p490
sa(dp491
g6
F1.5101009999999999
sg7
S'434'
p492
sg9
S'1.jpg.bin'
p493
sa(dp494
g6
F1.1572020000000001
sg7
S'660'
p495
sg9
S'2.jpg.bin'
p496
sa(dp497
g6
F1.157143
sg7
S'526'
p498
sg9
S'18_noplate.jpg.bin'
p499
sa(dp500
g6
F1.127926
sg7
S'997'
p501
sg9
S'2.jpg.bin'
p502
sa(dp503
g6
F0.86308099999999999
sg7
S'305'
p504
sg9
S'3.jpg.bin'
p505
sa(dp506
g6
F0.83652099999999996
sg7
S'545'
p507
sg9
S'1_noplate.jpg.bin'
p508
sa(dp509
g6
F0.70305799999999996
sg7
S'906'
p510
sg9
S'1_noplate.jpg.bin'
p511
sa(dp512
g6
F0.649501
sg7
S'811'
p513
sg9
S'6.jpg.bin'
p514
sasg7
S'7'
sg9
S'1_noplate.jpg.bin'
p515
sa(dp516
g3
(lp517
(dp518
g6
F10.122370999999999
sg7
S'81'
p519
sg9
S'1.jpg.bin'
p520
sa(dp521
g6
F5.9147610000000004
sg7
S'589'
p522
sg9
S'14.jpg.bin'
p523
sa(dp524
g6
F4.5695860000000001
sg7
S'238'
p525
sg9
S'1_noplate.jpg.bin'
p526
sa(dp527
g6
F4.511177
sg7
S'291'
p528
sg9
S'7_noplate.jpg.bin'
p529
sa(dp530
g6
F4.3871969999999996
sg7
S'295'
p531
sg9
S'0_noplate.jpg.bin'
p532
sa(dp533
g6
F4.3656519999999999
sg7
S'788'
p534
sg9
S'2.jpg.bin'
p535
sa(dp536
g6
F3.8709199999999999
sg7
S'582'
p537
sg9
S'2_noplate.jpg.bin'
p538
sa(dp539
g6
F3.6430129999999998
sg7
S'479'
p540
sg9
S'0_noplate.jpg.bin'
p541
sa(dp542
g6
F3.4647939999999999
sg7
S'732'
p543
sg9
S'3.jpg.bin'
p544
sa(dp545
g6
F3.2053449999999999
sg7
S'63'
p546
sg9
S'4.jpg.bin'
p547
sa(dp548
g6
F2.980909
sg7
S'204'
p549
sg9
S'3_noplate.jpg.bin'
p550
sa(dp551
g6
F2.9028679999999998
sg7
S'802'
p552
sg9
S'0.jpg.bin'
p553
sa(dp554
g6
F2.887445
sg7
S'834'
p555
sg9
S'2_noplate.jpg.bin'
p556
sa(dp557
g6
F2.7699199999999999
sg7
S'437'
p558
sg9
S'5.jpg.bin'
p559
sa(dp560
g6
F2.5997490000000001
sg7
S'587'
p561
sg9
S'3_noplate.jpg.bin'
p562
sa(dp563
g6
F2.5028169999999998
sg7
S'591'
p564
sg9
S'0_noplate.jpg.bin'
p565
sa(dp566
g6
F2.3158859999999999
sg7
S'679'
p567
sg9
S'6.jpg.bin'
p568
sa(dp569
g6
F2.258343
sg7
S'113'
p570
sg9
S'11.jpg.bin'
p571
sa(dp572
g6
F2.0841769999999999
sg7
S'514'
p573
sg9
S'9.jpg.bin'
p574
sa(dp575
g6
F2.0669749999999998
sg7
S'377'
p576
sg9
S'1_noplate.jpg.bin'
p577
sasg7
S'81'
p578
sg9
S'2_noplate.jpg.bin'
p579
sa(dp580
g3
(lp581
(dp582
g6
F4.8204900000000004
sg7
S'779'
p583
sg9
S'4_noplate.jpg.bin'
p584
sa(dp585
g6
F4.4338709999999999
sg7
S'811'
p586
sg9
S'6.jpg.bin'
p587
sa(dp588
g6
F3.7838219999999998
sg7
S'60'
p589
sg9
S'3.jpg.bin'
p590
sa(dp591
g6
F3.2830059999999999
sg7
S'952'
p592
sg9
S'3.jpg.bin'
p593
sa(dp594
g6
F3.1195050000000002
sg7
S'672'
p595
sg9
S'7.jpg.bin'
p596
sa(dp597
g6
F3.0623089999999999
sg7
S'434'
p598
sg9
S'1.jpg.bin'
p599
sa(dp600
g6
F2.8364750000000001
sg7
S'367'
p601
sg9
S'3.jpg.bin'
p602
sa(dp603
g6
F2.7165859999999999
sg7
S'262'
p604
sg9
S'1_noplate.jpg.bin'
p605
sa(dp606
g6
F2.6776279999999999
sg7
S'349'
p607
sg9
S'1.jpg.bin'
p608
sa(dp609
g6
F2.3619590000000001
sg7
S'749'
p610
sg9
S'5.jpg.bin'
p611
sa(dp612
g6
F2.2896749999999999
sg7
S'954'
p613
sg9
S'6_noplate.jpg.bin'
p614
sa(dp615
g6
F2.0177960000000001
sg7
S'27'
p616
sg9
S'2.jpg.bin'
p617
sa(dp618
g6
F1.904671
sg7
S'916'
p619
sg9
S'3_noplate.jpg.bin'
p620
sa(dp621
g6
F1.8079289999999999
sg7
S'673'
p622
sg9
S'1.jpg.bin'
p623
sa(dp624
g6
F1.7949569999999999
sg7
S'292'
p625
sg9
S'1.jpg.bin'
p626
sa(dp627
g6
F1.748354
sg7
S'191'
p628
sg9
S'5_noplate.jpg.bin'
p629
sa(dp630
g6
F1.690706
sg7
S'477'
p631
sg9
S'5.jpg.bin'
p632
sa(dp633
g6
F1.649708
sg7
S'821'
p634
sg9
S'2.jpg.bin'
p635
sa(dp636
g6
F1.6306320000000001
sg7
S'883'
p637
sg9
S'4_noplate.jpg.bin'
p638
sa(dp639
g6
F1.487568
sg7
S'241'
p640
sg9
S'0.jpg.bin'
p641
sasg7
S'62'
p642
sg9
S'1_noplate.jpg.bin'
p643
sa(dp644
g3
(lp645
(dp646
g6
F9.964067
sg7
S'77'
p647
sg9
S'1_noplate.jpg.bin'
p648
sa(dp649
g6
F7.2540170000000002
sg7
S'907'
p650
sg9
S'1.jpg.bin'
p651
sa(dp652
g6
F4.5297780000000003
sg7
S'567'
p653
sg9
S'7_noplate.jpg.bin'
p654
sa(dp655
g6
F3.8524189999999998
sg7
S'565'
p656
sg9
S'1.jpg.bin'
p657
sa(dp658
g6
F2.997557
sg7
S'164'
p659
sg9
S'6.jpg.bin'
p660
sa(dp661
g6
F2.8766750000000001
sg7
S'740'
p662
sg9
S'2_noplate.jpg.bin'
p663
sa(dp664
g6
F2.7887569999999999
sg7
S'642'
p665
sg9
S'2_noplate.jpg.bin'
p666
sa(dp667
g6
F1.180016
sg7
S'909'
p668
sg9
S'2.jpg.bin'
p669
sa(dp670
g6
F0.55140100000000003
sg7
S'88'
p671
sg9
S'0_noplate.jpg.bin'
p672
sa(dp673
g6
F0.52515999999999996
sg7
S'600'
p674
sg9
S'8.jpg.bin'
p675
sa(dp676
g6
F0.23371500000000001
sg7
S'622'
p677
sg9
S'1.jpg.bin'
p678
sa(dp679
g6
F0.14102400000000001
sg7
S'203'
p680
sg9
S'1_noplate.jpg.bin'
p681
sa(dp682
g6
F-0.043208999999999997
sg7
S'649'
p683
sg9
S'0_noplate.jpg.bin'
p684
sa(dp685
g6
F-0.45341100000000001
sg7
S'507'
p686
sg9
S'6.jpg.bin'
p687
sa(dp688
g6
F-0.62760000000000005
sg7
S'305'
p689
sg9
S'3.jpg.bin'
p690
sa(dp691
g6
F-0.735344
sg7
S'599'
p692
sg9
S'3_noplate.jpg.bin'
p693
sa(dp694
g6
F-0.81193400000000004
sg7
S'156'
p695
sg9
S'3.jpg.bin'
p696
sa(dp697
g6
F-0.92009399999999997
sg7
S'685'
p698
sg9
S'3_noplate.jpg.bin'
p699
sa(dp700
g6
F-0.93459300000000001
sg7
S'513'
p701
sg9
S'1_noplate.jpg.bin'
p702
sa(dp703
g6
F-1.072878
sg7
S'592'
p704
sg9
S'3.jpg.bin'
p705
sasg7
S'77'
p706
sg9
S'6.jpg.bin'
p707
sa(dp708
g3
(lp709
(dp710
g6
F5.6641389999999996
sg7
S'2'
sg9
S'4.jpg.bin'
p711
sa(dp712
g6
F3.1574610000000001
sg7
S'573'
p713
sg9
S'2.jpg.bin'
p714
sa(dp715
g6
F2.5757789999999998
sg7
S'865'
p716
sg9
S'0.jpg.bin'
p717
sa(dp718
g6
F2.5666920000000002
sg7
S'407'
p719
sg9
S'4_noplate.jpg.bin'
p720
sa(dp721
g6
F2.5558200000000002
sg7
S'741'
p722
sg9
S'3_noplate.jpg.bin'
p723
sa(dp724
g6
F2.5514760000000001
sg7
S'24'
p725
sg9
S'4.jpg.bin'
p726
sa(dp727
g6
F2.1425230000000002
sg7
S'700'
p728
sg9
S'3_noplate.jpg.bin'
p729
sa(dp730
g6
F1.9922899999999999
sg7
S'345'
p731
sg9
S'1_noplate.jpg.bin'
p732
sa(dp733
g6
F1.789925
sg7
S'562'
p734
sg9
S'3.jpg.bin'
p735
sa(dp736
g6
F1.5794049999999999
sg7
S'790'
p737
sg9
S'10.jpg.bin'
p738
sa(dp739
g6
F1.300014
sg7
S'918'
p740
sg9
S'1_noplate.jpg.bin'
p741
sa(dp742
g6
F1.122387
sg7
S'743'
p743
sg9
S'0_noplate.jpg.bin'
p744
sa(dp745
g6
F1.055218
sg7
S'312'
p746
sg9
S'6_noplate.jpg.bin'
p747
sa(dp748
g6
F0.84671600000000002
sg7
S'847'
p749
sg9
S'9.jpg.bin'
p750
sa(dp751
g6
F0.49514200000000003
sg7
S'333'
p752
sg9
S'0.jpg.bin'
p753
sa(dp754
g6
F0.35380699999999998
sg7
S'749'
p755
sg9
S'5.jpg.bin'
p756
sa(dp757
g6
F0.34776699999999999
sg7
S'870'
p758
sg9
S'2_noplate.jpg.bin'
p759
sa(dp760
g6
F0.22458500000000001
sg7
S'744'
p761
sg9
S'1.jpg.bin'
p762
sa(dp763
g6
F0.187777
sg7
S'28'
p764
sg9
S'4_noplate.jpg.bin'
p765
sa(dp766
g6
F0.157717
sg7
S'23'
p767
sg9
S'5_noplate.jpg.bin'
p768
sasg7
S'2'
sg9
S'0_noplate.jpg.bin'
p769
sa(dp770
g3
(lp771
(dp772
g6
F12.729310999999999
sg7
S'53'
p773
sg9
S'4.jpg.bin'
p774
sa(dp775
g6
F10.651497000000001
sg7
S'483'
p776
sg9
S'1_noplate.jpg.bin'
p777
sa(dp778
g6
F7.891203
sg7
S'109'
p779
sg9
S'4_noplate.jpg.bin'
p780
sa(dp781
g6
F7.6106429999999996
sg7
S'17'
p782
sg9
S'2_noplate.jpg.bin'
p783
sa(dp784
g6
F4.8585929999999999
sg7
S'28'
p785
sg9
S'4_noplate.jpg.bin'
p786
sa(dp787
g6
F4.5927809999999996
sg7
S'96'
p788
sg9
S'1.jpg.bin'
p789
sa(dp790
g6
F3.9845199999999998
sg7
S'949'
p791
sg9
S'3_noplate.jpg.bin'
p792
sa(dp793
g6
F3.559952
sg7
S'424'
p794
sg9
S'3_noplate.jpg.bin'
p795
sa(dp796
g6
F3.1706240000000001
sg7
S'845'
p797
sg9
S'0_noplate.jpg.bin'
p798
sa(dp799
g6
F3.1542910000000002
sg7
S'798'
p800
sg9
S'0_noplate.jpg.bin'
p801
sa(dp802
g6
F2.4834100000000001
sg7
S'975'
p803
sg9
S'5_noplate.jpg.bin'
p804
sa(dp805
g6
F2.2832780000000001
sg7
S'264'
p806
sg9
S'0.jpg.bin'
p807
sa(dp808
g6
F2.2553040000000002
sg7
S'118'
p809
sg9
S'5_noplate.jpg.bin'
p810
sa(dp811
g6
F2.2345280000000001
sg7
S'756'
p812
sg9
S'6.jpg.bin'
p813
sa(dp814
g6
F2.1728519999999998
sg7
S'413'
p815
sg9
S'8_noplate.jpg.bin'
p816
sa(dp817
g6
F2.1274850000000001
sg7
S'688'
p818
sg9
S'6.jpg.bin'
p819
sa(dp820
g6
F1.4784980000000001
sg7
S'897'
p821
sg9
S'3_noplate.jpg.bin'
p822
sa(dp823
g6
F1.4551430000000001
sg7
S'154'
p824
sg9
S'3.jpg.bin'
p825
sa(dp826
g6
F1.402277
sg7
S'530'
p827
sg9
S'6.jpg.bin'
p828
sa(dp829
g6
F1.394188
sg7
S'870'
p830
sg9
S'2_noplate.jpg.bin'
p831
sasg7
S'53'
p832
sg9
S'0_noplate.jpg.bin'
p833
sa(dp834
g3
(lp835
(dp836
g6
F4.7562470000000001
sg7
S'79'
p837
sg9
S'3_noplate.jpg.bin'
p838
sa(dp839
g6
F3.3080690000000001
sg7
S'803'
p840
sg9
S'3_noplate.jpg.bin'
p841
sa(dp842
g6
F3.0493139999999999
sg7
S'485'
p843
sg9
S'3.jpg.bin'
p844
sa(dp845
g6
F2.9572090000000002
sg7
S'310'
p846
sg9
S'7_noplate.jpg.bin'
p847
sa(dp848
g6
F2.7800310000000001
sg7
S'800'
p849
sg9
S'1_noplate.jpg.bin'
p850
sa(dp851
g6
F2.6703969999999999
sg7
S'18'
p852
sg9
S'1_noplate.jpg.bin'
p853
sa(dp854
g6
F2.6214409999999999
sg7
S'833'
p855
sg9
S'1.jpg.bin'
p856
sa(dp857
g6
F2.0383209999999998
sg7
S'253'
p858
sg9
S'1.jpg.bin'
p859
sa(dp860
g6
F1.8787769999999999
sg7
S'348'
p861
sg9
S'4.jpg.bin'
p862
sa(dp863
g6
F1.7901419999999999
sg7
S'939'
p864
sg9
S'5_noplate.jpg.bin'
p865
sa(dp866
g6
F1.6756740000000001
sg7
S'404'
p867
sg9
S'2.jpg.bin'
p868
sa(dp869
g6
F1.4607490000000001
sg7
S'586'
p870
sg9
S'5.jpg.bin'
p871
sa(dp872
g6
F1.4139630000000001
sg7
S'209'
p873
sg9
S'5_noplate.jpg.bin'
p874
sa(dp875
g6
F1.3329089999999999
sg7
S'165'
p876
sg9
S'4_noplate.jpg.bin'
p877
sa(dp878
g6
F1.330036
sg7
S'211'
p879
sg9
S'10.jpg.bin'
p880
sa(dp881
g6
F1.1169549999999999
sg7
S'626'
p882
sg9
S'4_noplate.jpg.bin'
p883
sa(dp884
g6
F1.047401
sg7
S'924'
p885
sg9
S'1_noplate.jpg.bin'
p886
sa(dp887
g6
F1.0376399999999999
sg7
S'824'
p888
sg9
S'5.jpg.bin'
p889
sa(dp890
g6
F1.0126059999999999
sg7
S'494'
p891
sg9
S'1_noplate.jpg.bin'
p892
sa(dp893
g6
F0.94157999999999997
sg7
S'174'
p894
sg9
S'4.jpg.bin'
p895
sasg7
S'79'
p896
sg9
S'6_noplate.jpg.bin'
p897
sa(dp898
g3
(lp899
(dp900
g6
F10.630611
sg7
S'88'
p901
sg9
S'0_noplate.jpg.bin'
p902
sa(dp903
g6
F7.8319570000000001
sg7
S'599'
p904
sg9
S'3_noplate.jpg.bin'
p905
sa(dp906
g6
F7.5525250000000002
sg7
S'565'
p907
sg9
S'1.jpg.bin'
p908
sa(dp909
g6
F7.0150170000000003
sg7
S'567'
p910
sg9
S'7_noplate.jpg.bin'
p911
sa(dp912
g6
F5.9619119999999999
sg7
S'649'
p913
sg9
S'0_noplate.jpg.bin'
p914
sa(dp915
g6
F5.4983880000000003
sg7
S'329'
p916
sg9
S'5_noplate.jpg.bin'
p917
sa(dp918
g6
F5.4592689999999999
sg7
S'740'
p919
sg9
S'2_noplate.jpg.bin'
p920
sa(dp921
g6
F5.1059890000000001
sg7
S'507'
p922
sg9
S'6.jpg.bin'
p923
sa(dp924
g6
F3.9629590000000001
sg7
S'642'
p925
sg9
S'2_noplate.jpg.bin'
p926
sa(dp927
g6
F3.9016039999999998
sg7
S'164'
p928
sg9
S'6.jpg.bin'
p929
sa(dp930
g6
F3.8355980000000001
sg7
S'548'
p931
sg9
S'1.jpg.bin'
p932
sa(dp933
g6
F2.8614809999999999
sg7
S'584'
p934
sg9
S'3_noplate.jpg.bin'
p935
sa(dp936
g6
F2.8235950000000001
sg7
S'515'
p937
sg9
S'0.jpg.bin'
p938
sa(dp939
g6
F2.8020399999999999
sg7
S'268'
p940
sg9
S'3.jpg.bin'
p941
sa(dp942
g6
F2.780996
sg7
S'815'
p943
sg9
S'6_noplate.jpg.bin'
p944
sa(dp945
g6
F2.702353
sg7
S'338'
p946
sg9
S'0.jpg.bin'
p947
sa(dp948
g6
F2.615494
sg7
S'513'
p949
sg9
S'1_noplate.jpg.bin'
p950
sa(dp951
g6
F2.5268839999999999
sg7
S'671'
p952
sg9
S'1_noplate.jpg.bin'
p953
sa(dp954
g6
F2.5011199999999998
sg7
S'807'
p955
sg9
S'4.jpg.bin'
p956
sa(dp957
g6
F2.3127119999999999
sg7
S'586'
p958
sg9
S'5.jpg.bin'
p959
sasg7
S'88'
p960
sg9
S'3.jpg.bin'
p961
sa(dp962
g3
(lp963
(dp964
g6
F8.1922130000000006
sg7
S'183'
p965
sg9
S'4_noplate.jpg.bin'
p966
sa(dp967
g6
F6.9110149999999999
sg7
S'669'
p968
sg9
S'1.jpg.bin'
p969
sa(dp970
g6
F6.4200759999999999
sg7
S'736'
p971
sg9
S'0.jpg.bin'
p972
sa(dp973
g6
F6.3363250000000004
sg7
S'475'
p974
sg9
S'1.jpg.bin'
p975
sa(dp976
g6
F5.8530430000000004
sg7
S'612'
p977
sg9
S'0_noplate.jpg.bin'
p978
sa(dp979
g6
F5.4952889999999996
sg7
S'19'
p980
sg9
S'0_noplate.jpg.bin'
p981
sa(dp982
g6
F5.4900570000000002
sg7
S'505'
p983
sg9
S'3_noplate.jpg.bin'
p984
sa(dp985
g6
F5.1367659999999997
sg7
S'415'
p986
sg9
S'4.jpg.bin'
p987
sa(dp988
g6
F4.7305510000000002
sg7
S'672'
p989
sg9
S'7.jpg.bin'
p990
sa(dp991
g6
F4.2951389999999998
sg7
S'131'
p992
sg9
S'4_noplate.jpg.bin'
p993
sa(dp994
g6
F4.2070119999999998
sg7
S'225'
p995
sg9
S'3.jpg.bin'
p996
sa(dp997
g6
F4.1860619999999997
sg7
S'927'
p998
sg9
S'7.jpg.bin'
p999
sa(dp1000
g6
F4.1152800000000003
sg7
S'933'
p1001
sg9
S'6_noplate.jpg.bin'
p1002
sa(dp1003
g6
F4.112768
sg7
S'438'
p1004
sg9
S'1_noplate.jpg.bin'
p1005
sa(dp1006
g6
F3.809517
sg7
S'26'
p1007
sg9
S'6_noplate.jpg.bin'
p1008
sa(dp1009
g6
F3.7470949999999998
sg7
S'241'
p1010
sg9
S'0.jpg.bin'
p1011
sa(dp1012
g6
F3.7306819999999998
sg7
S'440'
p1013
sg9
S'4.jpg.bin'
p1014
sa(dp1015
g6
F3.5194869999999998
sg7
S'477'
p1016
sg9
S'5.jpg.bin'
p1017
sa(dp1018
g6
F3.5002
sg7
S'676'
p1019
sg9
S'4_noplate.jpg.bin'
p1020
sa(dp1021
g6
F3.4541970000000002
sg7
S'406'
p1022
sg9
S'0_noplate.jpg.bin'
p1023
sasg7
S'91'
p1024
sg9
S'0_noplate.jpg.bin'
p1025
sa(dp1026
g3
(lp1027
(dp1028
g6
F4.6948470000000002
sg7
S'0'
sg9
S'4.jpg.bin'
p1029
sa(dp1030
g6
F2.8480829999999999
sg7
S'248'
p1031
sg9
S'0.jpg.bin'
p1032
sa(dp1033
g6
F1.897869
sg7
S'235'
p1034
sg9
S'4.jpg.bin'
p1035
sa(dp1036
g6
F1.4019600000000001
sg7
S'653'
p1037
sg9
S'39_noplate.jpg.bin'
p1038
sa(dp1039
g6
F1.3974839999999999
sg7
S'411'
p1040
sg9
S'2_noplate.jpg.bin'
p1041
sa(dp1042
g6
F1.290422
sg7
S'562'
p1043
sg9
S'3.jpg.bin'
p1044
sa(dp1045
g6
F1.189568
sg7
S'159'
p1046
sg9
S'12_noplate.jpg.bin'
p1047
sa(dp1048
g6
F1.13442
sg7
S'264'
p1049
sg9
S'0.jpg.bin'
p1050
sa(dp1051
g6
F1.1064659999999999
sg7
S'627'
p1052
sg9
S'3_noplate.jpg.bin'
p1053
sa(dp1054
g6
F1.0685439999999999
sg7
S'632'
p1055
sg9
S'5.jpg.bin'
p1056
sa(dp1057
g6
F1.0367360000000001
sg7
S'749'
p1058
sg9
S'5.jpg.bin'
p1059
sa(dp1060
g6
F0.97546600000000006
sg7
S'28'
p1061
sg9
S'4_noplate.jpg.bin'
p1062
sa(dp1063
g6
F0.71934299999999995
sg7
S'665'
p1064
sg9
S'1_noplate.jpg.bin'
p1065
sa(dp1066
g6
F0.595634
sg7
S'434'
p1067
sg9
S'1.jpg.bin'
p1068
sa(dp1069
g6
F0.58732200000000001
sg7
S'312'
p1070
sg9
S'6_noplate.jpg.bin'
p1071
sa(dp1072
g6
F0.51345600000000002
sg7
S'191'
p1073
sg9
S'5_noplate.jpg.bin'
p1074
sa(dp1075
g6
F0.460142
sg7
S'413'
p1076
sg9
S'8_noplate.jpg.bin'
p1077
sa(dp1078
g6
F0.43252400000000002
sg7
S'94'
p1079
sg9
S'4_noplate.jpg.bin'
p1080
sa(dp1081
g6
F0.31229800000000002
sg7
S'287'
p1082
sg9
S'0.jpg.bin'
p1083
sa(dp1084
g6
F0.173647
sg7
S'880'
p1085
sg9
S'3_noplate.jpg.bin'
p1086
sasg7
S'0'
sg9
S'0_noplate.jpg.bin'
p1087
sa(dp1088
g3
(lp1089
(dp1090
g6
F3.8459469999999998
sg7
S'360'
p1091
sg9
S'2.jpg.bin'
p1092
sa(dp1093
g6
F2.9344709999999998
sg7
S'16'
p1094
sg9
S'3.jpg.bin'
p1095
sa(dp1096
g6
F2.5456789999999998
sg7
S'706'
p1097
sg9
S'1_noplate.jpg.bin'
p1098
sa(dp1099
g6
F2.3537669999999999
sg7
S'146'
p1100
sg9
S'1_noplate.jpg.bin'
p1101
sa(dp1102
g6
F2.1329039999999999
sg7
S'56'
p1103
sg9
S'3.jpg.bin'
p1104
sa(dp1105
g6
F1.911678
sg7
S'820'
p1106
sg9
S'8.jpg.bin'
p1107
sa(dp1108
g6
F1.803528
sg7
S'726'
p1109
sg9
S'0_noplate.jpg.bin'
p1110
sa(dp1111
g6
F1.768265
sg7
S'579'
p1112
sg9
S'4_noplate.jpg.bin'
p1113
sa(dp1114
g6
F1.6801470000000001
sg7
S'811'
p1115
sg9
S'6.jpg.bin'
p1116
sa(dp1117
g6
F1.6203669999999999
sg7
S'19'
p1118
sg9
S'0_noplate.jpg.bin'
p1119
sa(dp1120
g6
F1.5834060000000001
sg7
S'447'
p1121
sg9
S'3.jpg.bin'
p1122
sa(dp1123
g6
F1.4030480000000001
sg7
S'439'
p1124
sg9
S'3_noplate.jpg.bin'
p1125
sa(dp1126
g6
F1.3764289999999999
sg7
S'520'
p1127
sg9
S'4.jpg.bin'
p1128
sa(dp1129
g6
F1.3615090000000001
sg7
S'468'
p1130
sg9
S'1.jpg.bin'
p1131
sa(dp1132
g6
F1.2002109999999999
sg7
S'954'
p1133
sg9
S'6_noplate.jpg.bin'
p1134
sa(dp1135
g6
F1.1439109999999999
sg7
S'106'
p1136
sg9
S'1_noplate.jpg.bin'
p1137
sa(dp1138
g6
F1.1060939999999999
sg7
S'309'
p1139
sg9
S'2.jpg.bin'
p1140
sa(dp1141
g6
F1.082165
sg7
S'932'
p1142
sg9
S'1_noplate.jpg.bin'
p1143
sa(dp1144
g6
F1.0485340000000001
sg7
S'280'
p1145
sg9
S'2_noplate.jpg.bin'
p1146
sa(dp1147
g6
F0.973186
sg7
S'528'
p1148
sg9
S'1_noplate.jpg.bin'
p1149
sasg7
S'16'
p1150
sg9
S'1_noplate.jpg.bin'
p1151
sa(dp1152
g3
(lp1153
(dp1154
g6
F6.2539790000000002
sg7
S'150'
p1155
sg9
S'3.jpg.bin'
p1156
sa(dp1157
g6
F4.5032880000000004
sg7
S'34'
p1158
sg9
S'2_noplate.jpg.bin'
p1159
sa(dp1160
g6
F4.3775789999999999
sg7
S'631'
p1161
sg9
S'9_noplate.jpg.bin'
p1162
sa(dp1163
g6
F4.2396050000000001
sg7
S'523'
p1164
sg9
S'0_noplate.jpg.bin'
p1165
sa(dp1166
g6
F3.7354159999999998
sg7
S'956'
p1167
sg9
S'0_noplate.jpg.bin'
p1168
sa(dp1169
g6
F3.4544700000000002
sg7
S'843'
p1170
sg9
S'2_noplate.jpg.bin'
p1171
sa(dp1172
g6
F3.2662089999999999
sg7
S'54'
p1173
sg9
S'4.jpg.bin'
p1174
sa(dp1175
g6
F3.2310240000000001
sg7
S'199'
p1176
sg9
S'0_noplate.jpg.bin'
p1177
sa(dp1178
g6
F3.0853670000000002
sg7
S'69'
p1179
sg9
S'1_noplate.jpg.bin'
p1180
sa(dp1181
g6
F2.9834879999999999
sg7
S'989'
p1182
sg9
S'2.jpg.bin'
p1183
sa(dp1184
g6
F2.982288
sg7
S'808'
p1185
sg9
S'2_noplate.jpg.bin'
p1186
sa(dp1187
g6
F2.8900619999999999
sg7
S'80'
p1188
sg9
S'1_noplate.jpg.bin'
p1189
sa(dp1190
g6
F2.8649979999999999
sg7
S'443'
p1191
sg9
S'4.jpg.bin'
p1192
sa(dp1193
g6
F2.8023989999999999
sg7
S'182'
p1194
sg9
S'4.jpg.bin'
p1195
sa(dp1196
g6
F2.6190720000000001
sg7
S'22'
p1197
sg9
S'1.jpg.bin'
p1198
sa(dp1199
g6
F2.5556739999999998
sg7
S'361'
p1200
sg9
S'2_noplate.jpg.bin'
p1201
sa(dp1202
g6
F2.3968959999999999
sg7
S'335'
p1203
sg9
S'5_noplate.jpg.bin'
p1204
sa(dp1205
g6
F2.3722919999999998
sg7
S'379'
p1206
sg9
S'9_noplate.jpg.bin'
p1207
sa(dp1208
g6
F2.0499610000000001
sg7
S'792'
p1209
sg9
S'2_noplate.jpg.bin'
p1210
sa(dp1211
g6
F2.015768
sg7
S'165'
p1212
sg9
S'4_noplate.jpg.bin'
p1213
sasg7
S'34'
p1214
sg9
S'5.jpg.bin'
p1215
sa(dp1216
g3
(lp1217
(dp1218
g6
F4.9661439999999999
sg7
S'939'
p1219
sg9
S'5_noplate.jpg.bin'
p1220
sa(dp1221
g6
F4.34321
sg7
S'684'
p1222
sg9
S'4.jpg.bin'
p1223
sa(dp1224
g6
F4.133883
sg7
S'377'
p1225
sg9
S'1_noplate.jpg.bin'
p1226
sa(dp1227
g6
F3.731382
sg7
S'25'
p1228
sg9
S'3.jpg.bin'
p1229
sa(dp1230
g6
F3.673521
sg7
S'925'
p1231
sg9
S'0.jpg.bin'
p1232
sa(dp1233
g6
F3.3481960000000002
sg7
S'823'
p1234
sg9
S'2_noplate.jpg.bin'
p1235
sa(dp1236
g6
F3.3393899999999999
sg7
S'792'
p1237
sg9
S'2_noplate.jpg.bin'
p1238
sa(dp1239
g6
F3.064381
sg7
S'379'
p1240
sg9
S'9_noplate.jpg.bin'
p1241
sa(dp1242
g6
F3.0199029999999998
sg7
S'851'
p1243
sg9
S'6.jpg.bin'
p1244
sa(dp1245
g6
F2.9542220000000001
sg7
S'152'
p1246
sg9
S'7.jpg.bin'
p1247
sa(dp1248
g6
F2.8513130000000002
sg7
S'655'
p1249
sg9
S'0_noplate.jpg.bin'
p1250
sa(dp1251
g6
F2.848465
sg7
S'383'
p1252
sg9
S'5_noplate.jpg.bin'
p1253
sa(dp1254
g6
F2.57369
sg7
S'310'
p1255
sg9
S'7_noplate.jpg.bin'
p1256
sa(dp1257
g6
F2.5735800000000002
sg7
S'815'
p1258
sg9
S'6_noplate.jpg.bin'
p1259
sa(dp1260
g6
F2.352236
sg7
S'524'
p1261
sg9
S'8.jpg.bin'
p1262
sa(dp1263
g6
F2.2927040000000001
sg7
S'955'
p1264
sg9
S'1_noplate.jpg.bin'
p1265
sa(dp1266
g6
F2.1945269999999999
sg7
S'991'
p1267
sg9
S'4_noplate.jpg.bin'
p1268
sa(dp1269
g6
F2.1807400000000001
sg7
S'253'
p1270
sg9
S'1.jpg.bin'
p1271
sa(dp1272
g6
F2.1634500000000001
sg7
S'329'
p1273
sg9
S'5_noplate.jpg.bin'
p1274
sa(dp1275
g6
F2.1300219999999999
sg7
S'14'
p1276
sg9
S'1_noplate.jpg.bin'
p1277
sasg7
S'46'
p1278
sg9
S'0.jpg.bin'
p1279
sa(dp1280
g3
(lp1281
(dp1282
g6
F8.3021410000000007
sg7
S'45'
p1283
sg9
S'1_noplate.jpg.bin'
p1284
sa(dp1285
g6
F4.3307250000000002
sg7
S'264'
p1286
sg9
S'0.jpg.bin'
p1287
sa(dp1288
g6
F4.2076799999999999
sg7
S'191'
p1289
sg9
S'5_noplate.jpg.bin'
p1290
sa(dp1291
g6
F3.7999130000000001
sg7
S'59'
p1292
sg9
S'3.jpg.bin'
p1293
sa(dp1294
g6
F3.4957940000000001
sg7
S'255'
p1295
sg9
S'1_noplate.jpg.bin'
p1296
sa(dp1297
g6
F3.0171570000000001
sg7
S'562'
p1298
sg9
S'3.jpg.bin'
p1299
sa(dp1300
g6
F2.9171849999999999
sg7
S'749'
p1301
sg9
S'5.jpg.bin'
p1302
sa(dp1303
g6
F2.7175729999999998
sg7
S'759'
p1304
sg9
S'6_noplate.jpg.bin'
p1305
sa(dp1306
g6
F2.325081
sg7
S'503'
p1307
sg9
S'5_noplate.jpg.bin'
p1308
sa(dp1309
g6
F1.939373
sg7
S'870'
p1310
sg9
S'2_noplate.jpg.bin'
p1311
sa(dp1312
g6
F1.85232
sg7
S'627'
p1313
sg9
S'3_noplate.jpg.bin'
p1314
sa(dp1315
g6
F1.698215
sg7
S'181'
p1316
sg9
S'1.jpg.bin'
p1317
sa(dp1318
g6
F1.522243
sg7
S'897'
p1319
sg9
S'3_noplate.jpg.bin'
p1320
sa(dp1321
g6
F1.349369
sg7
S'934'
p1322
sg9
S'2.jpg.bin'
p1323
sa(dp1324
g6
F1.326147
sg7
S'434'
p1325
sg9
S'1.jpg.bin'
p1326
sa(dp1327
g6
F1.2265029999999999
sg7
S'158'
p1328
sg9
S'3.jpg.bin'
p1329
sa(dp1330
g6
F1.2095739999999999
sg7
S'880'
p1331
sg9
S'3_noplate.jpg.bin'
p1332
sa(dp1333
g6
F1.1975100000000001
sg7
S'175'
p1334
sg9
S'3_noplate.jpg.bin'
p1335
sa(dp1336
g6
F1.157667
sg7
S'43'
p1337
sg9
S'5_noplate.jpg.bin'
p1338
sa(dp1339
g6
F1.127283
sg7
S'665'
p1340
sg9
S'1_noplate.jpg.bin'
p1341
sasg7
S'45'
p1342
sg9
S'0_noplate.jpg.bin'
p1343
sa(dp1344
g3
(lp1345
(dp1346
g6
F6.1820279999999999
sg7
S'36'
p1347
sg9
S'7.jpg.bin'
p1348
sa(dp1349
g6
F4.1656319999999996
sg7
S'289'
p1350
sg9
S'3.jpg.bin'
p1351
sa(dp1352
g6
F3.7969089999999999
sg7
S'886'
p1353
sg9
S'4_noplate.jpg.bin'
p1354
sa(dp1355
g6
F3.6060539999999999
sg7
S'180'
p1356
sg9
S'5_noplate.jpg.bin'
p1357
sa(dp1358
g6
F3.5738750000000001
sg7
S'702'
p1359
sg9
S'7_noplate.jpg.bin'
p1360
sa(dp1361
g6
F3.4477859999999998
sg7
S'242'
p1362
sg9
S'0_noplate.jpg.bin'
p1363
sa(dp1364
g6
F3.1944680000000001
sg7
S'979'
p1365
sg9
S'8_noplate.jpg.bin'
p1366
sa(dp1367
g6
F3.0653510000000002
sg7
S'628'
p1368
sg9
S'2.jpg.bin'
p1369
sa(dp1370
g6
F2.9960119999999999
sg7
S'942'
p1371
sg9
S'5_noplate.jpg.bin'
p1372
sa(dp1373
g6
F2.9783379999999999
sg7
S'625'
p1374
sg9
S'2.jpg.bin'
p1375
sa(dp1376
g6
F2.806705
sg7
S'826'
p1377
sg9
S'4.jpg.bin'
p1378
sa(dp1379
g6
F2.6318739999999998
sg7
S'83'
p1380
sg9
S'3_noplate.jpg.bin'
p1381
sa(dp1382
g6
F2.624285
sg7
S'185'
p1383
sg9
S'17_noplate.jpg.bin'
p1384
sa(dp1385
g6
F2.5446949999999999
sg7
S'195'
p1386
sg9
S'4.jpg.bin'
p1387
sa(dp1388
g6
F2.4659559999999998
sg7
S'860'
p1389
sg9
S'1.jpg.bin'
p1390
sa(dp1391
g6
F2.4340630000000001
sg7
S'954'
p1392
sg9
S'6_noplate.jpg.bin'
p1393
sa(dp1394
g6
F2.3783110000000001
sg7
S'422'
p1395
sg9
S'2_noplate.jpg.bin'
p1396
sa(dp1397
g6
F2.260815
sg7
S'434'
p1398
sg9
S'1.jpg.bin'
p1399
sa(dp1400
g6
F2.251255
sg7
S'723'
p1401
sg9
S'5.jpg.bin'
p1402
sa(dp1403
g6
F2.2418140000000002
sg7
S'918'
p1404
sg9
S'1_noplate.jpg.bin'
p1405
sasg7
S'36'
p1406
sg9
S'3.jpg.bin'
p1407
sa(dp1408
g3
(lp1409
(dp1410
g6
F5.72051
sg7
S'577'
p1411
sg9
S'2.jpg.bin'
p1412
sa(dp1413
g6
F5.1599120000000003
sg7
S'855'
p1414
sg9
S'0_noplate.jpg.bin'
p1415
sa(dp1416
g6
F5.0135329999999998
sg7
S'789'
p1417
sg9
S'5_noplate.jpg.bin'
p1418
sa(dp1419
g6
F4.6541649999999999
sg7
S'126'
p1420
sg9
S'1.jpg.bin'
p1421
sa(dp1422
g6
F4.3871039999999999
sg7
S'714'
p1423
sg9
S'1.jpg.bin'
p1424
sa(dp1425
g6
F4.0443249999999997
sg7
S'98'
p1426
sg9
S'2.jpg.bin'
p1427
sa(dp1428
g6
F3.7689629999999998
sg7
S'163'
p1429
sg9
S'12_noplate.jpg.bin'
p1430
sa(dp1431
g6
F3.592606
sg7
S'563'
p1432
sg9
S'5_noplate.jpg.bin'
p1433
sa(dp1434
g6
F3.5157379999999998
sg7
S'751'
p1435
sg9
S'6.jpg.bin'
p1436
sa(dp1437
g6
F3.334511
sg7
S'518'
p1438
sg9
S'4.jpg.bin'
p1439
sa(dp1440
g6
F2.9382990000000002
sg7
S'720'
p1441
sg9
S'2.jpg.bin'
p1442
sa(dp1443
g6
F2.9284880000000002
sg7
S'210'
p1444
sg9
S'4.jpg.bin'
p1445
sa(dp1446
g6
F2.7784819999999999
sg7
S'556'
p1447
sg9
S'8.jpg.bin'
p1448
sa(dp1449
g6
F2.7004679999999999
sg7
S'43'
p1450
sg9
S'5_noplate.jpg.bin'
p1451
sa(dp1452
g6
F2.6472150000000001
sg7
S'82'
p1453
sg9
S'1_noplate.jpg.bin'
p1454
sa(dp1455
g6
F2.4047239999999999
sg7
S'194'
p1456
sg9
S'5.jpg.bin'
p1457
sa(dp1458
g6
F2.3667790000000002
sg7
S'534'
p1459
sg9
S'5.jpg.bin'
p1460
sa(dp1461
g6
F2.3262580000000002
sg7
S'667'
p1462
sg9
S'0.jpg.bin'
p1463
sa(dp1464
g6
F2.3178809999999999
sg7
S'175'
p1465
sg9
S'3_noplate.jpg.bin'
p1466
sa(dp1467
g6
F2.2094749999999999
sg7
S'363'
p1468
sg9
S'2.jpg.bin'
p1469
sasg7
S'98'
p1470
sg9
S'3_noplate.jpg.bin'
p1471
sa(dp1472
g3
(lp1473
(dp1474
g6
F5.1746850000000002
sg7
S'48'
p1475
sg9
S'3.jpg.bin'
p1476
sa(dp1477
g6
F5.14222
sg7
S'911'
p1478
sg9
S'8.jpg.bin'
p1479
sa(dp1480
g6
F3.7568609999999998
sg7
S'403'
p1481
sg9
S'2.jpg.bin'
p1482
sa(dp1483
g6
F3.3091599999999999
sg7
S'154'
p1484
sg9
S'3.jpg.bin'
p1485
sa(dp1486
g6
F3.1549489999999998
sg7
S'20'
p1487
sg9
S'4.jpg.bin'
p1488
sa(dp1489
g6
F2.9561920000000002
sg7
S'686'
p1490
sg9
S'3.jpg.bin'
p1491
sa(dp1492
g6
F2.6027010000000002
sg7
S'231'
p1493
sg9
S'1.jpg.bin'
p1494
sa(dp1495
g6
F2.4825309999999998
sg7
S'812'
p1496
sg9
S'2.jpg.bin'
p1497
sa(dp1498
g6
F2.3501110000000001
sg7
S'995'
p1499
sg9
S'4.jpg.bin'
p1500
sa(dp1501
g6
F2.3395820000000001
sg7
S'918'
p1502
sg9
S'1_noplate.jpg.bin'
p1503
sa(dp1504
g6
F2.0988540000000002
sg7
S'423'
p1505
sg9
S'6.jpg.bin'
p1506
sa(dp1507
g6
F2.082649
sg7
S'273'
p1508
sg9
S'5_noplate.jpg.bin'
p1509
sa(dp1510
g6
F1.926085
sg7
S'643'
p1511
sg9
S'9.jpg.bin'
p1512
sa(dp1513
g6
F1.77817
sg7
S'948'
p1514
sg9
S'0_noplate.jpg.bin'
p1515
sa(dp1516
g6
F1.716496
sg7
S'775'
p1517
sg9
S'1_noplate.jpg.bin'
p1518
sa(dp1519
g6
F1.699036
sg7
S'550'
p1520
sg9
S'0.jpg.bin'
p1521
sa(dp1522
g6
F1.5029140000000001
sg7
S'827'
p1523
sg9
S'7.jpg.bin'
p1524
sa(dp1525
g6
F1.4552419999999999
sg7
S'867'
p1526
sg9
S'1_noplate.jpg.bin'
p1527
sa(dp1528
g6
F1.3134479999999999
sg7
S'575'
p1529
sg9
S'3_noplate.jpg.bin'
p1530
sa(dp1531
g6
F1.208151
sg7
S'471'
p1532
sg9
S'1.jpg.bin'
p1533
sasg7
S'48'
p1534
sg9
S'1_noplate.jpg.bin'
p1535
sa(dp1536
g3
(lp1537
(dp1538
g6
F31.489597
sg7
S'20'
p1539
sg9
S'4.jpg.bin'
p1540
sa(dp1541
g6
F5.8525749999999999
sg7
S'867'
p1542
sg9
S'1_noplate.jpg.bin'
p1543
sa(dp1544
g6
F4.3181799999999999
sg7
S'48'
p1545
sg9
S'3.jpg.bin'
p1546
sa(dp1547
g6
F4.2294600000000004
sg7
S'798'
p1548
sg9
S'0_noplate.jpg.bin'
p1549
sa(dp1550
g6
F4.0015790000000004
sg7
S'911'
p1551
sg9
S'8.jpg.bin'
p1552
sa(dp1553
g6
F3.9001579999999998
sg7
S'918'
p1554
sg9
S'1_noplate.jpg.bin'
p1555
sa(dp1556
g6
F3.7685810000000002
sg7
S'28'
p1557
sg9
S'4_noplate.jpg.bin'
p1558
sa(dp1559
g6
F3.6144289999999999
sg7
S'812'
p1560
sg9
S'2.jpg.bin'
p1561
sa(dp1562
g6
F3.493563
sg7
S'109'
p1563
sg9
S'4_noplate.jpg.bin'
p1564
sa(dp1565
g6
F3.2640720000000001
sg7
S'483'
p1566
sg9
S'1_noplate.jpg.bin'
p1567
sa(dp1568
g6
F3.18709
sg7
S'273'
p1569
sg9
S'5_noplate.jpg.bin'
p1570
sa(dp1571
g6
F3.0155029999999998
sg7
S'423'
p1572
sg9
S'6.jpg.bin'
p1573
sa(dp1574
g6
F2.697721
sg7
S'231'
p1575
sg9
S'1.jpg.bin'
p1576
sa(dp1577
g6
F2.1980040000000001
sg7
S'539'
p1578
sg9
S'3.jpg.bin'
p1579
sa(dp1580
g6
F2.1110289999999998
sg7
S'870'
p1581
sg9
S'2_noplate.jpg.bin'
p1582
sa(dp1583
g6
F2.0596100000000002
sg7
S'24'
p1584
sg9
S'4.jpg.bin'
p1585
sa(dp1586
g6
F1.982834
sg7
S'154'
p1587
sg9
S'3.jpg.bin'
p1588
sa(dp1589
g6
F1.8750230000000001
sg7
S'575'
p1590
sg9
S'3_noplate.jpg.bin'
p1591
sa(dp1592
g6
F1.8166640000000001
sg7
S'685'
p1593
sg9
S'3_noplate.jpg.bin'
p1594
sa(dp1595
g6
F1.7840180000000001
sg7
S'700'
p1596
sg9
S'3_noplate.jpg.bin'
p1597
sasg7
S'20'
p1598
sg9
S'4_noplate.jpg.bin'
p1599
sa(dp1600
g3
(lp1601
(dp1602
g6
F13.898237
sg7
S'75'
p1603
sg9
S'4_noplate.jpg.bin'
p1604
sa(dp1605
g6
F4.6771659999999997
sg7
S'643'
p1606
sg9
S'9.jpg.bin'
p1607
sa(dp1608
g6
F3.7620749999999998
sg7
S'859'
p1609
sg9
S'12.jpg.bin'
p1610
sa(dp1611
g6
F2.9003540000000001
sg7
S'897'
p1612
sg9
S'3_noplate.jpg.bin'
p1613
sa(dp1614
g6
F2.5482119999999999
sg7
S'645'
p1615
sg9
S'0.jpg.bin'
p1616
sa(dp1617
g6
F2.4729230000000002
sg7
S'550'
p1618
sg9
S'0.jpg.bin'
p1619
sa(dp1620
g6
F1.596727
sg7
S'865'
p1621
sg9
S'0.jpg.bin'
p1622
sa(dp1623
g6
F1.5370220000000001
sg7
S'471'
p1624
sg9
S'1.jpg.bin'
p1625
sa(dp1626
g6
F1.3751180000000001
sg7
S'752'
p1627
sg9
S'0.jpg.bin'
p1628
sa(dp1629
g6
F1.291811
sg7
S'422'
p1630
sg9
S'2_noplate.jpg.bin'
p1631
sa(dp1632
g6
F1.1514420000000001
sg7
S'264'
p1633
sg9
S'0.jpg.bin'
p1634
sa(dp1635
g6
F1.114954
sg7
S'725'
p1636
sg9
S'2.jpg.bin'
p1637
sa(dp1638
g6
F1.0432589999999999
sg7
S'111'
p1639
sg9
S'2_noplate.jpg.bin'
p1640
sa(dp1641
g6
F0.97148299999999999
sg7
S'423'
p1642
sg9
S'6.jpg.bin'
p1643
sa(dp1644
g6
F0.85915799999999998
sg7
S'500'
p1645
sg9
S'2_noplate.jpg.bin'
p1646
sa(dp1647
g6
F0.66323699999999997
sg7
S'275'
p1648
sg9
S'0.jpg.bin'
p1649
sa(dp1650
g6
F0.65162299999999995
sg7
S'630'
p1651
sg9
S'5_noplate.jpg.bin'
p1652
sa(dp1653
g6
F0.61169600000000002
sg7
S'403'
p1654
sg9
S'2.jpg.bin'
p1655
sa(dp1656
g6
F0.59990299999999996
sg7
S'538'
p1657
sg9
S'3.jpg.bin'
p1658
sa(dp1659
g6
F0.57374400000000003
sg7
S'911'
p1660
sg9
S'8.jpg.bin'
p1661
sasg7
S'75'
p1662
sg9
S'5.jpg.bin'
p1663
sa(dp1664
g3
(lp1665
(dp1666
g6
F5.964626
sg7
S'97'
p1667
sg9
S'0.jpg.bin'
p1668
sa(dp1669
g6
F3.1498360000000001
sg7
S'144'
p1670
sg9
S'1_noplate.jpg.bin'
p1671
sa(dp1672
g6
F2.1859609999999998
sg7
S'682'
p1673
sg9
S'7.jpg.bin'
p1674
sa(dp1675
g6
F1.3652550000000001
sg7
S'312'
p1676
sg9
S'6_noplate.jpg.bin'
p1677
sa(dp1678
g6
F1.0208680000000001
sg7
S'293'
p1679
sg9
S'7.jpg.bin'
p1680
sa(dp1681
g6
F0.52461599999999997
sg7
S'940'
p1682
sg9
S'3_noplate.jpg.bin'
p1683
sa(dp1684
g6
F0.36889300000000003
sg7
S'184'
p1685
sg9
S'6_noplate.jpg.bin'
p1686
sa(dp1687
g6
F0.031744000000000001
sg7
S'219'
p1688
sg9
S'3_noplate.jpg.bin'
p1689
sa(dp1690
g6
F-0.21038599999999999
sg7
S'337'
p1691
sg9
S'3_noplate.jpg.bin'
p1692
sa(dp1693
g6
F-0.22825599999999999
sg7
S'494'
p1694
sg9
S'1_noplate.jpg.bin'
p1695
sa(dp1696
g6
F-0.238817
sg7
S'446'
p1697
sg9
S'0.jpg.bin'
p1698
sa(dp1699
g6
F-0.39063500000000001
sg7
S'317'
p1700
sg9
S'2.jpg.bin'
p1701
sa(dp1702
g6
F-0.44639200000000001
sg7
S'634'
p1703
sg9
S'1_noplate.jpg.bin'
p1704
sa(dp1705
g6
F-0.54012700000000002
sg7
S'515'
p1706
sg9
S'0.jpg.bin'
p1707
sa(dp1708
g6
F-0.63096799999999997
sg7
S'434'
p1709
sg9
S'1.jpg.bin'
p1710
sa(dp1711
g6
F-0.67827000000000004
sg7
S'562'
p1712
sg9
S'3.jpg.bin'
p1713
sa(dp1714
g6
F-0.75099000000000005
sg7
S'43'
p1715
sg9
S'5_noplate.jpg.bin'
p1716
sa(dp1717
g6
F-0.75495900000000005
sg7
S'235'
p1718
sg9
S'4.jpg.bin'
p1719
sa(dp1720
g6
F-0.75694799999999995
sg7
S'957'
p1721
sg9
S'3_noplate.jpg.bin'
p1722
sa(dp1723
g6
F-0.77505100000000005
sg7
S'570'
p1724
sg9
S'4.jpg.bin'
p1725
sasg7
S'97'
p1726
sg9
S'1.jpg.bin'
p1727
sa(dp1728
g3
(lp1729
(dp1730
g6
F6.4890059999999998
sg7
S'47'
p1731
sg9
S'3_noplate.jpg.bin'
p1732
sa(dp1733
g6
F5.6146830000000003
sg7
S'250'
p1734
sg9
S'4_noplate.jpg.bin'
p1735
sa(dp1736
g6
F5.500877
sg7
S'421'
p1737
sg9
S'1.jpg.bin'
p1738
sa(dp1739
g6
F5.4133570000000004
sg7
S'866'
p1740
sg9
S'5_noplate.jpg.bin'
p1741
sa(dp1742
g6
F4.3670809999999998
sg7
S'458'
p1743
sg9
S'4_noplate.jpg.bin'
p1744
sa(dp1745
g6
F4.2877099999999997
sg7
S'581'
p1746
sg9
S'2.jpg.bin'
p1747
sa(dp1748
g6
F4.0435850000000002
sg7
S'366'
p1749
sg9
S'0.jpg.bin'
p1750
sa(dp1751
g6
F3.6402299999999999
sg7
S'360'
p1752
sg9
S'2.jpg.bin'
p1753
sa(dp1754
g6
F3.469992
sg7
S'685'
p1755
sg9
S'3_noplate.jpg.bin'
p1756
sa(dp1757
g6
F3.218664
sg7
S'202'
p1758
sg9
S'8.jpg.bin'
p1759
sa(dp1760
g6
F2.69231
sg7
S'31'
p1761
sg9
S'6.jpg.bin'
p1762
sa(dp1763
g6
F2.5118499999999999
sg7
S'280'
p1764
sg9
S'2_noplate.jpg.bin'
p1765
sa(dp1766
g6
F2.4684490000000001
sg7
S'373'
p1767
sg9
S'5.jpg.bin'
p1768
sa(dp1769
g6
F2.2635519999999998
sg7
S'322'
p1770
sg9
S'4.jpg.bin'
p1771
sa(dp1772
g6
F2.2521840000000002
sg7
S'579'
p1773
sg9
S'4_noplate.jpg.bin'
p1774
sa(dp1775
g6
F2.1916769999999999
sg7
S'138'
p1776
sg9
S'2.jpg.bin'
p1777
sa(dp1778
g6
F2.151688
sg7
S'303'
p1779
sg9
S'3.jpg.bin'
p1780
sa(dp1781
g6
F2.0172349999999999
sg7
S'826'
p1782
sg9
S'4.jpg.bin'
p1783
sa(dp1784
g6
F1.8991070000000001
sg7
S'106'
p1785
sg9
S'1_noplate.jpg.bin'
p1786
sa(dp1787
g6
F1.8771249999999999
sg7
S'351'
p1788
sg9
S'5.jpg.bin'
p1789
sasg7
S'47'
p1790
sg9
S'4.jpg.bin'
p1791
sa(dp1792
g3
(lp1793
(dp1794
g6
F6.3564610000000004
sg7
S'35'
p1795
sg9
S'1.jpg.bin'
p1796
sa(dp1797
g6
F5.4009780000000003
sg7
S'199'
p1798
sg9
S'0_noplate.jpg.bin'
p1799
sa(dp1800
g6
F3.612717
sg7
S'631'
p1801
sg9
S'9_noplate.jpg.bin'
p1802
sa(dp1803
g6
F3.1791
sg7
S'79'
p1804
sg9
S'3_noplate.jpg.bin'
p1805
sa(dp1806
g6
F1.875542
sg7
S'150'
p1807
sg9
S'3.jpg.bin'
p1808
sa(dp1809
g6
F1.5461560000000001
sg7
S'851'
p1810
sg9
S'6.jpg.bin'
p1811
sa(dp1812
g6
F1.2559800000000001
sg7
S'107'
p1813
sg9
S'4.jpg.bin'
p1814
sa(dp1815
g6
F1.238977
sg7
S'54'
p1816
sg9
S'4.jpg.bin'
p1817
sa(dp1818
g6
F1.166237
sg7
S'152'
p1819
sg9
S'7.jpg.bin'
p1820
sa(dp1821
g6
F1.052238
sg7
S'824'
p1822
sg9
S'5.jpg.bin'
p1823
sa(dp1824
g6
F1.0341800000000001
sg7
S'299'
p1825
sg9
S'1.jpg.bin'
p1826
sa(dp1827
g6
F0.83373299999999995
sg7
S'808'
p1828
sg9
S'2_noplate.jpg.bin'
p1829
sa(dp1830
g6
F0.68280200000000002
sg7
S'792'
p1831
sg9
S'2_noplate.jpg.bin'
p1832
sa(dp1833
g6
F0.57403199999999999
sg7
S'358'
p1834
sg9
S'6.jpg.bin'
p1835
sa(dp1836
g6
F0.51811799999999997
sg7
S'390'
p1837
sg9
S'2.jpg.bin'
p1838
sa(dp1839
g6
F0.51049999999999995
sg7
S'68'
p1840
sg9
S'0.jpg.bin'
p1841
sa(dp1842
g6
F0.44656800000000002
sg7
S'404'
p1843
sg9
S'2.jpg.bin'
p1844
sa(dp1845
g6
F0.44518999999999997
sg7
S'802'
p1846
sg9
S'0.jpg.bin'
p1847
sa(dp1848
g6
F0.43601000000000001
sg7
S'748'
p1849
sg9
S'0.jpg.bin'
p1850
sa(dp1851
g6
F0.39854000000000001
sg7
S'361'
p1852
sg9
S'2_noplate.jpg.bin'
p1853
sasg7
S'35'
p1854
sg9
S'4_noplate.jpg.bin'
p1855
sa(dp1856
g3
(lp1857
(dp1858
g6
F8.5050980000000003
sg7
S'84'
p1859
sg9
S'3.jpg.bin'
p1860
sa(dp1861
g6
F5.4233149999999997
sg7
S'788'
p1862
sg9
S'2.jpg.bin'
p1863
sa(dp1864
g6
F4.7143730000000001
sg7
S'200'
p1865
sg9
S'4.jpg.bin'
p1866
sa(dp1867
g6
F3.7593999999999999
sg7
S'587'
p1868
sg9
S'3_noplate.jpg.bin'
p1869
sa(dp1870
g6
F3.6750600000000002
sg7
S'199'
p1871
sg9
S'0_noplate.jpg.bin'
p1872
sa(dp1873
g6
F3.5429710000000001
sg7
S'604'
p1874
sg9
S'1_noplate.jpg.bin'
p1875
sa(dp1876
g6
F3.521099
sg7
S'271'
p1877
sg9
S'0.jpg.bin'
p1878
sa(dp1879
g6
F2.9812340000000002
sg7
S'390'
p1880
sg9
S'2.jpg.bin'
p1881
sa(dp1882
g6
F2.7474560000000001
sg7
S'377'
p1883
sg9
S'1_noplate.jpg.bin'
p1884
sa(dp1885
g6
F2.4835210000000001
sg7
S'730'
p1886
sg9
S'7_noplate.jpg.bin'
p1887
sa(dp1888
g6
F2.4833829999999999
sg7
S'802'
p1889
sg9
S'0.jpg.bin'
p1890
sa(dp1891
g6
F2.451263
sg7
S'12'
p1892
sg9
S'5_noplate.jpg.bin'
p1893
sa(dp1894
g6
F2.3046989999999998
sg7
S'884'
p1895
sg9
S'0.jpg.bin'
p1896
sa(dp1897
g6
F2.27894
sg7
S'499'
p1898
sg9
S'5.jpg.bin'
p1899
sa(dp1900
g6
F2.2667709999999999
sg7
S'304'
p1901
sg9
S'2.jpg.bin'
p1902
sa(dp1903
g6
F2.0610620000000002
sg7
S'296'
p1904
sg9
S'3_noplate.jpg.bin'
p1905
sa(dp1906
g6
F2.0496439999999998
sg7
S'34'
p1907
sg9
S'2_noplate.jpg.bin'
p1908
sa(dp1909
g6
F2.0348000000000002
sg7
S'566'
p1910
sg9
S'13_noplate.jpg.bin'
p1911
sa(dp1912
g6
F1.978121
sg7
S'636'
p1913
sg9
S'0_noplate.jpg.bin'
p1914
sa(dp1915
g6
F1.807226
sg7
S'346'
p1916
sg9
S'10_noplate.jpg.bin'
p1917
sasg7
S'84'
p1918
sg9
S'2_noplate.jpg.bin'
p1919
sa(dp1920
g3
(lp1921
(dp1922
g6
F7.4965359999999999
sg7
S'96'
p1923
sg9
S'1.jpg.bin'
p1924
sa(dp1925
g6
F5.4646800000000004
sg7
S'109'
p1926
sg9
S'4_noplate.jpg.bin'
p1927
sa(dp1928
g6
F3.4384730000000001
sg7
S'845'
p1929
sg9
S'0_noplate.jpg.bin'
p1930
sa(dp1931
g6
F3.378088
sg7
S'28'
p1932
sg9
S'4_noplate.jpg.bin'
p1933
sa(dp1934
g6
F3.1483120000000002
sg7
S'13'
p1935
sg9
S'5.jpg.bin'
p1936
sa(dp1937
g6
F3.0469970000000002
sg7
S'17'
p1938
sg9
S'2_noplate.jpg.bin'
p1939
sa(dp1940
g6
F2.7270970000000001
sg7
S'798'
p1941
sg9
S'0_noplate.jpg.bin'
p1942
sa(dp1943
g6
F1.9657610000000001
sg7
S'870'
p1944
sg9
S'2_noplate.jpg.bin'
p1945
sa(dp1946
g6
F1.785501
sg7
S'424'
p1947
sg9
S'3_noplate.jpg.bin'
p1948
sa(dp1949
g6
F1.545275
sg7
S'708'
p1950
sg9
S'4.jpg.bin'
p1951
sa(dp1952
g6
F1.537874
sg7
S'178'
p1953
sg9
S'7_noplate.jpg.bin'
p1954
sa(dp1955
g6
F1.3511310000000001
sg7
S'977'
p1956
sg9
S'0.jpg.bin'
p1957
sa(dp1958
g6
F1.258205
sg7
S'949'
p1959
sg9
S'3_noplate.jpg.bin'
p1960
sa(dp1961
g6
F1.2007030000000001
sg7
S'812'
p1962
sg9
S'2.jpg.bin'
p1963
sa(dp1964
g6
F1.080435
sg7
S'483'
p1965
sg9
S'1_noplate.jpg.bin'
p1966
sa(dp1967
g6
F0.62982400000000005
sg7
S'950'
p1968
sg9
S'3_noplate.jpg.bin'
p1969
sa(dp1970
g6
F0.51377499999999998
sg7
S'262'
p1971
sg9
S'1_noplate.jpg.bin'
p1972
sa(dp1973
g6
F0.45336199999999999
sg7
S'573'
p1974
sg9
S'2.jpg.bin'
p1975
sa(dp1976
g6
F0.32052599999999998
sg7
S'612'
p1977
sg9
S'0_noplate.jpg.bin'
p1978
sa(dp1979
g6
F0.23161100000000001
sg7
S'53'
p1980
sg9
S'4.jpg.bin'
p1981
sasg7
S'28'
p1982
sg9
S'3.jpg.bin'
p1983
sa(dp1984
g3
(lp1985
(dp1986
g6
F9.4327559999999995
sg7
S'68'
p1987
sg9
S'0.jpg.bin'
p1988
sa(dp1989
g6
F8.3731369999999998
sg7
S'868'
p1990
sg9
S'1.jpg.bin'
p1991
sa(dp1992
g6
F3.1446480000000001
sg7
S'836'
p1993
sg9
S'4_noplate.jpg.bin'
p1994
sa(dp1995
g6
F2.8004470000000001
sg7
S'199'
p1996
sg9
S'0_noplate.jpg.bin'
p1997
sa(dp1998
g6
F2.7327710000000001
sg7
S'803'
p1999
sg9
S'3_noplate.jpg.bin'
p2000
sa(dp2001
g6
F2.7164100000000002
sg7
S'79'
p2002
sg9
S'3_noplate.jpg.bin'
p2003
sa(dp2004
g6
F2.1357569999999999
sg7
S'750'
p2005
sg9
S'3.jpg.bin'
p2006
sa(dp2007
g6
F1.912018
sg7
S'970'
p2008
sg9
S'6_noplate.jpg.bin'
p2009
sa(dp2010
g6
F1.787909
sg7
S'939'
p2011
sg9
S'5_noplate.jpg.bin'
p2012
sa(dp2013
g6
F1.6283650000000001
sg7
S'627'
p2014
sg9
S'3_noplate.jpg.bin'
p2015
sa(dp2016
g6
F1.564157
sg7
S'307'
p2017
sg9
S'5.jpg.bin'
p2018
sa(dp2019
g6
F1.5613330000000001
sg7
S'34'
p2020
sg9
S'2_noplate.jpg.bin'
p2021
sa(dp2022
g6
F1.384436
sg7
S'431'
p2023
sg9
S'1.jpg.bin'
p2024
sa(dp2025
g6
F1.315132
sg7
S'808'
p2026
sg9
S'2_noplate.jpg.bin'
p2027
sa(dp2028
g6
F1.192291
sg7
S'924'
p2029
sg9
S'1_noplate.jpg.bin'
p2030
sa(dp2031
g6
F1.1138129999999999
sg7
S'972'
p2032
sg9
S'4.jpg.bin'
p2033
sa(dp2034
g6
F1.0127219999999999
sg7
S'224'
p2035
sg9
S'2_noplate.jpg.bin'
p2036
sa(dp2037
g6
F0.99483900000000003
sg7
S'157'
p2038
sg9
S'5_noplate.jpg.bin'
p2039
sa(dp2040
g6
F0.94517499999999999
sg7
S'562'
p2041
sg9
S'3.jpg.bin'
p2042
sa(dp2043
g6
F0.93410700000000002
sg7
S'55'
p2044
sg9
S'0_noplate.jpg.bin'
p2045
sasg7
S'68'
p2046
sg9
S'6_noplate.jpg.bin'
p2047
sa(dp2048
g3
(lp2049
(dp2050
g6
F10.88306
sg7
S'56'
p2051
sg9
S'3.jpg.bin'
p2052
sa(dp2053
g6
F7.2775670000000003
sg7
S'167'
p2054
sg9
S'1_noplate.jpg.bin'
p2055
sa(dp2056
g6
F7.014227
sg7
S'458'
p2057
sg9
S'4_noplate.jpg.bin'
p2058
sa(dp2059
g6
F5.0783019999999999
sg7
S'306'
p2060
sg9
S'3_noplate.jpg.bin'
p2061
sa(dp2062
g6
F5.0665069999999996
sg7
S'303'
p2063
sg9
S'3.jpg.bin'
p2064
sa(dp2065
g6
F4.9078350000000004
sg7
S'341'
p2066
sg9
S'3_noplate.jpg.bin'
p2067
sa(dp2068
g6
F4.8740009999999998
sg7
S'180'
p2069
sg9
S'5_noplate.jpg.bin'
p2070
sa(dp2071
g6
F4.4880009999999997
sg7
S'638'
p2072
sg9
S'2_noplate.jpg.bin'
p2073
sa(dp2074
g6
F4.0084059999999999
sg7
S'988'
p2075
sg9
S'4.jpg.bin'
p2076
sa(dp2077
g6
F3.9239519999999999
sg7
S'685'
p2078
sg9
S'3_noplate.jpg.bin'
p2079
sa(dp2080
g6
F3.5169160000000002
sg7
S'250'
p2081
sg9
S'4_noplate.jpg.bin'
p2082
sa(dp2083
g6
F3.4921679999999999
sg7
S'393'
p2084
sg9
S'4_noplate.jpg.bin'
p2085
sa(dp2086
g6
F3.281069
sg7
S'360'
p2087
sg9
S'2.jpg.bin'
p2088
sa(dp2089
g6
F3.2308849999999998
sg7
S'466'
p2090
sg9
S'6_noplate.jpg.bin'
p2091
sa(dp2092
g6
F3.229959
sg7
S'866'
p2093
sg9
S'5_noplate.jpg.bin'
p2094
sa(dp2095
g6
F3.1153179999999998
sg7
S'421'
p2096
sg9
S'1.jpg.bin'
p2097
sa(dp2098
g6
F3.090633
sg7
S'366'
p2099
sg9
S'0.jpg.bin'
p2100
sa(dp2101
g6
F3.0363009999999999
sg7
S'718'
p2102
sg9
S'6.jpg.bin'
p2103
sa(dp2104
g6
F2.8665289999999999
sg7
S'280'
p2105
sg9
S'2_noplate.jpg.bin'
p2106
sa(dp2107
g6
F2.7395520000000002
sg7
S'91'
p2108
sg9
S'4_noplate.jpg.bin'
p2109
sasg7
S'56'
p2110
sg9
S'4_noplate.jpg.bin'
p2111
sa(dp2112
g3
(lp2113
(dp2114
g6
F2.3826390000000002
sg7
S'776'
p2115
sg9
S'5.jpg.bin'
p2116
sa(dp2117
g6
F2.3291400000000002
sg7
S'564'
p2118
sg9
S'4.jpg.bin'
p2119
sa(dp2120
g6
F2.0978599999999998
sg7
S'972'
p2121
sg9
S'4.jpg.bin'
p2122
sa(dp2123
g6
F2.0086379999999999
sg7
S'548'
p2124
sg9
S'1.jpg.bin'
p2125
sa(dp2126
g6
F1.6261810000000001
sg7
S'120'
p2127
sg9
S'4.jpg.bin'
p2128
sa(dp2129
g6
F1.5090030000000001
sg7
S'121'
p2130
sg9
S'1_noplate.jpg.bin'
p2131
sa(dp2132
g6
F1.4920230000000001
sg7
S'196'
p2133
sg9
S'0_noplate.jpg.bin'
p2134
sa(dp2135
g6
F1.2090510000000001
sg7
S'803'
p2136
sg9
S'3_noplate.jpg.bin'
p2137
sa(dp2138
g6
F1.203274
sg7
S'249'
p2139
sg9
S'2_noplate.jpg.bin'
p2140
sa(dp2141
g6
F1.1811560000000001
sg7
S'807'
p2142
sg9
S'4.jpg.bin'
p2143
sa(dp2144
g6
F1.168955
sg7
S'386'
p2145
sg9
S'4_noplate.jpg.bin'
p2146
sa(dp2147
g6
F1.0186789999999999
sg7
S'313'
p2148
sg9
S'1_noplate.jpg.bin'
p2149
sa(dp2150
g6
F1.0117510000000001
sg7
S'679'
p2151
sg9
S'6.jpg.bin'
p2152
sa(dp2153
g6
F1.006006
sg7
S'335'
p2154
sg9
S'5_noplate.jpg.bin'
p2155
sa(dp2156
g6
F0.88333300000000003
sg7
S'955'
p2157
sg9
S'1_noplate.jpg.bin'
p2158
sa(dp2159
g6
F0.87170000000000003
sg7
S'888'
p2160
sg9
S'4_noplate.jpg.bin'
p2161
sa(dp2162
g6
F0.84163500000000002
sg7
S'173'
p2163
sg9
S'1_noplate.jpg.bin'
p2164
sa(dp2165
g6
F0.70271099999999997
sg7
S'919'
p2166
sg9
S'0.jpg.bin'
p2167
sa(dp2168
g6
F0.66224899999999998
sg7
S'446'
p2169
sg9
S'0.jpg.bin'
p2170
sa(dp2171
g6
F0.64407499999999995
sg7
S'219'
p2172
sg9
S'3_noplate.jpg.bin'
p2173
sasg7
S'55'
p2174
sg9
S'4.jpg.bin'
p2175
sa(dp2176
g3
(lp2177
(dp2178
g6
F5.0031239999999997
sg7
S'685'
p2179
sg9
S'3_noplate.jpg.bin'
p2180
sa(dp2181
g6
F4.1923919999999999
sg7
S'23'
p2182
sg9
S'5_noplate.jpg.bin'
p2183
sa(dp2184
g6
F3.8689439999999999
sg7
S'349'
p2185
sg9
S'1.jpg.bin'
p2186
sa(dp2187
g6
F3.8228070000000001
sg7
S'831'
p2188
sg9
S'3_noplate.jpg.bin'
p2189
sa(dp2190
g6
F3.5000840000000002
sg7
S'579'
p2191
sg9
S'4_noplate.jpg.bin'
p2192
sa(dp2193
g6
F3.2290740000000002
sg7
S'706'
p2194
sg9
S'1_noplate.jpg.bin'
p2195
sa(dp2196
g6
F2.650312
sg7
S'26'
p2197
sg9
S'6_noplate.jpg.bin'
p2198
sa(dp2199
g6
F2.631907
sg7
S'669'
p2200
sg9
S'1.jpg.bin'
p2201
sa(dp2202
g6
F2.4462809999999999
sg7
S'736'
p2203
sg9
S'0.jpg.bin'
p2204
sa(dp2205
g6
F2.36721
sg7
S'672'
p2206
sg9
S'7.jpg.bin'
p2207
sa(dp2208
g6
F2.328344
sg7
S'466'
p2209
sg9
S'6_noplate.jpg.bin'
p2210
sa(dp2211
g6
F2.3036249999999998
sg7
S'477'
p2212
sg9
S'5.jpg.bin'
p2213
sa(dp2214
g6
F2.2563439999999999
sg7
S'744'
p2215
sg9
S'1.jpg.bin'
p2216
sa(dp2217
g6
F2.2184720000000002
sg7
S'941'
p2218
sg9
S'1.jpg.bin'
p2219
sa(dp2220
g6
F2.2072929999999999
sg7
S'439'
p2221
sg9
S'3_noplate.jpg.bin'
p2222
sa(dp2223
g6
F2.1835800000000001
sg7
S'933'
p2224
sg9
S'6_noplate.jpg.bin'
p2225
sa(dp2226
g6
F2.0737190000000001
sg7
S'703'
p2227
sg9
S'4.jpg.bin'
p2228
sa(dp2229
g6
F2.0167660000000001
sg7
S'136'
p2230
sg9
S'2_noplate.jpg.bin'
p2231
sa(dp2232
g6
F1.7514190000000001
sg7
S'19'
p2233
sg9
S'0_noplate.jpg.bin'
p2234
sa(dp2235
g6
F1.7040900000000001
sg7
S'841'
p2236
sg9
S'1.jpg.bin'
p2237
sasg7
S'40'
p2238
sg9
S'7_noplate.jpg.bin'
p2239
sa(dp2240
g3
(lp2241
(dp2242
g6
F5.8902970000000003
sg7
S'361'
p2243
sg9
S'2_noplate.jpg.bin'
p2244
sa(dp2245
g6
F4.9646109999999997
sg7
S'574'
p2246
sg9
S'4_noplate.jpg.bin'
p2247
sa(dp2248
g6
F4.4818949999999997
sg7
S'80'
p2249
sg9
S'1_noplate.jpg.bin'
p2250
sa(dp2251
g6
F4.2915570000000001
sg7
S'833'
p2252
sg9
S'1.jpg.bin'
p2253
sa(dp2254
g6
F4.105391
sg7
S'150'
p2255
sg9
S'3.jpg.bin'
p2256
sa(dp2257
g6
F4.0074310000000004
sg7
S'34'
p2258
sg9
S'2_noplate.jpg.bin'
p2259
sa(dp2260
g6
F3.9070239999999998
sg7
S'69'
p2261
sg9
S'1_noplate.jpg.bin'
p2262
sa(dp2263
g6
F3.697594
sg7
S'824'
p2264
sg9
S'5.jpg.bin'
p2265
sa(dp2266
g6
F3.5202979999999999
sg7
S'561'
p2267
sg9
S'4_noplate.jpg.bin'
p2268
sa(dp2269
g6
F3.422253
sg7
S'107'
p2270
sg9
S'4.jpg.bin'
p2271
sa(dp2272
g6
F3.3160820000000002
sg7
S'808'
p2273
sg9
S'2_noplate.jpg.bin'
p2274
sa(dp2275
g6
F3.0923349999999998
sg7
S'631'
p2276
sg9
S'9_noplate.jpg.bin'
p2277
sa(dp2278
g6
F2.9502809999999999
sg7
S'748'
p2279
sg9
S'0.jpg.bin'
p2280
sa(dp2281
g6
F2.8222960000000001
sg7
S'277'
p2282
sg9
S'3_noplate.jpg.bin'
p2283
sa(dp2284
g6
F2.7773340000000002
sg7
S'792'
p2285
sg9
S'2_noplate.jpg.bin'
p2286
sa(dp2287
g6
F2.5447519999999999
sg7
S'851'
p2288
sg9
S'6.jpg.bin'
p2289
sa(dp2290
g6
F2.5149499999999998
sg7
S'182'
p2291
sg9
S'4.jpg.bin'
p2292
sa(dp2293
g6
F2.4876119999999999
sg7
S'383'
p2294
sg9
S'5_noplate.jpg.bin'
p2295
sa(dp2296
g6
F2.3772790000000001
sg7
S'921'
p2297
sg9
S'0.jpg.bin'
p2298
sa(dp2299
g6
F2.2192099999999999
sg7
S'939'
p2300
sg9
S'5_noplate.jpg.bin'
p2301
sasg7
S'80'
p2302
sg9
S'2.jpg.bin'
p2303
sa(dp2304
g3
(lp2305
(dp2306
g6
F22.751867000000001
sg7
S'58'
p2307
sg9
S'2.jpg.bin'
p2308
sa(dp2309
g6
F3.814419
sg7
S'516'
p2310
sg9
S'6.jpg.bin'
p2311
sa(dp2312
g6
F3.464798
sg7
S'699'
p2313
sg9
S'2_noplate.jpg.bin'
p2314
sa(dp2315
g6
F2.7081789999999999
sg7
S'708'
p2316
sg9
S'4.jpg.bin'
p2317
sa(dp2318
g6
F2.1932719999999999
sg7
S'441'
p2319
sg9
S'3_noplate.jpg.bin'
p2320
sa(dp2321
g6
F1.9884489999999999
sg7
S'287'
p2322
sg9
S'0.jpg.bin'
p2323
sa(dp2324
g6
F1.9118999999999999
sg7
S'798'
p2325
sg9
S'0_noplate.jpg.bin'
p2326
sa(dp2327
g6
F1.9041859999999999
sg7
S'590'
p2328
sg9
S'0_noplate.jpg.bin'
p2329
sa(dp2330
g6
F1.334335
sg7
S'325'
p2331
sg9
S'0.jpg.bin'
p2332
sa(dp2333
g6
F0.987043
sg7
S'99'
p2334
sg9
S'4_noplate.jpg.bin'
p2335
sa(dp2336
g6
F0.96045100000000005
sg7
S'681'
p2337
sg9
S'2_noplate.jpg.bin'
p2338
sa(dp2339
g6
F0.95294999999999996
sg7
S'207'
p2340
sg9
S'5_noplate.jpg.bin'
p2341
sa(dp2342
g6
F0.95232000000000006
sg7
S'96'
p2343
sg9
S'1.jpg.bin'
p2344
sa(dp2345
g6
F0.86566699999999996
sg7
S'263'
p2346
sg9
S'2_noplate.jpg.bin'
p2347
sa(dp2348
g6
F0.84284199999999998
sg7
S'426'
p2349
sg9
S'1.jpg.bin'
p2350
sa(dp2351
g6
F0.49544100000000002
sg7
S'92'
p2352
sg9
S'5.jpg.bin'
p2353
sa(dp2354
g6
F0.27559099999999997
sg7
S'433'
p2355
sg9
S'2.jpg.bin'
p2356
sa(dp2357
g6
F0.16272500000000001
sg7
S'59'
p2358
sg9
S'3.jpg.bin'
p2359
sa(dp2360
g6
F0.136522
sg7
S'194'
p2361
sg9
S'5.jpg.bin'
p2362
sa(dp2363
g6
F0.053385000000000002
sg7
S'453'
p2364
sg9
S'0.jpg.bin'
p2365
sasg7
S'58'
p2366
sg9
S'2_noplate.jpg.bin'
p2367
sa(dp2368
g3
(lp2369
(dp2370
g6
F5.496645
sg7
S'69'
p2371
sg9
S'1_noplate.jpg.bin'
p2372
sa(dp2373
g6
F4.739954
sg7
S'514'
p2374
sg9
S'9.jpg.bin'
p2375
sa(dp2376
g6
F3.7350140000000001
sg7
S'792'
p2377
sg9
S'2_noplate.jpg.bin'
p2378
sa(dp2379
g6
F3.7321029999999999
sg7
S'939'
p2380
sg9
S'5_noplate.jpg.bin'
p2381
sa(dp2382
g6
F3.709829
sg7
S'815'
p2383
sg9
S'6_noplate.jpg.bin'
p2384
sa(dp2385
g6
F3.6619109999999999
sg7
S'843'
p2386
sg9
S'2_noplate.jpg.bin'
p2387
sa(dp2388
g6
F3.2078660000000001
sg7
S'890'
p2389
sg9
S'1_noplate.jpg.bin'
p2390
sa(dp2391
g6
F3.1651379999999998
sg7
S'22'
p2392
sg9
S'1.jpg.bin'
p2393
sa(dp2394
g6
F3.071215
sg7
S'991'
p2395
sg9
S'4_noplate.jpg.bin'
p2396
sa(dp2397
g6
F2.9117410000000001
sg7
S'925'
p2398
sg9
S'0.jpg.bin'
p2399
sa(dp2400
g6
F2.7948170000000001
sg7
S'253'
p2401
sg9
S'1.jpg.bin'
p2402
sa(dp2403
g6
F2.722845
sg7
S'361'
p2404
sg9
S'2_noplate.jpg.bin'
p2405
sa(dp2406
g6
F2.6470129999999998
sg7
S'358'
p2407
sg9
S'6.jpg.bin'
p2408
sa(dp2409
g6
F2.6223719999999999
sg7
S'199'
p2410
sg9
S'0_noplate.jpg.bin'
p2411
sa(dp2412
g6
F2.3967860000000001
sg7
S'379'
p2413
sg9
S'9_noplate.jpg.bin'
p2414
sa(dp2415
g6
F2.3327429999999998
sg7
S'80'
p2416
sg9
S'1_noplate.jpg.bin'
p2417
sa(dp2418
g6
F2.2621769999999999
sg7
S'479'
p2419
sg9
S'0_noplate.jpg.bin'
p2420
sa(dp2421
g6
F2.201174
sg7
S'326'
p2422
sg9
S'1.jpg.bin'
p2423
sa(dp2424
g6
F2.199427
sg7
S'956'
p2425
sg9
S'0_noplate.jpg.bin'
p2426
sa(dp2427
g6
F2.1686040000000002
sg7
S'65'
p2428
sg9
S'1.jpg.bin'
p2429
sasg7
S'69'
p2430
sg9
S'5.jpg.bin'
p2431
sa(dp2432
g3
(lp2433
(dp2434
g6
F6.6697879999999996
sg7
S'89'
p2435
sg9
S'4.jpg.bin'
p2436
sa(dp2437
g6
F6.0130290000000004
sg7
S'830'
p2438
sg9
S'0.jpg.bin'
p2439
sa(dp2440
g6
F5.1115490000000001
sg7
S'705'
p2441
sg9
S'1_noplate.jpg.bin'
p2442
sa(dp2443
g6
F3.9360810000000002
sg7
S'341'
p2444
sg9
S'3_noplate.jpg.bin'
p2445
sa(dp2446
g6
F3.7593420000000002
sg7
S'436'
p2447
sg9
S'11_noplate.jpg.bin'
p2448
sa(dp2449
g6
F3.082373
sg7
S'611'
p2450
sg9
S'4_noplate.jpg.bin'
p2451
sa(dp2452
g6
F3.0474109999999999
sg7
S'721'
p2453
sg9
S'6.jpg.bin'
p2454
sa(dp2455
g6
F3.0303040000000001
sg7
S'609'
p2456
sg9
S'1.jpg.bin'
p2457
sa(dp2458
g6
F3.007193
sg7
S'140'
p2459
sg9
S'3.jpg.bin'
p2460
sa(dp2461
g6
F2.9809510000000001
sg7
S'324'
p2462
sg9
S'0.jpg.bin'
p2463
sa(dp2464
g6
F2.9297599999999999
sg7
S'375'
p2465
sg9
S'5.jpg.bin'
p2466
sa(dp2467
g6
F2.5542530000000001
sg7
S'529'
p2468
sg9
S'2.jpg.bin'
p2469
sa(dp2470
g6
F2.4618660000000001
sg7
S'994'
p2471
sg9
S'11_noplate.jpg.bin'
p2472
sa(dp2473
g6
F2.3875829999999998
sg7
S'40'
p2474
sg9
S'0_noplate.jpg.bin'
p2475
sa(dp2476
g6
F2.1716609999999998
sg7
S'491'
p2477
sg9
S'3.jpg.bin'
p2478
sa(dp2479
g6
F2.0660720000000001
sg7
S'794'
p2480
sg9
S'4_noplate.jpg.bin'
p2481
sa(dp2482
g6
F2.0399069999999999
sg7
S'648'
p2483
sg9
S'2.jpg.bin'
p2484
sa(dp2485
g6
F2.0209959999999998
sg7
S'332'
p2486
sg9
S'5_noplate.jpg.bin'
p2487
sa(dp2488
g6
F1.9602200000000001
sg7
S'242'
p2489
sg9
S'0_noplate.jpg.bin'
p2490
sa(dp2491
g6
F1.9547730000000001
sg7
S'195'
p2492
sg9
S'4.jpg.bin'
p2493
sasg7
S'89'
p2494
sg9
S'5_noplate.jpg.bin'
p2495
sa(dp2496
g3
(lp2497
(dp2498
g6
F20.307773999999998
sg7
S'87'
p2499
sg9
S'2.jpg.bin'
p2500
sa(dp2501
g6
F3.2310279999999998
sg7
S'972'
p2502
sg9
S'4.jpg.bin'
p2503
sa(dp2504
g6
F2.651831
sg7
S'649'
p2505
sg9
S'0_noplate.jpg.bin'
p2506
sa(dp2507
g6
F2.6035819999999998
sg7
S'208'
p2508
sg9
S'3_noplate.jpg.bin'
p2509
sa(dp2510
g6
F2.4738389999999999
sg7
S'157'
p2511
sg9
S'5_noplate.jpg.bin'
p2512
sa(dp2513
g6
F2.3681869999999998
sg7
S'956'
p2514
sg9
S'0_noplate.jpg.bin'
p2515
sa(dp2516
g6
F2.207983
sg7
S'782'
p2517
sg9
S'0_noplate.jpg.bin'
p2518
sa(dp2519
g6
F2.164927
sg7
S'808'
p2520
sg9
S'2_noplate.jpg.bin'
p2521
sa(dp2522
g6
F1.959219
sg7
S'924'
p2523
sg9
S'1_noplate.jpg.bin'
p2524
sa(dp2525
g6
F1.5869789999999999
sg7
S'127'
p2526
sg9
S'4_noplate.jpg.bin'
p2527
sa(dp2528
g6
F1.3789370000000001
sg7
S'923'
p2529
sg9
S'4_noplate.jpg.bin'
p2530
sa(dp2531
g6
F1.3414729999999999
sg7
S'150'
p2532
sg9
S'3.jpg.bin'
p2533
sa(dp2534
g6
F1.2898350000000001
sg7
S'43'
p2535
sg9
S'5_noplate.jpg.bin'
p2536
sa(dp2537
g6
F1.2829649999999999
sg7
S'750'
p2538
sg9
S'3.jpg.bin'
p2539
sa(dp2540
g6
F1.267679
sg7
S'29'
p2541
sg9
S'3_noplate.jpg.bin'
p2542
sa(dp2543
g6
F1.2525409999999999
sg7
S'404'
p2544
sg9
S'2.jpg.bin'
p2545
sa(dp2546
g6
F1.2234419999999999
sg7
S'224'
p2547
sg9
S'2_noplate.jpg.bin'
p2548
sa(dp2549
g6
F1.218998
sg7
S'523'
p2550
sg9
S'0_noplate.jpg.bin'
p2551
sa(dp2552
g6
F1.100552
sg7
S'730'
p2553
sg9
S'7_noplate.jpg.bin'
p2554
sa(dp2555
g6
F1.0132829999999999
sg7
S'165'
p2556
sg9
S'4_noplate.jpg.bin'
p2557
sasg7
S'87'
p2558
sg9
S'2_noplate.jpg.bin'
p2559
sa(dp2560
g3
(lp2561
(dp2562
g6
F10.623073
sg7
S'42'
p2563
sg9
S'3_noplate.jpg.bin'
p2564
sa(dp2565
g6
F5.1209660000000001
sg7
S'129'
p2566
sg9
S'2.jpg.bin'
p2567
sa(dp2568
g6
F5.0443740000000004
sg7
S'789'
p2569
sg9
S'5_noplate.jpg.bin'
p2570
sa(dp2571
g6
F4.7062109999999997
sg7
S'509'
p2572
sg9
S'8.jpg.bin'
p2573
sa(dp2574
g6
F4.5099859999999996
sg7
S'141'
p2575
sg9
S'7_noplate.jpg.bin'
p2576
sa(dp2577
g6
F3.5252129999999999
sg7
S'469'
p2578
sg9
S'4_noplate.jpg.bin'
p2579
sa(dp2580
g6
F3.3262520000000002
sg7
S'577'
p2581
sg9
S'2.jpg.bin'
p2582
sa(dp2583
g6
F3.2259730000000002
sg7
S'746'
p2584
sg9
S'5.jpg.bin'
p2585
sa(dp2586
g6
F3.1396869999999999
sg7
S'73'
p2587
sg9
S'1.jpg.bin'
p2588
sa(dp2589
g6
F2.8785479999999999
sg7
S'799'
p2590
sg9
S'5.jpg.bin'
p2591
sa(dp2592
g6
F2.8718970000000001
sg7
S'518'
p2593
sg9
S'4.jpg.bin'
p2594
sa(dp2595
g6
F2.8575650000000001
sg7
S'670'
p2596
sg9
S'15_noplate.jpg.bin'
p2597
sa(dp2598
g6
F2.6326580000000002
sg7
S'251'
p2599
sg9
S'3.jpg.bin'
p2600
sa(dp2601
g6
F2.552473
sg7
S'930'
p2602
sg9
S'7_noplate.jpg.bin'
p2603
sa(dp2604
g6
F2.4522550000000001
sg7
S'315'
p2605
sg9
S'6_noplate.jpg.bin'
p2606
sa(dp2607
g6
F2.3898619999999999
sg7
S'903'
p2608
sg9
S'4.jpg.bin'
p2609
sa(dp2610
g6
F2.2142770000000001
sg7
S'279'
p2611
sg9
S'5.jpg.bin'
p2612
sa(dp2613
g6
F1.930876
sg7
S'10'
p2614
sg9
S'1.jpg.bin'
p2615
sa(dp2616
g6
F1.88167
sg7
S'757'
p2617
sg9
S'4_noplate.jpg.bin'
p2618
sa(dp2619
g6
F1.7156720000000001
sg7
S'400'
p2620
sg9
S'6.jpg.bin'
p2621
sasg7
S'42'
p2622
sg9
S'1.jpg.bin'
p2623
sa(dp2624
g3
(lp2625
(dp2626
g6
F9.9272559999999999
sg7
S'8'
sg9
S'4.jpg.bin'
p2627
sa(dp2628
g6
F7.0099390000000001
sg7
S'143'
p2629
sg9
S'4.jpg.bin'
p2630
sa(dp2631
g6
F6.6068129999999998
sg7
S'628'
p2632
sg9
S'2.jpg.bin'
p2633
sa(dp2634
g6
F5.1543010000000002
sg7
S'36'
p2635
sg9
S'7.jpg.bin'
p2636
sa(dp2637
g6
F4.0776440000000003
sg7
S'988'
p2638
sg9
S'4.jpg.bin'
p2639
sa(dp2640
g6
F4.0576780000000001
sg7
S'180'
p2641
sg9
S'5_noplate.jpg.bin'
p2642
sa(dp2643
g6
F4.0477290000000004
sg7
S'911'
p2644
sg9
S'8.jpg.bin'
p2645
sa(dp2646
g6
F3.8512400000000002
sg7
S'289'
p2647
sg9
S'3.jpg.bin'
p2648
sa(dp2649
g6
F3.1953260000000001
sg7
S'416'
p2650
sg9
S'3_noplate.jpg.bin'
p2651
sa(dp2652
g6
F2.3852120000000001
sg7
S'187'
p2653
sg9
S'0_noplate.jpg.bin'
p2654
sa(dp2655
g6
F2.2777820000000002
sg7
S'83'
p2656
sg9
S'3_noplate.jpg.bin'
p2657
sa(dp2658
g6
F1.978127
sg7
S'403'
p2659
sg9
S'2.jpg.bin'
p2660
sa(dp2661
g6
F1.848854
sg7
S'857'
p2662
sg9
S'3.jpg.bin'
p2663
sa(dp2664
g6
F1.7857909999999999
sg7
S'347'
p2665
sg9
S'11_noplate.jpg.bin'
p2666
sa(dp2667
g6
F1.706879
sg7
S'454'
p2668
sg9
S'1_noplate.jpg.bin'
p2669
sa(dp2670
g6
F1.7057150000000001
sg7
S'389'
p2671
sg9
S'5_noplate.jpg.bin'
p2672
sa(dp2673
g6
F1.4435100000000001
sg7
S'893'
p2674
sg9
S'3_noplate.jpg.bin'
p2675
sa(dp2676
g6
F1.3536509999999999
sg7
S'333'
p2677
sg9
S'0.jpg.bin'
p2678
sa(dp2679
g6
F1.274532
sg7
S'223'
p2680
sg9
S'5_noplate.jpg.bin'
p2681
sa(dp2682
g6
F1.201937
sg7
S'340'
p2683
sg9
S'3_noplate.jpg.bin'
p2684
sasg7
S'8'
sg9
S'3.jpg.bin'
p2685
sa(dp2686
g3
(lp2687
(dp2688
g6
F4.2706429999999997
sg7
S'99'
p2689
sg9
S'4_noplate.jpg.bin'
p2690
sa(dp2691
g6
F3.7948550000000001
sg7
S'325'
p2692
sg9
S'0.jpg.bin'
p2693
sa(dp2694
g6
F3.4604029999999999
sg7
S'503'
p2695
sg9
S'5_noplate.jpg.bin'
p2696
sa(dp2697
g6
F2.650255
sg7
S'798'
p2698
sg9
S'0_noplate.jpg.bin'
p2699
sa(dp2700
g6
F2.6179100000000002
sg7
S'92'
p2701
sg9
S'5.jpg.bin'
p2702
sa(dp2703
g6
F2.3608319999999998
sg7
S'897'
p2704
sg9
S'3_noplate.jpg.bin'
p2705
sa(dp2706
g6
F2.325129
sg7
S'352'
p2707
sg9
S'3.jpg.bin'
p2708
sa(dp2709
g6
F2.213444
sg7
S'32'
p2710
sg9
S'2.jpg.bin'
p2711
sa(dp2712
g6
F2.167179
sg7
S'453'
p2713
sg9
S'0.jpg.bin'
p2714
sa(dp2715
g6
F2.001614
sg7
S'538'
p2716
sg9
S'3.jpg.bin'
p2717
sa(dp2718
g6
F1.9351039999999999
sg7
S'312'
p2719
sg9
S'6_noplate.jpg.bin'
p2720
sa(dp2721
g6
F1.8529720000000001
sg7
S'993'
p2722
sg9
S'8_noplate.jpg.bin'
p2723
sa(dp2724
g6
F1.798832
sg7
S'810'
p2725
sg9
S'4_noplate.jpg.bin'
p2726
sa(dp2727
g6
F1.5424690000000001
sg7
S'594'
p2728
sg9
S'1_noplate.jpg.bin'
p2729
sa(dp2730
g6
F1.4357599999999999
sg7
S'264'
p2731
sg9
S'0.jpg.bin'
p2732
sa(dp2733
g6
F1.4107419999999999
sg7
S'118'
p2734
sg9
S'5_noplate.jpg.bin'
p2735
sa(dp2736
g6
F1.2457069999999999
sg7
S'233'
p2737
sg9
S'2.jpg.bin'
p2738
sa(dp2739
g6
F1.0674189999999999
sg7
S'966'
p2740
sg9
S'2_noplate.jpg.bin'
p2741
sa(dp2742
g6
F1.0387230000000001
sg7
S'128'
p2743
sg9
S'1_noplate.jpg.bin'
p2744
sa(dp2745
g6
F0.99488100000000002
sg7
S'275'
p2746
sg9
S'0.jpg.bin'
p2747
sasg7
S'99'
p2748
sg9
S'9_noplate.jpg.bin'
p2749
sa(dp2750
g3
(lp2751
(dp2752
g6
F14.539370999999999
sg7
S'19'
p2753
sg9
S'0_noplate.jpg.bin'
p2754
sa(dp2755
g6
F3.5939199999999998
sg7
S'169'
p2756
sg9
S'5_noplate.jpg.bin'
p2757
sa(dp2758
g6
F3.1433330000000002
sg7
S'183'
p2759
sg9
S'4_noplate.jpg.bin'
p2760
sa(dp2761
g6
F3.1164740000000002
sg7
S'672'
p2762
sg9
S'7.jpg.bin'
p2763
sa(dp2764
g6
F3.0798049999999999
sg7
S'406'
p2765
sg9
S'0_noplate.jpg.bin'
p2766
sa(dp2767
g6
F2.8025359999999999
sg7
S'225'
p2768
sg9
S'3.jpg.bin'
p2769
sa(dp2770
g6
F2.6827429999999999
sg7
S'491'
p2771
sg9
S'3.jpg.bin'
p2772
sa(dp2773
g6
F2.6186500000000001
sg7
S'457'
p2774
sg9
S'3.jpg.bin'
p2775
sa(dp2776
g6
F2.5986099999999999
sg7
S'475'
p2777
sg9
S'1.jpg.bin'
p2778
sa(dp2779
g6
F2.33263
sg7
S'410'
p2780
sg9
S'3_noplate.jpg.bin'
p2781
sa(dp2782
g6
F2.2698749999999999
sg7
S'685'
p2783
sg9
S'3_noplate.jpg.bin'
p2784
sa(dp2785
g6
F2.25495
sg7
S'440'
p2786
sg9
S'4.jpg.bin'
p2787
sa(dp2788
g6
F2.0389020000000002
sg7
S'446'
p2789
sg9
S'0.jpg.bin'
p2790
sa(dp2791
g6
F1.80687
sg7
S'659'
p2792
sg9
S'1.jpg.bin'
p2793
sa(dp2794
g6
F1.7189220000000001
sg7
S'131'
p2795
sg9
S'4_noplate.jpg.bin'
p2796
sa(dp2797
g6
F1.529285
sg7
S'698'
p2798
sg9
S'2_noplate.jpg.bin'
p2799
sa(dp2800
g6
F1.501066
sg7
S'136'
p2801
sg9
S'2_noplate.jpg.bin'
p2802
sa(dp2803
g6
F1.5000249999999999
sg7
S'888'
p2804
sg9
S'4_noplate.jpg.bin'
p2805
sa(dp2806
g6
F1.4660850000000001
sg7
S'579'
p2807
sg9
S'4_noplate.jpg.bin'
p2808
sa(dp2809
g6
F1.3826830000000001
sg7
S'726'
p2810
sg9
S'0_noplate.jpg.bin'
p2811
sasg7
S'19'
p2812
sg9
S'2.jpg.bin'
p2813
sa(dp2814
g3
(lp2815
(dp2816
g6
F9.5120280000000008
sg7
S'50'
p2817
sg9
S'7_noplate.jpg.bin'
p2818
sa(dp2819
g6
F4.3026049999999998
sg7
S'696'
p2820
sg9
S'1_noplate.jpg.bin'
p2821
sa(dp2822
g6
F3.891886
sg7
S'365'
p2823
sg9
S'2.jpg.bin'
p2824
sa(dp2825
g6
F2.76519
sg7
S'115'
p2826
sg9
S'1.jpg.bin'
p2827
sa(dp2828
g6
F2.3252139999999999
sg7
S'768'
p2829
sg9
S'4_noplate.jpg.bin'
p2830
sa(dp2831
g6
F2.159538
sg7
S'464'
p2832
sg9
S'3.jpg.bin'
p2833
sa(dp2834
g6
F1.612206
sg7
S'147'
p2835
sg9
S'0_noplate.jpg.bin'
p2836
sa(dp2837
g6
F1.5691200000000001
sg7
S'407'
p2838
sg9
S'4_noplate.jpg.bin'
p2839
sa(dp2840
g6
F1.5469059999999999
sg7
S'94'
p2841
sg9
S'4_noplate.jpg.bin'
p2842
sa(dp2843
g6
F1.500113
sg7
S'700'
p2844
sg9
S'3_noplate.jpg.bin'
p2845
sa(dp2846
g6
F1.4975400000000001
sg7
S'270'
p2847
sg9
S'4_noplate.jpg.bin'
p2848
sa(dp2849
g6
F1.447659
sg7
S'130'
p2850
sg9
S'4_noplate.jpg.bin'
p2851
sa(dp2852
g6
F1.326298
sg7
S'872'
p2853
sg9
S'8.jpg.bin'
p2854
sa(dp2855
g6
F1.311596
sg7
S'638'
p2856
sg9
S'2_noplate.jpg.bin'
p2857
sa(dp2858
g6
F1.2663819999999999
sg7
S'634'
p2859
sg9
S'1_noplate.jpg.bin'
p2860
sa(dp2861
g6
F1.0233019999999999
sg7
S'446'
p2862
sg9
S'0.jpg.bin'
p2863
sa(dp2864
g6
F0.93889400000000001
sg7
S'162'
p2865
sg9
S'3_noplate.jpg.bin'
p2866
sa(dp2867
g6
F0.91678000000000004
sg7
S'841'
p2868
sg9
S'1.jpg.bin'
p2869
sa(dp2870
g6
F0.86137600000000003
sg7
S'665'
p2871
sg9
S'1_noplate.jpg.bin'
p2872
sa(dp2873
g6
F0.75869799999999998
sg7
S'96'
p2874
sg9
S'1.jpg.bin'
p2875
sasg7
S'50'
p2876
sg9
S'3.jpg.bin'
p2877
sa(dp2878
g3
(lp2879
(dp2880
g6
F5.2976510000000001
sg7
S'663'
p2881
sg9
S'2.jpg.bin'
p2882
sa(dp2883
g6
F4.6409380000000002
sg7
S'78'
p2884
sg9
S'4_noplate.jpg.bin'
p2885
sa(dp2886
g6
F4.5659809999999998
sg7
S'511'
p2887
sg9
S'0_noplate.jpg.bin'
p2888
sa(dp2889
g6
F3.9495849999999999
sg7
S'225'
p2890
sg9
S'3.jpg.bin'
p2891
sa(dp2892
g6
F3.6947359999999998
sg7
S'410'
p2893
sg9
S'3_noplate.jpg.bin'
p2894
sa(dp2895
g6
F3.628044
sg7
S'706'
p2896
sg9
S'1_noplate.jpg.bin'
p2897
sa(dp2898
g6
F3.5656050000000001
sg7
S'495'
p2899
sg9
S'4.jpg.bin'
p2900
sa(dp2901
g6
F3.5186769999999998
sg7
S'612'
p2902
sg9
S'0_noplate.jpg.bin'
p2903
sa(dp2904
g6
F3.483225
sg7
S'527'
p2905
sg9
S'4_noplate.jpg.bin'
p2906
sa(dp2907
g6
F3.4103720000000002
sg7
S'841'
p2908
sg9
S'1.jpg.bin'
p2909
sa(dp2910
g6
F3.3753220000000002
sg7
S'26'
p2911
sg9
S'6_noplate.jpg.bin'
p2912
sa(dp2913
g6
F3.342009
sg7
S'176'
p2914
sg9
S'3.jpg.bin'
p2915
sa(dp2916
g6
F3.1461999999999999
sg7
S'16'
p2917
sg9
S'3.jpg.bin'
p2918
sa(dp2919
g6
F3.1185610000000001
sg7
S'183'
p2920
sg9
S'4_noplate.jpg.bin'
p2921
sa(dp2922
g6
F2.9718270000000002
sg7
S'27'
p2923
sg9
S'2.jpg.bin'
p2924
sa(dp2925
g6
F2.9465520000000001
sg7
S'520'
p2926
sg9
S'4.jpg.bin'
p2927
sa(dp2928
g6
F2.812214
sg7
S'475'
p2929
sg9
S'1.jpg.bin'
p2930
sa(dp2931
g6
F2.7964310000000001
sg7
S'877'
p2932
sg9
S'0.jpg.bin'
p2933
sa(dp2934
g6
F2.7552569999999998
sg7
S'826'
p2935
sg9
S'4.jpg.bin'
p2936
sa(dp2937
g6
F2.6275080000000002
sg7
S'439'
p2938
sg9
S'3_noplate.jpg.bin'
p2939
sasg7
S'78'
p2940
sg9
S'7.jpg.bin'
p2941
sa(dp2942
g3
(lp2943
(dp2944
g6
F4.0575999999999999
sg7
S'688'
p2945
sg9
S'6.jpg.bin'
p2946
sa(dp2947
g6
F3.8841480000000002
sg7
S'172'
p2948
sg9
S'18.jpg.bin'
p2949
sa(dp2950
g6
F3.7866590000000002
sg7
S'92'
p2951
sg9
S'5.jpg.bin'
p2952
sa(dp2953
g6
F3.5813959999999998
sg7
S'798'
p2954
sg9
S'0_noplate.jpg.bin'
p2955
sa(dp2956
g6
F3.5554619999999999
sg7
S'708'
p2957
sg9
S'4.jpg.bin'
p2958
sa(dp2959
g6
F3.3807700000000001
sg7
S'325'
p2960
sg9
S'0.jpg.bin'
p2961
sa(dp2962
g6
F2.799137
sg7
S'413'
p2963
sg9
S'8_noplate.jpg.bin'
p2964
sa(dp2965
g6
F2.6150259999999999
sg7
S'352'
p2966
sg9
S'3.jpg.bin'
p2967
sa(dp2968
g6
F2.403206
sg7
S'995'
p2969
sg9
S'4.jpg.bin'
p2970
sa(dp2971
g6
F2.2574559999999999
sg7
S'118'
p2972
sg9
S'5_noplate.jpg.bin'
p2973
sa(dp2974
g6
F2.240891
sg7
S'154'
p2975
sg9
S'3.jpg.bin'
p2976
sa(dp2977
g6
F2.2117939999999998
sg7
S'471'
p2978
sg9
S'1.jpg.bin'
p2979
sa(dp2980
g6
F2.15564
sg7
S'722'
p2981
sg9
S'7.jpg.bin'
p2982
sa(dp2983
g6
F1.845901
sg7
S'859'
p2984
sg9
S'12.jpg.bin'
p2985
sa(dp2986
g6
F1.8204400000000001
sg7
S'731'
p2987
sg9
S'0.jpg.bin'
p2988
sa(dp2989
g6
F1.8167990000000001
sg7
S'423'
p2990
sg9
S'6.jpg.bin'
p2991
sa(dp2992
g6
F1.6742710000000001
sg7
S'580'
p2993
sg9
S'2.jpg.bin'
p2994
sa(dp2995
g6
F1.6294040000000001
sg7
S'483'
p2996
sg9
S'1_noplate.jpg.bin'
p2997
sa(dp2998
g6
F1.4927269999999999
sg7
S'53'
p2999
sg9
S'4.jpg.bin'
p3000
sa(dp3001
g6
F1.400892
sg7
S'550'
p3002
sg9
S'0.jpg.bin'
p3003
sasg7
S'5'
sg9
S'7.jpg.bin'
p3004
sa(dp3005
g3
(lp3006
(dp3007
g6
F8.0854719999999993
sg7
S'63'
p3008
sg9
S'4.jpg.bin'
p3009
sa(dp3010
g6
F5.078557
sg7
S'655'
p3011
sg9
S'0_noplate.jpg.bin'
p3012
sa(dp3013
g6
F4.6937709999999999
sg7
S'996'
p3014
sg9
S'4_noplate.jpg.bin'
p3015
sa(dp3016
g6
F4.267957
sg7
S'238'
p3017
sg9
S'1_noplate.jpg.bin'
p3018
sa(dp3019
g6
F4.26675
sg7
S'582'
p3020
sg9
S'2_noplate.jpg.bin'
p3021
sa(dp3022
g6
F3.5405389999999999
sg7
S'113'
p3023
sg9
S'11.jpg.bin'
p3024
sa(dp3025
g6
F3.4855209999999999
sg7
S'291'
p3026
sg9
S'7_noplate.jpg.bin'
p3027
sa(dp3028
g6
F3.4849869999999998
sg7
S'358'
p3029
sg9
S'6.jpg.bin'
p3030
sa(dp3031
g6
F3.2943570000000002
sg7
S'514'
p3032
sg9
S'9.jpg.bin'
p3033
sa(dp3034
g6
F3.0473059999999998
sg7
S'479'
p3035
sg9
S'0_noplate.jpg.bin'
p3036
sa(dp3037
g6
F2.9849450000000002
sg7
S'574'
p3038
sg9
S'4_noplate.jpg.bin'
p3039
sa(dp3040
g6
F2.8160449999999999
sg7
S'647'
p3041
sg9
S'2.jpg.bin'
p3042
sa(dp3043
g6
F2.8097210000000001
sg7
S'81'
p3044
sg9
S'1.jpg.bin'
p3045
sa(dp3046
g6
F2.6509209999999999
sg7
S'802'
p3047
sg9
S'0.jpg.bin'
p3048
sa(dp3049
g6
F2.560854
sg7
S'679'
p3050
sg9
S'6.jpg.bin'
p3051
sa(dp3052
g6
F2.5492020000000002
sg7
S'792'
p3053
sg9
S'2_noplate.jpg.bin'
p3054
sa(dp3055
g6
F2.419079
sg7
S'991'
p3056
sg9
S'4_noplate.jpg.bin'
p3057
sa(dp3058
g6
F2.3640859999999999
sg7
S'587'
p3059
sg9
S'3_noplate.jpg.bin'
p3060
sa(dp3061
g6
F2.2472530000000002
sg7
S'295'
p3062
sg9
S'0_noplate.jpg.bin'
p3063
sa(dp3064
g6
F2.2368679999999999
sg7
S'326'
p3065
sg9
S'1.jpg.bin'
p3066
sasg7
S'63'
p3067
sg9
S'1_noplate.jpg.bin'
p3068
sa(dp3069
g3
(lp3070
(dp3071
g6
F25.721979000000001
sg7
S'27'
p3072
sg9
S'2.jpg.bin'
p3073
sa(dp3074
g6
F4.8289169999999997
sg7
S'446'
p3075
sg9
S'0.jpg.bin'
p3076
sa(dp3077
g6
F4.0448089999999999
sg7
S'685'
p3078
sg9
S'3_noplate.jpg.bin'
p3079
sa(dp3080
g6
F3.8984740000000002
sg7
S'952'
p3081
sg9
S'3.jpg.bin'
p3082
sa(dp3083
g6
F3.8966270000000001
sg7
S'312'
p3084
sg9
S'6_noplate.jpg.bin'
p3085
sa(dp3086
g6
F3.5550540000000002
sg7
S'696'
p3087
sg9
S'1_noplate.jpg.bin'
p3088
sa(dp3089
g6
F3.3739409999999999
sg7
S'434'
p3090
sg9
S'1.jpg.bin'
p3091
sa(dp3092
g6
F3.2360319999999998
sg7
S'749'
p3093
sg9
S'5.jpg.bin'
p3094
sa(dp3095
g6
F2.952852
sg7
S'954'
p3096
sg9
S'6_noplate.jpg.bin'
p3097
sa(dp3098
g6
F2.82544
sg7
S'60'
p3099
sg9
S'3.jpg.bin'
p3100
sa(dp3101
g6
F2.7363240000000002
sg7
S'870'
p3102
sg9
S'2_noplate.jpg.bin'
p3103
sa(dp3104
g6
F2.7279209999999998
sg7
S'703'
p3105
sg9
S'4.jpg.bin'
p3106
sa(dp3107
g6
F2.658363
sg7
S'115'
p3108
sg9
S'1.jpg.bin'
p3109
sa(dp3110
g6
F2.5873759999999999
sg7
S'811'
p3111
sg9
S'6.jpg.bin'
p3112
sa(dp3113
g6
F2.5646149999999999
sg7
S'841'
p3114
sg9
S'1.jpg.bin'
p3115
sa(dp3116
g6
F2.402822
sg7
S'634'
p3117
sg9
S'1_noplate.jpg.bin'
p3118
sa(dp3119
g6
F2.2172149999999999
sg7
S'831'
p3120
sg9
S'3_noplate.jpg.bin'
p3121
sa(dp3122
g6
F2.203077
sg7
S'409'
p3123
sg9
S'3.jpg.bin'
p3124
sa(dp3125
g6
F2.1803759999999999
sg7
S'673'
p3126
sg9
S'1.jpg.bin'
p3127
sa(dp3128
g6
F2.099596
sg7
S'779'
p3129
sg9
S'4_noplate.jpg.bin'
p3130
sasg7
S'27'
p3131
sg9
S'2_noplate.jpg.bin'
p3132
sa(dp3133
g3
(lp3134
(dp3135
g6
F7.2685240000000002
sg7
S'852'
p3136
sg9
S'2.jpg.bin'
p3137
sa(dp3138
g6
F6.7272829999999999
sg7
S'912'
p3139
sg9
S'5_noplate.jpg.bin'
p3140
sa(dp3141
g6
F5.3967080000000003
sg7
S'533'
p3142
sg9
S'3.jpg.bin'
p3143
sa(dp3144
g6
F4.0993579999999996
sg7
S'810'
p3145
sg9
S'4_noplate.jpg.bin'
p3146
sa(dp3147
g6
F4.0414159999999999
sg7
S'592'
p3148
sg9
S'3.jpg.bin'
p3149
sa(dp3150
g6
F3.7463869999999999
sg7
S'386'
p3151
sg9
S'4_noplate.jpg.bin'
p3152
sa(dp3153
g6
F3.554014
sg7
S'498'
p3154
sg9
S'8_noplate.jpg.bin'
p3155
sa(dp3156
g6
F3.3652419999999998
sg7
S'41'
p3157
sg9
S'0_noplate.jpg.bin'
p3158
sa(dp3159
g6
F3.3254450000000002
sg7
S'538'
p3160
sg9
S'3.jpg.bin'
p3161
sa(dp3162
g6
F3.0583589999999998
sg7
S'723'
p3163
sg9
S'5.jpg.bin'
p3164
sa(dp3165
g6
F3.0259239999999998
sg7
S'211'
p3166
sg9
S'10.jpg.bin'
p3167
sa(dp3168
g6
F2.9897019999999999
sg7
S'738'
p3169
sg9
S'3.jpg.bin'
p3170
sa(dp3171
g6
F2.7835619999999999
sg7
S'485'
p3172
sg9
S'3.jpg.bin'
p3173
sa(dp3174
g6
F2.5963189999999998
sg7
S'919'
p3175
sg9
S'0.jpg.bin'
p3176
sa(dp3177
g6
F2.1393179999999998
sg7
S'177'
p3178
sg9
S'2_noplate.jpg.bin'
p3179
sa(dp3180
g6
F1.7976669999999999
sg7
S'112'
p3181
sg9
S'3_noplate.jpg.bin'
p3182
sa(dp3183
g6
F1.679962
sg7
S'964'
p3184
sg9
S'0.jpg.bin'
p3185
sa(dp3186
g6
F1.1597420000000001
sg7
S'371'
p3187
sg9
S'3.jpg.bin'
p3188
sa(dp3189
g6
F1.1268229999999999
sg7
S'993'
p3190
sg9
S'8_noplate.jpg.bin'
p3191
sa(dp3192
g6
F1.1004659999999999
sg7
S'844'
p3193
sg9
S'0_noplate.jpg.bin'
p3194
sasg7
S'41'
p3195
sg9
S'3.jpg.bin'
p3196
sa(dp3197
g3
(lp3198
(dp3199
g6
F5.5485379999999997
sg7
S'478'
p3200
sg9
S'0_noplate.jpg.bin'
p3201
sa(dp3202
g6
F5.1791970000000003
sg7
S'961'
p3203
sg9
S'6_noplate.jpg.bin'
p3204
sa(dp3205
g6
F4.6868460000000001
sg7
S'742'
p3206
sg9
S'2.jpg.bin'
p3207
sa(dp3208
g6
F4.6010070000000001
sg7
S'470'
p3209
sg9
S'2_noplate.jpg.bin'
p3210
sa(dp3211
g6
F4.2799589999999998
sg7
S'854'
p3212
sg9
S'4_noplate.jpg.bin'
p3213
sa(dp3214
g6
F4.1836359999999999
sg7
S'497'
p3215
sg9
S'0_noplate.jpg.bin'
p3216
sa(dp3217
g6
F4.1041999999999996
sg7
S'870'
p3218
sg9
S'2_noplate.jpg.bin'
p3219
sa(dp3220
g6
F4.0807019999999996
sg7
S'62'
p3221
sg9
S'3_noplate.jpg.bin'
p3222
sa(dp3223
g6
F4.0611969999999999
sg7
S'929'
p3224
sg9
S'5.jpg.bin'
p3225
sa(dp3226
g6
F4.0277820000000002
sg7
S'27'
p3227
sg9
S'2.jpg.bin'
p3228
sa(dp3229
g6
F4.0223100000000001
sg7
S'344'
p3230
sg9
S'0.jpg.bin'
p3231
sa(dp3232
g6
F3.933325
sg7
S'102'
p3233
sg9
S'1.jpg.bin'
p3234
sa(dp3235
g6
F3.828964
sg7
S'950'
p3236
sg9
S'3_noplate.jpg.bin'
p3237
sa(dp3238
g6
F3.8031999999999999
sg7
S'248'
p3239
sg9
S'0.jpg.bin'
p3240
sa(dp3241
g6
F3.7470400000000001
sg7
S'178'
p3242
sg9
S'7_noplate.jpg.bin'
p3243
sa(dp3244
g6
F3.7257229999999999
sg7
S'569'
p3245
sg9
S'4.jpg.bin'
p3246
sa(dp3247
g6
F3.6864849999999998
sg7
S'235'
p3248
sg9
S'4.jpg.bin'
p3249
sa(dp3250
g6
F3.5451429999999999
sg7
S'320'
p3251
sg9
S'5.jpg.bin'
p3252
sa(dp3253
g6
F3.4492240000000001
sg7
S'715'
p3254
sg9
S'5_noplate.jpg.bin'
p3255
sa(dp3256
g6
F3.3906960000000002
sg7
S'953'
p3257
sg9
S'2_noplate.jpg.bin'
p3258
sasg7
S'39'
p3259
sg9
S'2.jpg.bin'
p3260
sa(dp3261
g3
(lp3262
(dp3263
g6
F5.0621530000000003
sg7
S'52'
p3264
sg9
S'0_noplate.jpg.bin'
p3265
sa(dp3266
g6
F4.0076689999999999
sg7
S'59'
p3267
sg9
S'3.jpg.bin'
p3268
sa(dp3269
g6
F3.8513259999999998
sg7
S'897'
p3270
sg9
S'3_noplate.jpg.bin'
p3271
sa(dp3272
g6
F3.772993
sg7
S'643'
p3273
sg9
S'9.jpg.bin'
p3274
sa(dp3275
g6
F2.619402
sg7
S'859'
p3276
sg9
S'12.jpg.bin'
p3277
sa(dp3278
g6
F2.4223590000000002
sg7
S'191'
p3279
sg9
S'5_noplate.jpg.bin'
p3280
sa(dp3281
g6
F2.180723
sg7
S'749'
p3282
sg9
S'5.jpg.bin'
p3283
sa(dp3284
g6
F2.0593300000000001
sg7
S'550'
p3285
sg9
S'0.jpg.bin'
p3286
sa(dp3287
g6
F1.771809
sg7
S'838'
p3288
sg9
S'4.jpg.bin'
p3289
sa(dp3290
g6
F1.7690600000000001
sg7
S'264'
p3291
sg9
S'0.jpg.bin'
p3292
sa(dp3293
g6
F1.4927729999999999
sg7
S'423'
p3294
sg9
S'6.jpg.bin'
p3295
sa(dp3296
g6
F1.491995
sg7
S'255'
p3297
sg9
S'1_noplate.jpg.bin'
p3298
sa(dp3299
g6
F1.426758
sg7
S'700'
p3300
sg9
S'3_noplate.jpg.bin'
p3301
sa(dp3302
g6
F1.3317049999999999
sg7
S'865'
p3303
sg9
S'0.jpg.bin'
p3304
sa(dp3305
g6
F1.317747
sg7
S'327'
p3306
sg9
S'6.jpg.bin'
p3307
sa(dp3308
g6
F1.315699
sg7
S'64'
p3309
sg9
S'4.jpg.bin'
p3310
sa(dp3311
g6
F1.202345
sg7
S'28'
p3312
sg9
S'4_noplate.jpg.bin'
p3313
sa(dp3314
g6
F1.1745429999999999
sg7
S'870'
p3315
sg9
S'2_noplate.jpg.bin'
p3316
sa(dp3317
g6
F1.0403770000000001
sg7
S'594'
p3318
sg9
S'1_noplate.jpg.bin'
p3319
sa(dp3320
g6
F1.0389539999999999
sg7
S'540'
p3321
sg9
S'0.jpg.bin'
p3322
sasg7
S'52'
p3323
sg9
S'4_noplate.jpg.bin'
p3324
sa(dp3325
g3
(lp3326
(dp3327
g6
F7.3712920000000004
sg7
S'483'
p3328
sg9
S'1_noplate.jpg.bin'
p3329
sa(dp3330
g6
F6.7386609999999996
sg7
S'96'
p3331
sg9
S'1.jpg.bin'
p3332
sa(dp3333
g6
F6.0829599999999999
sg7
S'109'
p3334
sg9
S'4_noplate.jpg.bin'
p3335
sa(dp3336
g6
F5.892029
sg7
S'17'
p3337
sg9
S'2_noplate.jpg.bin'
p3338
sa(dp3339
g6
F4.3989979999999997
sg7
S'53'
p3340
sg9
S'4.jpg.bin'
p3341
sa(dp3342
g6
F3.8946589999999999
sg7
S'845'
p3343
sg9
S'0_noplate.jpg.bin'
p3344
sa(dp3345
g6
F3.7509649999999999
sg7
S'28'
p3346
sg9
S'4_noplate.jpg.bin'
p3347
sa(dp3348
g6
F3.7280039999999999
sg7
S'798'
p3349
sg9
S'0_noplate.jpg.bin'
p3350
sa(dp3351
g6
F1.6877120000000001
sg7
S'949'
p3352
sg9
S'3_noplate.jpg.bin'
p3353
sa(dp3354
g6
F0.644451
sg7
S'147'
p3355
sg9
S'0_noplate.jpg.bin'
p3356
sa(dp3357
g6
F0.507826
sg7
S'118'
p3358
sg9
S'5_noplate.jpg.bin'
p3359
sa(dp3360
g6
F-0.036811999999999998
sg7
S'13'
p3361
sg9
S'5.jpg.bin'
p3362
sa(dp3363
g6
F-0.046609999999999999
sg7
S'870'
p3364
sg9
S'2_noplate.jpg.bin'
p3365
sa(dp3366
g6
F-0.209923
sg7
S'424'
p3367
sg9
S'3_noplate.jpg.bin'
p3368
sa(dp3369
g6
F-0.55210499999999996
sg7
S'756'
p3370
sg9
S'6.jpg.bin'
p3371
sa(dp3372
g6
F-0.55875799999999998
sg7
S'744'
p3373
sg9
S'1.jpg.bin'
p3374
sa(dp3375
g6
F-0.56011
sg7
S'264'
p3376
sg9
S'0.jpg.bin'
p3377
sa(dp3378
g6
F-0.61009199999999997
sg7
S'413'
p3379
sg9
S'8_noplate.jpg.bin'
p3380
sa(dp3381
g6
F-0.670879
sg7
S'562'
p3382
sg9
S'3.jpg.bin'
p3383
sa(dp3384
g6
F-0.85426500000000005
sg7
S'539'
p3385
sg9
S'3.jpg.bin'
p3386
sasg7
S'96'
p3387
sg9
S'4.jpg.bin'
p3388
sa(dp3389
g3
(lp3390
(dp3391
g6
F10.828989999999999
sg7
S'85'
p3392
sg9
S'0_noplate.jpg.bin'
p3393
sa(dp3394
g6
F3.74024
sg7
S'947'
p3395
sg9
S'3.jpg.bin'
p3396
sa(dp3397
g6
F2.8716620000000002
sg7
S'700'
p3398
sg9
S'3_noplate.jpg.bin'
p3399
sa(dp3400
g6
F2.5544760000000002
sg7
S'810'
p3401
sg9
S'4_noplate.jpg.bin'
p3402
sa(dp3403
g6
F2.5488430000000002
sg7
S'538'
p3404
sg9
S'3.jpg.bin'
p3405
sa(dp3406
g6
F1.9493100000000001
sg7
S'739'
p3407
sg9
S'0.jpg.bin'
p3408
sa(dp3409
g6
F1.8391150000000001
sg7
S'2'
sg9
S'4.jpg.bin'
p3410
sa(dp3411
g6
F1.596975
sg7
S'549'
p3412
sg9
S'0_noplate.jpg.bin'
p3413
sa(dp3414
g6
F1.5366169999999999
sg7
S'934'
p3415
sg9
S'2.jpg.bin'
p3416
sa(dp3417
g6
F1.520683
sg7
S'639'
p3418
sg9
S'3.jpg.bin'
p3419
sa(dp3420
g6
F1.3516349999999999
sg7
S'170'
p3421
sg9
S'1_noplate.jpg.bin'
p3422
sa(dp3423
g6
F1.1622520000000001
sg7
S'275'
p3424
sg9
S'0.jpg.bin'
p3425
sa(dp3426
g6
F1.1549400000000001
sg7
S'403'
p3427
sg9
S'2.jpg.bin'
p3428
sa(dp3429
g6
F0.67017700000000002
sg7
S'741'
p3430
sg9
S'3_noplate.jpg.bin'
p3431
sa(dp3432
g6
F0.60514599999999996
sg7
S'864'
p3433
sg9
S'2.jpg.bin'
p3434
sa(dp3435
g6
F0.54825999999999997
sg7
S'562'
p3436
sg9
S'3.jpg.bin'
p3437
sa(dp3438
g6
F0.53281999999999996
sg7
S'592'
p3439
sg9
S'3.jpg.bin'
p3440
sa(dp3441
g6
F0.48448400000000003
sg7
S'918'
p3442
sg9
S'1_noplate.jpg.bin'
p3443
sa(dp3444
g6
F0.30173699999999998
sg7
S'667'
p3445
sg9
S'0.jpg.bin'
p3446
sa(dp3447
g6
F0.27085300000000001
sg7
S'665'
p3448
sg9
S'1_noplate.jpg.bin'
p3449
sasg7
S'85'
p3450
sg9
S'8_noplate.jpg.bin'
p3451
sa(dp3452
g3
(lp3453
(dp3454
g6
F6.1146560000000001
sg7
S'118'
p3455
sg9
S'5_noplate.jpg.bin'
p3456
sa(dp3457
g6
F5.4563199999999998
sg7
S'92'
p3458
sg9
S'5.jpg.bin'
p3459
sa(dp3460
g6
F4.743233
sg7
S'325'
p3461
sg9
S'0.jpg.bin'
p3462
sa(dp3463
g6
F4.7046809999999999
sg7
S'897'
p3464
sg9
S'3_noplate.jpg.bin'
p3465
sa(dp3466
g6
F4.466755
sg7
S'977'
p3467
sg9
S'0.jpg.bin'
p3468
sa(dp3469
g6
F4.3013690000000002
sg7
S'99'
p3470
sg9
S'4_noplate.jpg.bin'
p3471
sa(dp3472
g6
F4.1843779999999997
sg7
S'708'
p3473
sg9
S'4.jpg.bin'
p3474
sa(dp3475
g6
F3.8100200000000002
sg7
S'352'
p3476
sg9
S'3.jpg.bin'
p3477
sa(dp3478
g6
F3.7988529999999998
sg7
S'993'
p3479
sg9
S'8_noplate.jpg.bin'
p3480
sa(dp3481
g6
F3.5565359999999999
sg7
S'861'
p3482
sg9
S'8.jpg.bin'
p3483
sa(dp3484
g6
F3.3279209999999999
sg7
S'798'
p3485
sg9
S'0_noplate.jpg.bin'
p3486
sa(dp3487
g6
F3.130096
sg7
S'192'
p3488
sg9
S'1.jpg.bin'
p3489
sa(dp3490
g6
F2.6976300000000002
sg7
S'59'
p3491
sg9
S'3.jpg.bin'
p3492
sa(dp3493
g6
F2.6529639999999999
sg7
S'503'
p3494
sg9
S'5_noplate.jpg.bin'
p3495
sa(dp3496
g6
F2.5979209999999999
sg7
S'111'
p3497
sg9
S'2_noplate.jpg.bin'
p3498
sa(dp3499
g6
F2.5935920000000001
sg7
S'432'
p3500
sg9
S'4_noplate.jpg.bin'
p3501
sa(dp3502
g6
F2.539593
sg7
S'722'
p3503
sg9
S'7.jpg.bin'
p3504
sa(dp3505
g6
F2.4634800000000001
sg7
S'426'
p3506
sg9
S'1.jpg.bin'
p3507
sa(dp3508
g6
F2.449808
sg7
S'422'
p3509
sg9
S'2_noplate.jpg.bin'
p3510
sa(dp3511
g6
F2.2094100000000001
sg7
S'70'
p3512
sg9
S'24_noplate.jpg.bin'
p3513
sasg7
S'92'
p3514
sg9
S'1_noplate.jpg.bin'
p3515
sa(dp3516
g3
(lp3517
(dp3518
g6
F7.6616920000000004
sg7
S'74'
p3519
sg9
S'4.jpg.bin'
p3520
sa(dp3521
g6
F6.0807500000000001
sg7
S'777'
p3522
sg9
S'0_noplate.jpg.bin'
p3523
sa(dp3524
g6
F5.5991059999999999
sg7
S'84'
p3525
sg9
S'3.jpg.bin'
p3526
sa(dp3527
g6
F4.4004539999999999
sg7
S'884'
p3528
sg9
S'0.jpg.bin'
p3529
sa(dp3530
g6
F4.3972639999999998
sg7
S'730'
p3531
sg9
S'7_noplate.jpg.bin'
p3532
sa(dp3533
g6
F3.2530559999999999
sg7
S'604'
p3534
sg9
S'1_noplate.jpg.bin'
p3535
sa(dp3536
g6
F2.7664970000000002
sg7
S'390'
p3537
sg9
S'2.jpg.bin'
p3538
sa(dp3539
g6
F2.6587519999999998
sg7
S'972'
p3540
sg9
S'4.jpg.bin'
p3541
sa(dp3542
g6
F2.2386210000000002
sg7
S'199'
p3543
sg9
S'0_noplate.jpg.bin'
p3544
sa(dp3545
g6
F2.0801750000000001
sg7
S'578'
p3546
sg9
S'3.jpg.bin'
p3547
sa(dp3548
g6
F2.070459
sg7
S'499'
p3549
sg9
S'5.jpg.bin'
p3550
sa(dp3551
g6
F1.9356610000000001
sg7
S'271'
p3552
sg9
S'0.jpg.bin'
p3553
sa(dp3554
g6
F1.9171750000000001
sg7
S'566'
p3555
sg9
S'13_noplate.jpg.bin'
p3556
sa(dp3557
g6
F1.721813
sg7
S'445'
p3558
sg9
S'0_noplate.jpg.bin'
p3559
sa(dp3560
g6
F1.6449510000000001
sg7
S'369'
p3561
sg9
S'4.jpg.bin'
p3562
sa(dp3563
g6
F1.2797719999999999
sg7
S'304'
p3564
sg9
S'2.jpg.bin'
p3565
sa(dp3566
g6
F1.277466
sg7
S'206'
p3567
sg9
S'5_noplate.jpg.bin'
p3568
sa(dp3569
g6
F1.1472629999999999
sg7
S'208'
p3570
sg9
S'3_noplate.jpg.bin'
p3571
sa(dp3572
g6
F0.95098300000000002
sg7
S'166'
p3573
sg9
S'3.jpg.bin'
p3574
sa(dp3575
g6
F0.68998700000000002
sg7
S'587'
p3576
sg9
S'3_noplate.jpg.bin'
p3577
sasg7
S'74'
p3578
sg9
S'0_noplate.jpg.bin'
p3579
sa(dp3580
g3
(lp3581
(dp3582
g6
F11.022659000000001
sg7
S'4'
sg9
S'5.jpg.bin'
p3583
sa(dp3584
g6
F7.594805
sg7
S'570'
p3585
sg9
S'4.jpg.bin'
p3586
sa(dp3587
g6
F5.9649369999999999
sg7
S'666'
p3588
sg9
S'3_noplate.jpg.bin'
p3589
sa(dp3590
g6
F3.71007
sg7
S'144'
p3591
sg9
S'1_noplate.jpg.bin'
p3592
sa(dp3593
g6
F2.556934
sg7
S'656'
p3594
sg9
S'4_noplate.jpg.bin'
p3595
sa(dp3596
g6
F1.993139
sg7
S'235'
p3597
sg9
S'4.jpg.bin'
p3598
sa(dp3599
g6
F1.895462
sg7
S'486'
p3600
sg9
S'14_noplate.jpg.bin'
p3601
sa(dp3602
g6
F1.842373
sg7
S'957'
p3603
sg9
S'3_noplate.jpg.bin'
p3604
sa(dp3605
g6
F1.8199080000000001
sg7
S'381'
p3606
sg9
S'2.jpg.bin'
p3607
sa(dp3608
g6
F1.7816259999999999
sg7
S'311'
p3609
sg9
S'11.jpg.bin'
p3610
sa(dp3611
g6
F1.7368220000000001
sg7
S'293'
p3612
sg9
S'7.jpg.bin'
p3613
sa(dp3614
g6
F1.6360870000000001
sg7
S'276'
p3615
sg9
S'0_noplate.jpg.bin'
p3616
sa(dp3617
g6
F1.457619
sg7
S'627'
p3618
sg9
S'3_noplate.jpg.bin'
p3619
sa(dp3620
g6
F1.3680969999999999
sg7
S'392'
p3621
sg9
S'2.jpg.bin'
p3622
sa(dp3623
g6
F1.1574500000000001
sg7
S'682'
p3624
sg9
S'7.jpg.bin'
p3625
sa(dp3626
g6
F0.48653800000000003
sg7
S'494'
p3627
sg9
S'1_noplate.jpg.bin'
p3628
sa(dp3629
g6
F0.19950899999999999
sg7
S'814'
p3630
sg9
S'2_noplate.jpg.bin'
p3631
sa(dp3632
g6
F0.077178999999999998
sg7
S'592'
p3633
sg9
S'3.jpg.bin'
p3634
sa(dp3635
g6
F-0.037024000000000001
sg7
S'713'
p3636
sg9
S'5.jpg.bin'
p3637
sa(dp3638
g6
F-0.16984399999999999
sg7
S'515'
p3639
sg9
S'0.jpg.bin'
p3640
sasg7
S'4'
sg9
S'1.jpg.bin'
p3641
sa(dp3642
g3
(lp3643
(dp3644
g6
F6.3728769999999999
sg7
S'413'
p3645
sg9
S'8_noplate.jpg.bin'
p3646
sa(dp3647
g6
F4.4459460000000002
sg7
S'451'
p3648
sg9
S'2.jpg.bin'
p3649
sa(dp3650
g6
F3.5311340000000002
sg7
S'837'
p3651
sg9
S'3_noplate.jpg.bin'
p3652
sa(dp3653
g6
F3.4647269999999999
sg7
S'727'
p3654
sg9
S'16_noplate.jpg.bin'
p3655
sa(dp3656
g6
F3.3357009999999998
sg7
S'580'
p3657
sg9
S'2.jpg.bin'
p3658
sa(dp3659
g6
F3.2071040000000002
sg7
S'154'
p3660
sg9
S'3.jpg.bin'
p3661
sa(dp3662
g6
F3.1963159999999999
sg7
S'993'
p3663
sg9
S'8_noplate.jpg.bin'
p3664
sa(dp3665
g6
F3.1940360000000001
sg7
S'235'
p3666
sg9
S'4.jpg.bin'
p3667
sa(dp3668
g6
F2.9102250000000001
sg7
S'645'
p3669
sg9
S'0.jpg.bin'
p3670
sa(dp3671
g6
F2.8470970000000002
sg7
S'995'
p3672
sg9
S'4.jpg.bin'
p3673
sa(dp3674
g6
F2.7573810000000001
sg7
S'264'
p3675
sg9
S'0.jpg.bin'
p3676
sa(dp3677
g6
F2.7543579999999999
sg7
S'94'
p3678
sg9
S'4_noplate.jpg.bin'
p3679
sa(dp3680
g6
F2.7169400000000001
sg7
S'134'
p3681
sg9
S'0.jpg.bin'
p3682
sa(dp3683
g6
F2.7166480000000002
sg7
S'731'
p3684
sg9
S'0.jpg.bin'
p3685
sa(dp3686
g6
F2.5253770000000002
sg7
S'975'
p3687
sg9
S'5_noplate.jpg.bin'
p3688
sa(dp3689
g6
F2.4396499999999999
sg7
S'716'
p3690
sg9
S'2.jpg.bin'
p3691
sa(dp3692
g6
F2.398298
sg7
S'471'
p3693
sg9
S'1.jpg.bin'
p3694
sa(dp3695
g6
F2.2381479999999998
sg7
S'658'
p3696
sg9
S'5_noplate.jpg.bin'
p3697
sa(dp3698
g6
F2.1145550000000002
sg7
S'798'
p3699
sg9
S'0_noplate.jpg.bin'
p3700
sa(dp3701
g6
F2.0398749999999999
sg7
S'737'
p3702
sg9
S'4_noplate.jpg.bin'
p3703
sasg7
S'94'
p3704
sg9
S'0_noplate.jpg.bin'
p3705
sa(dp3706
g3
(lp3707
(dp3708
g6
F5.442564
sg7
S'183'
p3709
sg9
S'4_noplate.jpg.bin'
p3710
sa(dp3711
g6
F4.3140530000000004
sg7
S'475'
p3712
sg9
S'1.jpg.bin'
p3713
sa(dp3714
g6
F4.0610119999999998
sg7
S'438'
p3715
sg9
S'1_noplate.jpg.bin'
p3716
sa(dp3717
g6
F2.8935200000000001
sg7
S'736'
p3718
sg9
S'0.jpg.bin'
p3719
sa(dp3720
g6
F2.8865599999999998
sg7
S'145'
p3721
sg9
S'3_noplate.jpg.bin'
p3722
sa(dp3723
g6
F2.8247909999999998
sg7
S'612'
p3724
sg9
S'0_noplate.jpg.bin'
p3725
sa(dp3726
g6
F2.8056559999999999
sg7
S'26'
p3727
sg9
S'6_noplate.jpg.bin'
p3728
sa(dp3729
g6
F2.7926120000000001
sg7
S'603'
p3730
sg9
S'5.jpg.bin'
p3731
sa(dp3732
g6
F2.7015859999999998
sg7
S'669'
p3733
sg9
S'1.jpg.bin'
p3734
sa(dp3735
g6
F2.4479980000000001
sg7
S'241'
p3736
sg9
S'0.jpg.bin'
p3737
sa(dp3738
g6
F2.290295
sg7
S'505'
p3739
sg9
S'3_noplate.jpg.bin'
p3740
sa(dp3741
g6
F2.0599189999999998
sg7
S'415'
p3742
sg9
S'4.jpg.bin'
p3743
sa(dp3744
g6
F1.9782409999999999
sg7
S'511'
p3745
sg9
S'0_noplate.jpg.bin'
p3746
sa(dp3747
g6
F1.9461189999999999
sg7
S'93'
p3748
sg9
S'6.jpg.bin'
p3749
sa(dp3750
g6
F1.614908
sg7
S'927'
p3751
sg9
S'7.jpg.bin'
p3752
sa(dp3753
g6
F1.4870129999999999
sg7
S'91'
p3754
sg9
S'4_noplate.jpg.bin'
p3755
sa(dp3756
g6
F1.3661730000000001
sg7
S'19'
p3757
sg9
S'0_noplate.jpg.bin'
p3758
sa(dp3759
g6
F1.3460449999999999
sg7
S'821'
p3760
sg9
S'2.jpg.bin'
p3761
sa(dp3762
g6
F1.1903710000000001
sg7
S'262'
p3763
sg9
S'1_noplate.jpg.bin'
p3764
sa(dp3765
g6
F1.104546
sg7
S'114'
p3766
sg9
S'4.jpg.bin'
p3767
sasg7
S'26'
p3768
sg9
S'4.jpg.bin'
p3769
sa(dp3770
g3
(lp3771
(dp3772
g6
F7.2571070000000004
sg7
S'326'
p3773
sg9
S'1.jpg.bin'
p3774
sa(dp3775
g6
F4.9742490000000004
sg7
S'361'
p3776
sg9
S'2_noplate.jpg.bin'
p3777
sa(dp3778
g6
F4.8351230000000003
sg7
S'69'
p3779
sg9
S'1_noplate.jpg.bin'
p3780
sa(dp3781
g6
F4.7611660000000002
sg7
S'574'
p3782
sg9
S'4_noplate.jpg.bin'
p3783
sa(dp3784
g6
F4.609369
sg7
S'310'
p3785
sg9
S'7_noplate.jpg.bin'
p3786
sa(dp3787
g6
F4.4605540000000001
sg7
S'182'
p3788
sg9
S'4.jpg.bin'
p3789
sa(dp3790
g6
F4.2006990000000002
sg7
S'107'
p3791
sg9
S'4.jpg.bin'
p3792
sa(dp3793
g6
F3.9389479999999999
sg7
S'792'
p3794
sg9
S'2_noplate.jpg.bin'
p3795
sa(dp3796
g6
F3.8295669999999999
sg7
S'631'
p3797
sg9
S'9_noplate.jpg.bin'
p3798
sa(dp3799
g6
F3.7347549999999998
sg7
S'358'
p3800
sg9
S'6.jpg.bin'
p3801
sa(dp3802
g6
F3.61442
sg7
S'514'
p3803
sg9
S'9.jpg.bin'
p3804
sa(dp3805
g6
F3.3564989999999999
sg7
S'253'
p3806
sg9
S'1.jpg.bin'
p3807
sa(dp3808
g6
F3.147472
sg7
S'150'
p3809
sg9
S'3.jpg.bin'
p3810
sa(dp3811
g6
F3.1142539999999999
sg7
S'815'
p3812
sg9
S'6_noplate.jpg.bin'
p3813
sa(dp3814
g6
F3.098684
sg7
S'991'
p3815
sg9
S'4_noplate.jpg.bin'
p3816
sa(dp3817
g6
F3.0422479999999998
sg7
S'22'
p3818
sg9
S'1.jpg.bin'
p3819
sa(dp3820
g6
F2.9631270000000001
sg7
S'593'
p3821
sg9
S'2_noplate.jpg.bin'
p3822
sa(dp3823
g6
F2.9394070000000001
sg7
S'25'
p3824
sg9
S'3.jpg.bin'
p3825
sa(dp3826
g6
F2.9020730000000001
sg7
S'383'
p3827
sg9
S'5_noplate.jpg.bin'
p3828
sa(dp3829
g6
F2.8301789999999998
sg7
S'971'
p3830
sg9
S'2.jpg.bin'
p3831
sasg7
S'54'
p3832
sg9
S'0.jpg.bin'
p3833
sa(dp3834
g3
(lp3835
(dp3836
g6
F18.219429000000002
sg7
S'70'
p3837
sg9
S'24_noplate.jpg.bin'
p3838
sa(dp3839
g6
F2.1510159999999998
sg7
S'426'
p3840
sg9
S'1.jpg.bin'
p3841
sa(dp3842
g6
F2.1412049999999998
sg7
S'712'
p3843
sg9
S'1.jpg.bin'
p3844
sa(dp3845
g6
F2.1167069999999999
sg7
S'656'
p3846
sg9
S'4_noplate.jpg.bin'
p3847
sa(dp3848
g6
F1.956882
sg7
S'323'
p3849
sg9
S'4_noplate.jpg.bin'
p3850
sa(dp3851
g6
F1.8331580000000001
sg7
S'312'
p3852
sg9
S'6_noplate.jpg.bin'
p3853
sa(dp3854
g6
F1.7920929999999999
sg7
S'665'
p3855
sg9
S'1_noplate.jpg.bin'
p3856
sa(dp3857
g6
F1.615993
sg7
S'592'
p3858
sg9
S'3.jpg.bin'
p3859
sa(dp3860
g6
F1.615307
sg7
S'275'
p3861
sg9
S'0.jpg.bin'
p3862
sa(dp3863
g6
F1.5702400000000001
sg7
S'264'
p3864
sg9
S'0.jpg.bin'
p3865
sa(dp3866
g6
F1.3903289999999999
sg7
S'43'
p3867
sg9
S'5_noplate.jpg.bin'
p3868
sa(dp3869
g6
F1.3638110000000001
sg7
S'703'
p3870
sg9
S'4.jpg.bin'
p3871
sa(dp3872
g6
F1.23292
sg7
S'287'
p3873
sg9
S'0.jpg.bin'
p3874
sa(dp3875
g6
F1.2003360000000001
sg7
S'897'
p3876
sg9
S'3_noplate.jpg.bin'
p3877
sa(dp3878
g6
F1.169886
sg7
S'810'
p3879
sg9
S'4_noplate.jpg.bin'
p3880
sa(dp3881
g6
F0.991201
sg7
S'135'
p3882
sg9
S'1_noplate.jpg.bin'
p3883
sa(dp3884
g6
F0.92190000000000005
sg7
S'984'
p3885
sg9
S'6.jpg.bin'
p3886
sa(dp3887
g6
F0.892065
sg7
S'538'
p3888
sg9
S'3.jpg.bin'
p3889
sa(dp3890
g6
F0.84007600000000004
sg7
S'191'
p3891
sg9
S'5_noplate.jpg.bin'
p3892
sa(dp3893
g6
F0.78788400000000003
sg7
S'125'
p3894
sg9
S'7.jpg.bin'
p3895
sasg7
S'70'
p3896
sg9
S'18.jpg.bin'
p3897
sa(dp3898
g3
(lp3899
(dp3900
g6
F5.5718629999999996
sg7
S'327'
p3901
sg9
S'6.jpg.bin'
p3902
sa(dp3903
g6
F5.5468500000000001
sg7
S'6'
sg9
S'10.jpg.bin'
p3904
sa(dp3905
g6
F5.524216
sg7
S'722'
p3906
sg9
S'7.jpg.bin'
p3907
sa(dp3908
g6
F5.3062500000000004
sg7
S'323'
p3909
sg9
S'4_noplate.jpg.bin'
p3910
sa(dp3911
g6
F5.0678580000000002
sg7
S'503'
p3912
sg9
S'5_noplate.jpg.bin'
p3913
sa(dp3914
g6
F5.0287629999999996
sg7
S'233'
p3915
sg9
S'2.jpg.bin'
p3916
sa(dp3917
g6
F4.8265779999999996
sg7
S'325'
p3918
sg9
S'0.jpg.bin'
p3919
sa(dp3920
g6
F4.5857890000000001
sg7
S'569'
p3921
sg9
S'4.jpg.bin'
p3922
sa(dp3923
g6
F4.5529729999999997
sg7
S'32'
p3924
sg9
S'2.jpg.bin'
p3925
sa(dp3926
g6
F4.1270639999999998
sg7
S'453'
p3927
sg9
S'0.jpg.bin'
p3928
sa(dp3929
g6
F4.1018160000000004
sg7
S'263'
p3930
sg9
S'2_noplate.jpg.bin'
p3931
sa(dp3932
g6
F4.0773279999999996
sg7
S'135'
p3933
sg9
S'1_noplate.jpg.bin'
p3934
sa(dp3935
g6
F3.7639179999999999
sg7
S'207'
p3936
sg9
S'5_noplate.jpg.bin'
p3937
sa(dp3938
g6
F3.7524280000000001
sg7
S'861'
p3939
sg9
S'8.jpg.bin'
p3940
sa(dp3941
g6
F3.6204930000000002
sg7
S'643'
p3942
sg9
S'9.jpg.bin'
p3943
sa(dp3944
g6
F3.4765320000000002
sg7
S'733'
p3945
sg9
S'2_noplate.jpg.bin'
p3946
sa(dp3947
g6
F3.3533309999999998
sg7
S'252'
p3948
sg9
S'8_noplate.jpg.bin'
p3949
sa(dp3950
g6
F2.9742869999999999
sg7
S'433'
p3951
sg9
S'2.jpg.bin'
p3952
sa(dp3953
g6
F2.829758
sg7
S'92'
p3954
sg9
S'5.jpg.bin'
p3955
sa(dp3956
g6
F2.6481949999999999
sg7
S'712'
p3957
sg9
S'1.jpg.bin'
p3958
sasg7
S'6'
sg9
S'1.jpg.bin'
p3959
sa(dp3960
g3
(lp3961
(dp3962
g6
F10.131435
sg7
S'51'
p3963
sg9
S'5.jpg.bin'
p3964
sa(dp3965
g6
F7.4317320000000002
sg7
S'212'
p3966
sg9
S'0.jpg.bin'
p3967
sa(dp3968
g6
F5.4496919999999998
sg7
S'357'
p3969
sg9
S'0_noplate.jpg.bin'
p3970
sa(dp3971
g6
F4.7643620000000002
sg7
S'228'
p3972
sg9
S'1_noplate.jpg.bin'
p3973
sa(dp3974
g6
F4.1339610000000002
sg7
S'941'
p3975
sg9
S'1.jpg.bin'
p3976
sa(dp3977
g6
F4.1036469999999996
sg7
S'745'
p3978
sg9
S'0.jpg.bin'
p3979
sa(dp3980
g6
F3.832586
sg7
S'702'
p3981
sg9
S'7_noplate.jpg.bin'
p3982
sa(dp3983
g6
F3.823944
sg7
S'57'
p3984
sg9
S'3.jpg.bin'
p3985
sa(dp3986
g6
F3.7637230000000002
sg7
S'339'
p3987
sg9
S'4_noplate.jpg.bin'
p3988
sa(dp3989
g6
F3.7378309999999999
sg7
S'477'
p3990
sg9
S'5.jpg.bin'
p3991
sa(dp3992
g6
F3.6970619999999998
sg7
S'721'
p3993
sg9
S'6.jpg.bin'
p3994
sa(dp3995
g6
F3.3208069999999998
sg7
S'685'
p3996
sg9
S'3_noplate.jpg.bin'
p3997
sa(dp3998
g6
F2.7073779999999998
sg7
S'40'
p3999
sg9
S'0_noplate.jpg.bin'
p4000
sa(dp4001
g6
F2.6894339999999999
sg7
S'968'
p4002
sg9
S'22_noplate.jpg.bin'
p4003
sa(dp4004
g6
F2.6555689999999998
sg7
S'442'
p4005
sg9
S'0_noplate.jpg.bin'
p4006
sa(dp4007
g6
F2.6357379999999999
sg7
S'926'
p4008
sg9
S'0_noplate.jpg.bin'
p4009
sa(dp4010
g6
F2.58378
sg7
S'734'
p4011
sg9
S'3.jpg.bin'
p4012
sa(dp4013
g6
F2.5139239999999998
sg7
S'841'
p4014
sg9
S'1.jpg.bin'
p4015
sa(dp4016
g6
F2.2845629999999999
sg7
S'491'
p4017
sg9
S'3.jpg.bin'
p4018
sa(dp4019
g6
F2.2768670000000002
sg7
S'19'
p4020
sg9
S'0_noplate.jpg.bin'
p4021
sasg7
S'51'
p4022
sg9
S'2.jpg.bin'
p4023
sa(dp4024
g3
(lp4025
(dp4026
g6
F6.2231230000000002
sg7
S'23'
p4027
sg9
S'5_noplate.jpg.bin'
p4028
sa(dp4029
g6
F3.4545629999999998
sg7
S'353'
p4030
sg9
S'4.jpg.bin'
p4031
sa(dp4032
g6
F3.250883
sg7
S'241'
p4033
sg9
S'0.jpg.bin'
p4034
sa(dp4035
g6
F3.2077049999999998
sg7
S'675'
p4036
sg9
S'4_noplate.jpg.bin'
p4037
sa(dp4038
g6
F3.051723
sg7
S'434'
p4039
sg9
S'1.jpg.bin'
p4040
sa(dp4041
g6
F3.039574
sg7
S'140'
p4042
sg9
S'3.jpg.bin'
p4043
sa(dp4044
g6
F2.9275929999999999
sg7
S'906'
p4045
sg9
S'1_noplate.jpg.bin'
p4046
sa(dp4047
g6
F2.8014350000000001
sg7
S'952'
p4048
sg9
S'3.jpg.bin'
p4049
sa(dp4050
g6
F2.724945
sg7
S'641'
p4051
sg9
S'1_noplate.jpg.bin'
p4052
sa(dp4053
g6
F2.661797
sg7
S'602'
p4054
sg9
S'2.jpg.bin'
p4055
sa(dp4056
g6
F2.5069349999999999
sg7
S'612'
p4057
sg9
S'0_noplate.jpg.bin'
p4058
sa(dp4059
g6
F2.4038029999999999
sg7
S'703'
p4060
sg9
S'4.jpg.bin'
p4061
sa(dp4062
g6
F2.2950780000000002
sg7
S'831'
p4063
sg9
S'3_noplate.jpg.bin'
p4064
sa(dp4065
g6
F2.1481590000000002
sg7
S'779'
p4066
sg9
S'4_noplate.jpg.bin'
p4067
sa(dp4068
g6
F2.0918009999999998
sg7
S'771'
p4069
sg9
S'0.jpg.bin'
p4070
sa(dp4071
g6
F2.0915159999999999
sg7
S'954'
p4072
sg9
S'6_noplate.jpg.bin'
p4073
sa(dp4074
g6
F2.0626509999999998
sg7
S'452'
p4075
sg9
S'5.jpg.bin'
p4076
sa(dp4077
g6
F1.9759310000000001
sg7
S'542'
p4078
sg9
S'3.jpg.bin'
p4079
sa(dp4080
g6
F1.8249299999999999
sg7
S'811'
p4081
sg9
S'6.jpg.bin'
p4082
sa(dp4083
g6
F1.8106100000000001
sg7
S'16'
p4084
sg9
S'3.jpg.bin'
p4085
sasg7
S'23'
p4086
sg9
S'2_noplate.jpg.bin'
p4087
sa(dp4088
g3
(lp4089
(dp4090
g6
F4.3627570000000002
sg7
S'415'
p4091
sg9
S'4.jpg.bin'
p4092
sa(dp4093
g6
F3.3503590000000001
sg7
S'502'
p4094
sg9
S'5.jpg.bin'
p4095
sa(dp4096
g6
F3.0865670000000001
sg7
S'954'
p4097
sg9
S'6_noplate.jpg.bin'
p4098
sa(dp4099
g6
F3.0306989999999998
sg7
S'749'
p4100
sg9
S'5.jpg.bin'
p4101
sa(dp4102
g6
F2.8737560000000002
sg7
S'979'
p4103
sg9
S'8_noplate.jpg.bin'
p4104
sa(dp4105
g6
F2.8185349999999998
sg7
S'30'
p4106
sg9
S'2_noplate.jpg.bin'
p4107
sa(dp4108
g6
F2.2396829999999999
sg7
S'260'
p4109
sg9
S'2.jpg.bin'
p4110
sa(dp4111
g6
F2.2279450000000001
sg7
S'889'
p4112
sg9
S'0.jpg.bin'
p4113
sa(dp4114
g6
F1.967482
sg7
S'60'
p4115
sg9
S'3.jpg.bin'
p4116
sa(dp4117
g6
F1.9479390000000001
sg7
S'169'
p4118
sg9
S'5_noplate.jpg.bin'
p4119
sa(dp4120
g6
F1.902933
sg7
S'267'
p4121
sg9
S'1_noplate.jpg.bin'
p4122
sa(dp4123
g6
F1.879982
sg7
S'886'
p4124
sg9
S'4_noplate.jpg.bin'
p4125
sa(dp4126
g6
F1.8193950000000001
sg7
S'841'
p4127
sg9
S'1.jpg.bin'
p4128
sa(dp4129
g6
F1.783123
sg7
S'983'
p4130
sg9
S'2.jpg.bin'
p4131
sa(dp4132
g6
F1.751099
sg7
S'26'
p4133
sg9
S'6_noplate.jpg.bin'
p4134
sa(dp4135
g6
F1.7506809999999999
sg7
S'225'
p4136
sg9
S'3.jpg.bin'
p4137
sa(dp4138
g6
F1.725597
sg7
S'528'
p4139
sg9
S'1_noplate.jpg.bin'
p4140
sa(dp4141
g6
F1.5983050000000001
sg7
S'811'
p4142
sg9
S'6.jpg.bin'
p4143
sa(dp4144
g6
F1.5951310000000001
sg7
S'621'
p4145
sg9
S'2_noplate.jpg.bin'
p4146
sa(dp4147
g6
F1.570389
sg7
S'673'
p4148
sg9
S'1.jpg.bin'
p4149
sasg7
S'30'
p4150
sg9
S'3_noplate.jpg.bin'
p4151
sa(dp4152
g3
(lp4153
(dp4154
g6
F9.5533239999999999
sg7
S'32'
p4155
sg9
S'2.jpg.bin'
p4156
sa(dp4157
g6
F5.7994079999999997
sg7
S'595'
p4158
sg9
S'3_noplate.jpg.bin'
p4159
sa(dp4160
g6
F5.3619329999999996
sg7
S'252'
p4161
sg9
S'8_noplate.jpg.bin'
p4162
sa(dp4163
g6
F4.481236
sg7
S'263'
p4164
sg9
S'2_noplate.jpg.bin'
p4165
sa(dp4166
g6
F4.332592
sg7
S'258'
p4167
sg9
S'3.jpg.bin'
p4168
sa(dp4169
g6
F3.9993479999999999
sg7
S'461'
p4170
sg9
S'5.jpg.bin'
p4171
sa(dp4172
g6
F3.7588270000000001
sg7
S'569'
p4173
sg9
S'4.jpg.bin'
p4174
sa(dp4175
g6
F3.7389619999999999
sg7
S'411'
p4176
sg9
S'2_noplate.jpg.bin'
p4177
sa(dp4178
g6
F3.5371359999999998
sg7
S'895'
p4179
sg9
S'5.jpg.bin'
p4180
sa(dp4181
g6
F3.4492989999999999
sg7
S'234'
p4182
sg9
S'2_noplate.jpg.bin'
p4183
sa(dp4184
g6
F3.2331449999999999
sg7
S'214'
p4185
sg9
S'3.jpg.bin'
p4186
sa(dp4187
g6
F3.2117900000000001
sg7
S'325'
p4188
sg9
S'0.jpg.bin'
p4189
sa(dp4190
g6
F3.1297649999999999
sg7
S'619'
p4191
sg9
S'3.jpg.bin'
p4192
sa(dp4193
g6
F2.730524
sg7
S'314'
p4194
sg9
S'6_noplate.jpg.bin'
p4195
sa(dp4196
g6
F2.2617630000000002
sg7
S'959'
p4197
sg9
S'5.jpg.bin'
p4198
sa(dp4199
g6
F2.2405819999999999
sg7
S'503'
p4200
sg9
S'5_noplate.jpg.bin'
p4201
sa(dp4202
g6
F2.1170749999999998
sg7
S'872'
p4203
sg9
S'8.jpg.bin'
p4204
sa(dp4205
g6
F2.0595460000000001
sg7
S'961'
p4206
sg9
S'6_noplate.jpg.bin'
p4207
sa(dp4208
g6
F2.0459670000000001
sg7
S'875'
p4209
sg9
S'3_noplate.jpg.bin'
p4210
sa(dp4211
g6
F1.9888189999999999
sg7
S'500'
p4212
sg9
S'2_noplate.jpg.bin'
p4213
sasg7
S'32'
p4214
sg9
S'6.jpg.bin'
p4215
sa(dp4216
g3
(lp4217
(dp4218
g6
F6.4805970000000004
sg7
S'815'
p4219
sg9
S'6_noplate.jpg.bin'
p4220
sa(dp4221
g6
F6.3769869999999997
sg7
S'329'
p4222
sg9
S'5_noplate.jpg.bin'
p4223
sa(dp4224
g6
F6.2188049999999997
sg7
S'524'
p4225
sg9
S'8.jpg.bin'
p4226
sa(dp4227
g6
F4.771458
sg7
S'649'
p4228
sg9
S'0_noplate.jpg.bin'
p4229
sa(dp4230
g6
F4.7641980000000004
sg7
S'25'
p4231
sg9
S'3.jpg.bin'
p4232
sa(dp4233
g6
F4.4417299999999997
sg7
S'684'
p4234
sg9
S'4.jpg.bin'
p4235
sa(dp4236
g6
F4.3843920000000001
sg7
S'507'
p4237
sg9
S'6.jpg.bin'
p4238
sa(dp4239
g6
F3.820398
sg7
S'46'
p4240
sg9
S'9.jpg.bin'
p4241
sa(dp4242
g6
F3.5545059999999999
sg7
S'88'
p4243
sg9
S'0_noplate.jpg.bin'
p4244
sa(dp4245
g6
F3.1665730000000001
sg7
S'890'
p4246
sg9
S'1_noplate.jpg.bin'
p4247
sa(dp4248
g6
F3.069105
sg7
S'701'
p4249
sg9
S'2_noplate.jpg.bin'
p4250
sa(dp4251
g6
F2.3886280000000002
sg7
S'14'
p4252
sg9
S'1_noplate.jpg.bin'
p4253
sa(dp4254
g6
F2.2329729999999999
sg7
S'925'
p4255
sg9
S'0.jpg.bin'
p4256
sa(dp4257
g6
F2.1020319999999999
sg7
S'383'
p4258
sg9
S'5_noplate.jpg.bin'
p4259
sa(dp4260
g6
F2.0940340000000002
sg7
S'514'
p4261
sg9
S'9.jpg.bin'
p4262
sa(dp4263
g6
F1.992523
sg7
S'584'
p4264
sg9
S'3_noplate.jpg.bin'
p4265
sa(dp4266
g6
F1.987611
sg7
S'939'
p4267
sg9
S'5_noplate.jpg.bin'
p4268
sa(dp4269
g6
F1.8509850000000001
sg7
S'728'
p4270
sg9
S'6_noplate.jpg.bin'
p4271
sa(dp4272
g6
F1.761976
sg7
S'565'
p4273
sg9
S'1.jpg.bin'
p4274
sa(dp4275
g6
F1.4565049999999999
sg7
S'599'
p4276
sg9
S'3_noplate.jpg.bin'
p4277
sasg7
S'14'
p4278
sg9
S'6_noplate.jpg.bin'
p4279
sa(dp4280
g3
(lp4281
(dp4282
g6
F5.1755620000000002
sg7
S'821'
p4283
sg9
S'2.jpg.bin'
p4284
sa(dp4285
g6
F2.8030469999999998
sg7
S'44'
p4286
sg9
S'1.jpg.bin'
p4287
sa(dp4288
g6
F2.6535639999999998
sg7
S'145'
p4289
sg9
S'3_noplate.jpg.bin'
p4290
sa(dp4291
g6
F2.1170879999999999
sg7
S'870'
p4292
sg9
S'2_noplate.jpg.bin'
p4293
sa(dp4294
g6
F1.854528
sg7
S'262'
p4295
sg9
S'1_noplate.jpg.bin'
p4296
sa(dp4297
g6
F1.619011
sg7
S'62'
p4298
sg9
S'3_noplate.jpg.bin'
p4299
sa(dp4300
g6
F1.607691
sg7
S'438'
p4301
sg9
S'1_noplate.jpg.bin'
p4302
sa(dp4303
g6
F1.488729
sg7
S'779'
p4304
sg9
S'4_noplate.jpg.bin'
p4305
sa(dp4306
g6
F1.3268990000000001
sg7
S'573'
p4307
sg9
S'2.jpg.bin'
p4308
sa(dp4309
g6
F1.268999
sg7
S'139'
p4310
sg9
S'1_noplate.jpg.bin'
p4311
sa(dp4312
g6
F1.254839
sg7
S'952'
p4313
sg9
S'3.jpg.bin'
p4314
sa(dp4315
g6
F1.039822
sg7
S'675'
p4316
sg9
S'4_noplate.jpg.bin'
p4317
sa(dp4318
g6
F0.99543800000000005
sg7
S'312'
p4319
sg9
S'6_noplate.jpg.bin'
p4320
sa(dp4321
g6
F0.91851799999999995
sg7
S'629'
p4322
sg9
S'3_noplate.jpg.bin'
p4323
sa(dp4324
g6
F0.86127900000000002
sg7
S'425'
p4325
sg9
S'1.jpg.bin'
p4326
sa(dp4327
g6
F0.80944099999999997
sg7
S'536'
p4328
sg9
S'0_noplate.jpg.bin'
p4329
sa(dp4330
g6
F0.60666799999999999
sg7
S'434'
p4331
sg9
S'1.jpg.bin'
p4332
sa(dp4333
g6
F0.52789699999999995
sg7
S'916'
p4334
sg9
S'3_noplate.jpg.bin'
p4335
sa(dp4336
g6
F0.478024
sg7
S'101'
p4337
sg9
S'3.jpg.bin'
p4338
sa(dp4339
g6
F0.277557
sg7
S'230'
p4340
sg9
S'6_noplate.jpg.bin'
p4341
sasg7
S'44'
p4342
sg9
S'3.jpg.bin'
p4343
sa(dp4344
g3
(lp4345
(dp4346
g6
F4.9050440000000002
sg7
S'127'
p4347
sg9
S'4_noplate.jpg.bin'
p4348
sa(dp4349
g6
F4.482361
sg7
S'443'
p4350
sg9
S'4.jpg.bin'
p4351
sa(dp4352
g6
F4.2557130000000001
sg7
S'972'
p4353
sg9
S'4.jpg.bin'
p4354
sa(dp4355
g6
F4.0287439999999997
sg7
S'800'
p4356
sg9
S'1_noplate.jpg.bin'
p4357
sa(dp4358
g6
F4.0082649999999997
sg7
S'208'
p4359
sg9
S'3_noplate.jpg.bin'
p4360
sa(dp4361
g6
F3.8510550000000001
sg7
S'190'
p4362
sg9
S'2_noplate.jpg.bin'
p4363
sa(dp4364
g6
F3.5150399999999999
sg7
S'404'
p4365
sg9
S'2.jpg.bin'
p4366
sa(dp4367
g6
F3.4430830000000001
sg7
S'174'
p4368
sg9
S'4.jpg.bin'
p4369
sa(dp4370
g6
F3.3151280000000001
sg7
S'792'
p4371
sg9
S'2_noplate.jpg.bin'
p4372
sa(dp4373
g6
F3.2755459999999998
sg7
S'211'
p4374
sg9
S'10.jpg.bin'
p4375
sa(dp4376
g6
F3.2056520000000002
sg7
S'358'
p4377
sg9
S'6.jpg.bin'
p4378
sa(dp4379
g6
F2.9507180000000002
sg7
S'523'
p4380
sg9
S'0_noplate.jpg.bin'
p4381
sa(dp4382
g6
F2.7631410000000001
sg7
S'626'
p4383
sg9
S'4_noplate.jpg.bin'
p4384
sa(dp4385
g6
F2.7284769999999998
sg7
S'22'
p4386
sg9
S'1.jpg.bin'
p4387
sa(dp4388
g6
F2.7213210000000001
sg7
S'165'
p4389
sg9
S'4_noplate.jpg.bin'
p4390
sa(dp4391
g6
F2.5526409999999999
sg7
S'326'
p4392
sg9
S'1.jpg.bin'
p4393
sa(dp4394
g6
F2.4090669999999998
sg7
S'398'
p4395
sg9
S'0_noplate.jpg.bin'
p4396
sa(dp4397
g6
F2.3317220000000001
sg7
S'593'
p4398
sg9
S'2_noplate.jpg.bin'
p4399
sa(dp4400
g6
F2.3294540000000001
sg7
S'873'
p4401
sg9
S'4_noplate.jpg.bin'
p4402
sa(dp4403
g6
F2.3261660000000002
sg7
S'310'
p4404
sg9
S'7_noplate.jpg.bin'
p4405
sasg7
S'29'
p4406
sg9
S'2.jpg.bin'
p4407
sa(dp4408
g3
(lp4409
(dp4410
g6
F11.421351
sg7
S'76'
p4411
sg9
S'1.jpg.bin'
p4412
sa(dp4413
g6
F1.7282679999999999
sg7
S'149'
p4414
sg9
S'4.jpg.bin'
p4415
sa(dp4416
g6
F1.7126030000000001
sg7
S'525'
p4417
sg9
S'3_noplate.jpg.bin'
p4418
sa(dp4419
g6
F1.5433079999999999
sg7
S'66'
p4420
sg9
S'1.jpg.bin'
p4421
sa(dp4422
g6
F1.381319
sg7
S'954'
p4423
sg9
S'6_noplate.jpg.bin'
p4424
sa(dp4425
g6
F1.290583
sg7
S'552'
p4426
sg9
S'0.jpg.bin'
p4427
sa(dp4428
g6
F1.237263
sg7
S'606'
p4429
sg9
S'4_noplate.jpg.bin'
p4430
sa(dp4431
g6
F0.62088200000000004
sg7
S'381'
p4432
sg9
S'2.jpg.bin'
p4433
sa(dp4434
g6
F0.46664800000000001
sg7
S'106'
p4435
sg9
S'1_noplate.jpg.bin'
p4436
sa(dp4437
g6
F0.44016499999999997
sg7
S'71'
p4438
sg9
S'2_noplate.jpg.bin'
p4439
sa(dp4440
g6
F0.331488
sg7
S'534'
p4441
sg9
S'5.jpg.bin'
p4442
sa(dp4443
g6
F0.13809199999999999
sg7
S'692'
p4444
sg9
S'0.jpg.bin'
p4445
sa(dp4446
g6
F0.12006799999999999
sg7
S'265'
p4447
sg9
S'1_noplate.jpg.bin'
p4448
sa(dp4449
g6
F0.096708000000000002
sg7
S'848'
p4450
sg9
S'0_noplate.jpg.bin'
p4451
sa(dp4452
g6
F-0.010710000000000001
sg7
S'965'
p4453
sg9
S'1_noplate.jpg.bin'
p4454
sa(dp4455
g6
F-0.023255999999999999
sg7
S'753'
p4456
sg9
S'4.jpg.bin'
p4457
sa(dp4458
g6
F-0.058522999999999999
sg7
S'502'
p4459
sg9
S'5.jpg.bin'
p4460
sa(dp4461
g6
F-0.085267999999999997
sg7
S'841'
p4462
sg9
S'1.jpg.bin'
p4463
sa(dp4464
g6
F-0.092608999999999997
sg7
S'117'
p4465
sg9
S'8_noplate.jpg.bin'
p4466
sa(dp4467
g6
F-0.19908000000000001
sg7
S'434'
p4468
sg9
S'1.jpg.bin'
p4469
sasg7
S'76'
p4470
sg9
S'2_noplate.jpg.bin'
p4471
sa(dp4472
g3
(lp4473
(dp4474
g6
F6.6849590000000001
sg7
S'49'
p4475
sg9
S'7_noplate.jpg.bin'
p4476
sa(dp4477
g6
F2.085636
sg7
S'905'
p4478
sg9
S'4.jpg.bin'
p4479
sa(dp4480
g6
F1.3633230000000001
sg7
S'282'
p4481
sg9
S'10_noplate.jpg.bin'
p4482
sa(dp4483
g6
F0.941496
sg7
S'488'
p4484
sg9
S'0.jpg.bin'
p4485
sa(dp4486
g6
F0.74180199999999996
sg7
S'300'
p4487
sg9
S'2_noplate.jpg.bin'
p4488
sa(dp4489
g6
F0.65520699999999998
sg7
S'969'
p4490
sg9
S'1.jpg.bin'
p4491
sa(dp4492
g6
F0.62846000000000002
sg7
S'939'
p4493
sg9
S'5_noplate.jpg.bin'
p4494
sa(dp4495
g6
F0.028119999999999999
sg7
S'588'
p4496
sg9
S'3_noplate.jpg.bin'
p4497
sa(dp4498
g6
F0.017000000000000001
sg7
S'605'
p4499
sg9
S'84.jpg.bin'
p4500
sa(dp4501
g6
F-0.052491999999999997
sg7
S'444'
p4502
sg9
S'1_noplate.jpg.bin'
p4503
sa(dp4504
g6
F-0.30154999999999998
sg7
S'547'
p4505
sg9
S'2.jpg.bin'
p4506
sa(dp4507
g6
F-0.39118000000000003
sg7
S'288'
p4508
sg9
S'15_noplate.jpg.bin'
p4509
sa(dp4510
g6
F-0.51898999999999995
sg7
S'481'
p4511
sg9
S'8.jpg.bin'
p4512
sa(dp4513
g6
F-0.65174500000000002
sg7
S'800'
p4514
sg9
S'1_noplate.jpg.bin'
p4515
sa(dp4516
g6
F-0.69629300000000005
sg7
S'305'
p4517
sg9
S'3.jpg.bin'
p4518
sa(dp4519
g6
F-0.71255299999999999
sg7
S'682'
p4520
sg9
S'7.jpg.bin'
p4521
sa(dp4522
g6
F-0.71876899999999999
sg7
S'781'
p4523
sg9
S'20_noplate.jpg.bin'
p4524
sa(dp4525
g6
F-0.73758900000000005
sg7
S'184'
p4526
sg9
S'6_noplate.jpg.bin'
p4527
sa(dp4528
g6
F-0.75202800000000003
sg7
S'79'
p4529
sg9
S'3_noplate.jpg.bin'
p4530
sa(dp4531
g6
F-0.850132
sg7
S'398'
p4532
sg9
S'0_noplate.jpg.bin'
p4533
sasg7
S'49'
p4534
sg9
S'1.jpg.bin'
p4535
sa(dp4536
g3
(lp4537
(dp4538
g6
F7.8226170000000002
sg7
S'21'
p4539
sg9
S'5.jpg.bin'
p4540
sa(dp4541
g6
F3.9250029999999998
sg7
S'166'
p4542
sg9
S'3.jpg.bin'
p4543
sa(dp4544
g6
F3.7572139999999998
sg7
S'730'
p4545
sg9
S'7_noplate.jpg.bin'
p4546
sa(dp4547
g6
F3.1328809999999998
sg7
S'245'
p4548
sg9
S'12.jpg.bin'
p4549
sa(dp4550
g6
F3.0783649999999998
sg7
S'224'
p4551
sg9
S'2_noplate.jpg.bin'
p4552
sa(dp4553
g6
F2.8016299999999998
sg7
S'992'
p4554
sg9
S'9_noplate.jpg.bin'
p4555
sa(dp4556
g6
F2.7469899999999998
sg7
S'84'
p4557
sg9
S'3.jpg.bin'
p4558
sa(dp4559
g6
F2.5266690000000001
sg7
S'754'
p4560
sg9
S'32_noplate.jpg.bin'
p4561
sa(dp4562
g6
F2.1873070000000001
sg7
S'200'
p4563
sg9
S'4.jpg.bin'
p4564
sa(dp4565
g6
F1.9597579999999999
sg7
S'499'
p4566
sg9
S'5.jpg.bin'
p4567
sa(dp4568
g6
F1.7778259999999999
sg7
S'587'
p4569
sg9
S'3_noplate.jpg.bin'
p4570
sa(dp4571
g6
F1.414928
sg7
S'304'
p4572
sg9
S'2.jpg.bin'
p4573
sa(dp4574
g6
F1.3773500000000001
sg7
S'915'
p4575
sg9
S'0.jpg.bin'
p4576
sa(dp4577
g6
F0.99490500000000004
sg7
S'29'
p4578
sg9
S'3_noplate.jpg.bin'
p4579
sa(dp4580
g6
F0.87786299999999995
sg7
S'431'
p4581
sg9
S'1.jpg.bin'
p4582
sa(dp4583
g6
F0.83718499999999996
sg7
S'578'
p4584
sg9
S'3.jpg.bin'
p4585
sa(dp4586
g6
F0.79753499999999999
sg7
S'346'
p4587
sg9
S'10_noplate.jpg.bin'
p4588
sa(dp4589
g6
F0.77013600000000004
sg7
S'271'
p4590
sg9
S'0.jpg.bin'
p4591
sa(dp4592
g6
F0.59597800000000001
sg7
S'390'
p4593
sg9
S'2.jpg.bin'
p4594
sa(dp4595
g6
F0.56071099999999996
sg7
S'342'
p4596
sg9
S'0.jpg.bin'
p4597
sasg7
S'21'
p4598
sg9
S'6_noplate.jpg.bin'
p4599
sa(dp4600
g3
(lp4601
(dp4602
g6
F5.2703480000000003
sg7
S'366'
p4603
sg9
S'0.jpg.bin'
p4604
sa(dp4605
g6
F5.2503200000000003
sg7
S'31'
p4606
sg9
S'6.jpg.bin'
p4607
sa(dp4608
g6
F5.1271709999999997
sg7
S'458'
p4609
sg9
S'4_noplate.jpg.bin'
p4610
sa(dp4611
g6
F4.9592669999999996
sg7
S'581'
p4612
sg9
S'2.jpg.bin'
p4613
sa(dp4614
g6
F4.6476189999999997
sg7
S'866'
p4615
sg9
S'5_noplate.jpg.bin'
p4616
sa(dp4617
g6
F4.6048090000000004
sg7
S'421'
p4618
sg9
S'1.jpg.bin'
p4619
sa(dp4620
g6
F4.4197059999999997
sg7
S'138'
p4621
sg9
S'2.jpg.bin'
p4622
sa(dp4623
g6
F4.1994720000000001
sg7
S'801'
p4624
sg9
S'9_noplate.jpg.bin'
p4625
sa(dp4626
g6
F4.1862579999999996
sg7
S'47'
p4627
sg9
S'3_noplate.jpg.bin'
p4628
sa(dp4629
g6
F3.9035760000000002
sg7
S'306'
p4630
sg9
S'3_noplate.jpg.bin'
p4631
sa(dp4632
g6
F3.847855
sg7
S'56'
p4633
sg9
S'3.jpg.bin'
p4634
sa(dp4635
g6
F3.7812459999999999
sg7
S'322'
p4636
sg9
S'4.jpg.bin'
p4637
sa(dp4638
g6
F3.720091
sg7
S'360'
p4639
sg9
S'2.jpg.bin'
p4640
sa(dp4641
g6
F3.0772400000000002
sg7
S'765'
p4642
sg9
S'1_noplate.jpg.bin'
p4643
sa(dp4644
g6
F2.9585059999999999
sg7
S'579'
p4645
sg9
S'4_noplate.jpg.bin'
p4646
sa(dp4647
g6
F2.8715920000000001
sg7
S'841'
p4648
sg9
S'1.jpg.bin'
p4649
sa(dp4650
g6
F2.8058380000000001
sg7
S'706'
p4651
sg9
S'1_noplate.jpg.bin'
p4652
sa(dp4653
g6
F2.7889979999999999
sg7
S'373'
p4654
sg9
S'5.jpg.bin'
p4655
sa(dp4656
g6
F2.6630630000000002
sg7
S'1'
sg9
S'2.jpg.bin'
p4657
sa(dp4658
g6
F2.5969099999999998
sg7
S'466'
p4659
sg9
S'6_noplate.jpg.bin'
p4660
sasg7
S'31'
p4661
sg9
S'5.jpg.bin'
p4662
sa(dp4663
g3
(lp4664
(dp4665
g6
F11.978756000000001
sg7
S'83'
p4666
sg9
S'3_noplate.jpg.bin'
p4667
sa(dp4668
g6
F4.0820980000000002
sg7
S'442'
p4669
sg9
S'0_noplate.jpg.bin'
p4670
sa(dp4671
g6
F2.9028239999999998
sg7
S'702'
p4672
sg9
S'7_noplate.jpg.bin'
p4673
sa(dp4674
g6
F2.81616
sg7
S'968'
p4675
sg9
S'22_noplate.jpg.bin'
p4676
sa(dp4677
g6
F2.2517830000000001
sg7
S'628'
p4678
sg9
S'2.jpg.bin'
p4679
sa(dp4680
g6
F2.0979019999999999
sg7
S'529'
p4681
sg9
S'2.jpg.bin'
p4682
sa(dp4683
g6
F2.0696180000000002
sg7
S'259'
p4684
sg9
S'1_noplate.jpg.bin'
p4685
sa(dp4686
g6
F2.0568770000000001
sg7
S'188'
p4687
sg9
S'1_noplate.jpg.bin'
p4688
sa(dp4689
g6
F1.8286
sg7
S'857'
p4690
sg9
S'3.jpg.bin'
p4691
sa(dp4692
g6
F1.790173
sg7
S'988'
p4693
sg9
S'4.jpg.bin'
p4694
sa(dp4695
g6
F1.700483
sg7
S'723'
p4696
sg9
S'5.jpg.bin'
p4697
sa(dp4698
g6
F1.667692
sg7
S'324'
p4699
sg9
S'0.jpg.bin'
p4700
sa(dp4701
g6
F1.332603
sg7
S'289'
p4702
sg9
S'3.jpg.bin'
p4703
sa(dp4704
g6
F1.088743
sg7
S'93'
p4705
sg9
S'6.jpg.bin'
p4706
sa(dp4707
g6
F0.92264000000000002
sg7
S'491'
p4708
sg9
S'3.jpg.bin'
p4709
sa(dp4710
g6
F0.76783199999999996
sg7
S'694'
p4711
sg9
S'4_noplate.jpg.bin'
p4712
sa(dp4713
g6
F0.66649400000000003
sg7
S'357'
p4714
sg9
S'0_noplate.jpg.bin'
p4715
sa(dp4716
g6
F0.63488800000000001
sg7
S'954'
p4717
sg9
S'6_noplate.jpg.bin'
p4718
sa(dp4719
g6
F0.55198499999999995
sg7
S'64'
p4720
sg9
S'4.jpg.bin'
p4721
sa(dp4722
g6
F0.53444100000000005
sg7
S'228'
p4723
sg9
S'1_noplate.jpg.bin'
p4724
sasg7
S'83'
p4725
sg9
S'2_noplate.jpg.bin'
p4726
sa(dp4727
g3
(lp4728
(dp4729
g6
F3.9038050000000002
sg7
S'858'
p4730
sg9
S'1.jpg.bin'
p4731
sa(dp4732
g6
F3.8776660000000001
sg7
S'555'
p4733
sg9
S'3_noplate.jpg.bin'
p4734
sa(dp4735
g6
F3.7542439999999999
sg7
S'149'
p4736
sg9
S'4.jpg.bin'
p4737
sa(dp4738
g6
F3.449808
sg7
S'542'
p4739
sg9
S'3.jpg.bin'
p4740
sa(dp4741
g6
F3.1872120000000002
sg7
S'71'
p4742
sg9
S'2_noplate.jpg.bin'
p4743
sa(dp4744
g6
F3.0257000000000001
sg7
S'855'
p4745
sg9
S'0_noplate.jpg.bin'
p4746
sa(dp4747
g6
F3.0207519999999999
sg7
S'816'
p4748
sg9
S'1.jpg.bin'
p4749
sa(dp4750
g6
F2.8240050000000001
sg7
S'472'
p4751
sg9
S'3.jpg.bin'
p4752
sa(dp4753
g6
F2.7369460000000001
sg7
S'534'
p4754
sg9
S'5.jpg.bin'
p4755
sa(dp4756
g6
F2.5231170000000001
sg7
S'774'
p4757
sg9
S'4.jpg.bin'
p4758
sa(dp4759
g6
F2.389608
sg7
S'412'
p4760
sg9
S'6.jpg.bin'
p4761
sa(dp4762
g6
F2.3228170000000001
sg7
S'381'
p4763
sg9
S'2.jpg.bin'
p4764
sa(dp4765
g6
F2.2156579999999999
sg7
S'518'
p4766
sg9
S'4.jpg.bin'
p4767
sa(dp4768
g6
F2.1708639999999999
sg7
S'682'
p4769
sg9
S'7.jpg.bin'
p4770
sa(dp4771
g6
F2.1213090000000001
sg7
S'758'
p4772
sg9
S'0_noplate.jpg.bin'
p4773
sa(dp4774
g6
F1.8737159999999999
sg7
S'112'
p4775
sg9
S'3_noplate.jpg.bin'
p4776
sa(dp4777
g6
F1.8544959999999999
sg7
S'814'
p4778
sg9
S'2_noplate.jpg.bin'
p4779
sa(dp4780
g6
F1.642218
sg7
S'116'
p4781
sg9
S'1_noplate.jpg.bin'
p4782
sa(dp4783
g6
F1.5979840000000001
sg7
S'891'
p4784
sg9
S'3.jpg.bin'
p4785
sa(dp4786
g6
F1.531712
sg7
S'125'
p4787
sg9
S'7.jpg.bin'
p4788
sasg7
S'71'
p4789
sg9
S'10.jpg.bin'
p4790
sa(dp4791
g3
(lp4792
(dp4793
g6
F11.231244999999999
sg7
S'483'
p4794
sg9
S'1_noplate.jpg.bin'
p4795
sa(dp4796
g6
F7.8440459999999996
sg7
S'17'
p4797
sg9
S'2_noplate.jpg.bin'
p4798
sa(dp4799
g6
F7.3627830000000003
sg7
S'53'
p4800
sg9
S'4.jpg.bin'
p4801
sa(dp4802
g6
F5.05999
sg7
S'109'
p4803
sg9
S'4_noplate.jpg.bin'
p4804
sa(dp4805
g6
F4.7569600000000003
sg7
S'96'
p4806
sg9
S'1.jpg.bin'
p4807
sa(dp4808
g6
F2.9566859999999999
sg7
S'798'
p4809
sg9
S'0_noplate.jpg.bin'
p4810
sa(dp4811
g6
F2.5996839999999999
sg7
S'154'
p4812
sg9
S'3.jpg.bin'
p4813
sa(dp4814
g6
F2.5529920000000002
sg7
S'28'
p4815
sg9
S'4_noplate.jpg.bin'
p4816
sa(dp4817
g6
F1.686375
sg7
S'550'
p4818
sg9
S'0.jpg.bin'
p4819
sa(dp4820
g6
F1.6447259999999999
sg7
S'424'
p4821
sg9
S'3_noplate.jpg.bin'
p4822
sa(dp4823
g6
F1.603111
sg7
S'756'
p4824
sg9
S'6.jpg.bin'
p4825
sa(dp4826
g6
F1.1709879999999999
sg7
S'949'
p4827
sg9
S'3_noplate.jpg.bin'
p4828
sa(dp4829
g6
F0.88796600000000003
sg7
S'264'
p4830
sg9
S'0.jpg.bin'
p4831
sa(dp4832
g6
F0.87680400000000003
sg7
S'975'
p4833
sg9
S'5_noplate.jpg.bin'
p4834
sa(dp4835
g6
F0.86988100000000002
sg7
S'981'
p4836
sg9
S'9_noplate.jpg.bin'
p4837
sa(dp4838
g6
F0.66723100000000002
sg7
S'870'
p4839
sg9
S'2_noplate.jpg.bin'
p4840
sa(dp4841
g6
F0.65803500000000004
sg7
S'13'
p4842
sg9
S'5.jpg.bin'
p4843
sa(dp4844
g6
F0.65771100000000005
sg7
S'539'
p4845
sg9
S'3.jpg.bin'
p4846
sa(dp4847
g6
F0.39843600000000001
sg7
S'20'
p4848
sg9
S'4.jpg.bin'
p4849
sa(dp4850
g6
F0.13017100000000001
sg7
S'255'
p4851
sg9
S'1_noplate.jpg.bin'
p4852
sasg7
S'17'
p4853
sg9
S'0.jpg.bin'
p4854
sa(dp4855
g3
(lp4856
(dp4857
g6
F10.347906
sg7
S'839'
p4858
sg9
S'3_noplate.jpg.bin'
p4859
sa(dp4860
g6
F8.825863
sg7
S'448'
p4861
sg9
S'3.jpg.bin'
p4862
sa(dp4863
g6
F7.6197850000000003
sg7
S'3'
sg9
S'1_noplate.jpg.bin'
p4864
sa(dp4865
g6
F6.3221819999999997
sg7
S'103'
p4866
sg9
S'3_noplate.jpg.bin'
p4867
sa(dp4868
g6
F6.0514140000000003
sg7
S'648'
p4869
sg9
S'2.jpg.bin'
p4870
sa(dp4871
g6
F5.5805610000000003
sg7
S'405'
p4872
sg9
S'9_noplate.jpg.bin'
p4873
sa(dp4874
g6
F5.3631380000000002
sg7
S'229'
p4875
sg9
S'3_noplate.jpg.bin'
p4876
sa(dp4877
g6
F5.1865829999999997
sg7
S'557'
p4878
sg9
S'8_noplate.jpg.bin'
p4879
sa(dp4880
g6
F4.5879539999999999
sg7
S'885'
p4881
sg9
S'4.jpg.bin'
p4882
sa(dp4883
g6
F3.6196269999999999
sg7
S'246'
p4884
sg9
S'4_noplate.jpg.bin'
p4885
sa(dp4886
g6
F2.6261019999999999
sg7
S'614'
p4887
sg9
S'4_noplate.jpg.bin'
p4888
sa(dp4889
g6
F2.5763150000000001
sg7
S'254'
p4890
sg9
S'1.jpg.bin'
p4891
sa(dp4892
g6
F2.4850409999999998
sg7
S'519'
p4893
sg9
S'3.jpg.bin'
p4894
sa(dp4895
g6
F2.1358640000000002
sg7
S'544'
p4896
sg9
S'2.jpg.bin'
p4897
sa(dp4898
g6
F1.8305640000000001
sg7
S'830'
p4899
sg9
S'0.jpg.bin'
p4900
sa(dp4901
g6
F1.7664869999999999
sg7
S'694'
p4902
sg9
S'4_noplate.jpg.bin'
p4903
sa(dp4904
g6
F1.614876
sg7
S'137'
p4905
sg9
S'3.jpg.bin'
p4906
sa(dp4907
g6
F1.539085
sg7
S'491'
p4908
sg9
S'3.jpg.bin'
p4909
sa(dp4910
g6
F1.4306030000000001
sg7
S'592'
p4911
sg9
S'3.jpg.bin'
p4912
sa(dp4913
g6
F1.119713
sg7
S'418'
p4914
sg9
S'3_noplate.jpg.bin'
p4915
sasg7
S'3'
sg9
S'4.jpg.bin'
p4916
sa(dp4917
g3
(lp4918
(dp4919
g6
F5.5632669999999997
sg7
S'802'
p4920
sg9
S'0.jpg.bin'
p4921
sa(dp4922
g6
F4.8936679999999999
sg7
S'479'
p4923
sg9
S'0_noplate.jpg.bin'
p4924
sa(dp4925
g6
F4.7605899999999997
sg7
S'113'
p4926
sg9
S'11.jpg.bin'
p4927
sa(dp4928
g6
F4.6180580000000004
sg7
S'291'
p4929
sg9
S'7_noplate.jpg.bin'
p4930
sa(dp4931
g6
F4.268491
sg7
S'636'
p4932
sg9
S'0_noplate.jpg.bin'
p4933
sa(dp4934
g6
F4.1851250000000002
sg7
S'931'
p4935
sg9
S'5_noplate.jpg.bin'
p4936
sa(dp4937
g6
F3.9793949999999998
sg7
S'63'
p4938
sg9
S'4.jpg.bin'
p4939
sa(dp4940
g6
F3.869367
sg7
S'587'
p4941
sg9
S'3_noplate.jpg.bin'
p4942
sa(dp4943
g6
F3.8672819999999999
sg7
S'238'
p4944
sg9
S'1_noplate.jpg.bin'
p4945
sa(dp4946
g6
F3.8617360000000001
sg7
S'647'
p4947
sg9
S'2.jpg.bin'
p4948
sa(dp4949
g6
F3.797228
sg7
S'437'
p4950
sg9
S'5.jpg.bin'
p4951
sa(dp4952
g6
F3.6866680000000001
sg7
S'991'
p4953
sg9
S'4_noplate.jpg.bin'
p4954
sa(dp4955
g6
F3.3304480000000001
sg7
S'296'
p4956
sg9
S'3_noplate.jpg.bin'
p4957
sa(dp4958
g6
F3.2776869999999998
sg7
S'65'
p4959
sg9
S'1.jpg.bin'
p4960
sa(dp4961
g6
F3.2607590000000002
sg7
S'204'
p4962
sg9
S'3_noplate.jpg.bin'
p4963
sa(dp4964
g6
F3.195967
sg7
S'732'
p4965
sg9
S'3.jpg.bin'
p4966
sa(dp4967
g6
F3.1044960000000001
sg7
S'81'
p4968
sg9
S'1.jpg.bin'
p4969
sa(dp4970
g6
F3.0870380000000002
sg7
S'834'
p4971
sg9
S'2_noplate.jpg.bin'
p4972
sa(dp4973
g6
F2.9564460000000001
sg7
S'543'
p4974
sg9
S'7.jpg.bin'
p4975
sa(dp4976
g6
F2.9284840000000001
sg7
S'152'
p4977
sg9
S'7.jpg.bin'
p4978
sasg7
S'25'
p4979
sg9
S'5_noplate.jpg.bin'
p4980
sa(dp4981
g3
(lp4982
(dp4983
g6
F6.8061179999999997
sg7
S'194'
p4984
sg9
S'5.jpg.bin'
p4985
sa(dp4986
g6
F4.3934689999999996
sg7
S'855'
p4987
sg9
S'0_noplate.jpg.bin'
p4988
sa(dp4989
g6
F2.8710939999999998
sg7
S'207'
p4990
sg9
S'5_noplate.jpg.bin'
p4991
sa(dp4992
g6
F2.832376
sg7
S'516'
p4993
sg9
S'6.jpg.bin'
p4994
sa(dp4995
g6
F2.6730879999999999
sg7
S'615'
p4996
sg9
S'4.jpg.bin'
p4997
sa(dp4998
g6
F2.491358
sg7
S'175'
p4999
sg9
S'3_noplate.jpg.bin'
p5000
sa(dp5001
g6
F2.4469590000000001
sg7
S'958'
p5002
sg9
S'17.jpg.bin'
p5003
sa(dp5004
g6
F2.4255390000000001
sg7
S'453'
p5005
sg9
S'0.jpg.bin'
p5006
sa(dp5007
g6
F2.3990019999999999
sg7
S'577'
p5008
sg9
S'2.jpg.bin'
p5009
sa(dp5010
g6
F2.343906
sg7
S'580'
p5011
sg9
S'2.jpg.bin'
p5012
sa(dp5013
g6
F2.216631
sg7
S'192'
p5014
sg9
S'1.jpg.bin'
p5015
sa(dp5016
g6
F2.1312790000000001
sg7
S'126'
p5017
sg9
S'1.jpg.bin'
p5018
sa(dp5019
g6
F2.044025
sg7
S'518'
p5020
sg9
S'4.jpg.bin'
p5021
sa(dp5022
g6
F2.0426669999999998
sg7
S'789'
p5023
sg9
S'5_noplate.jpg.bin'
p5024
sa(dp5025
g6
F1.9263170000000001
sg7
S'462'
p5026
sg9
S'0_noplate.jpg.bin'
p5027
sa(dp5028
g6
F1.753954
sg7
S'275'
p5029
sg9
S'0.jpg.bin'
p5030
sa(dp5031
g6
F1.580635
sg7
S'699'
p5032
sg9
S'2_noplate.jpg.bin'
p5033
sa(dp5034
g6
F1.5036389999999999
sg7
S'727'
p5035
sg9
S'16_noplate.jpg.bin'
p5036
sa(dp5037
g6
F1.3767910000000001
sg7
S'737'
p5038
sg9
S'4_noplate.jpg.bin'
p5039
sa(dp5040
g6
F1.353281
sg7
S'720'
p5041
sg9
S'2.jpg.bin'
p5042
sasg7
S'43'
p5043
sg9
S'0.jpg.bin'
p5044
sa(dp5045
g3
(lp5046
(dp5047
g6
F9.8857479999999995
sg7
S'66'
p5048
sg9
S'1.jpg.bin'
p5049
sa(dp5050
g6
F5.0470030000000001
sg7
S'676'
p5051
sg9
S'4_noplate.jpg.bin'
p5052
sa(dp5053
g6
F4.1967540000000003
sg7
S'779'
p5054
sg9
S'4_noplate.jpg.bin'
p5055
sa(dp5056
g6
F3.7644139999999999
sg7
S'707'
p5057
sg9
S'2.jpg.bin'
p5058
sa(dp5059
g6
F3.2039339999999998
sg7
S'672'
p5060
sg9
S'7.jpg.bin'
p5061
sa(dp5062
g6
F2.9187069999999999
sg7
S'367'
p5063
sg9
S'3.jpg.bin'
p5064
sa(dp5065
g6
F2.7115689999999999
sg7
S'634'
p5066
sg9
S'1_noplate.jpg.bin'
p5067
sa(dp5068
g6
F2.6142099999999999
sg7
S'139'
p5069
sg9
S'1_noplate.jpg.bin'
p5070
sa(dp5071
g6
F2.222496
sg7
S'870'
p5072
sg9
S'2_noplate.jpg.bin'
p5073
sa(dp5074
g6
F2.1546590000000001
sg7
S'657'
p5075
sg9
S'1.jpg.bin'
p5076
sa(dp5077
g6
F2.1152319999999998
sg7
S'987'
p5078
sg9
S'5_noplate.jpg.bin'
p5079
sa(dp5080
g6
F2.074919
sg7
S'952'
p5081
sg9
S'3.jpg.bin'
p5082
sa(dp5083
g6
F2.040934
sg7
S'349'
p5084
sg9
S'1.jpg.bin'
p5085
sa(dp5086
g6
F1.7603470000000001
sg7
S'954'
p5087
sg9
S'6_noplate.jpg.bin'
p5088
sa(dp5089
g6
F1.6071949999999999
sg7
S'749'
p5090
sg9
S'5.jpg.bin'
p5091
sa(dp5092
g6
F1.5002139999999999
sg7
S'811'
p5093
sg9
S'6.jpg.bin'
p5094
sa(dp5095
g6
F1.308638
sg7
S'434'
p5096
sg9
S'1.jpg.bin'
p5097
sa(dp5098
g6
F1.1284540000000001
sg7
S'60'
p5099
sg9
S'3.jpg.bin'
p5100
sa(dp5101
g6
F1.106144
sg7
S'736'
p5102
sg9
S'0.jpg.bin'
p5103
sa(dp5104
g6
F0.89127900000000004
sg7
S'145'
p5105
sg9
S'3_noplate.jpg.bin'
p5106
sasg7
S'66'
p5107
sg9
S'0_noplate.jpg.bin'
p5108
sa(dp5109
g3
(lp5110
(dp5111
g6
F5.449484
sg7
S'775'
p5112
sg9
S'1_noplate.jpg.bin'
p5113
sa(dp5114
g6
F5.0910339999999996
sg7
S'289'
p5115
sg9
S'3.jpg.bin'
p5116
sa(dp5117
g6
F4.4244789999999998
sg7
S'872'
p5118
sg9
S'8.jpg.bin'
p5119
sa(dp5120
g6
F4.1492940000000003
sg7
S'24'
p5121
sg9
S'4.jpg.bin'
p5122
sa(dp5123
g6
F3.7273670000000001
sg7
S'617'
p5124
sg9
S'6.jpg.bin'
p5125
sa(dp5126
g6
F3.7241499999999998
sg7
S'911'
p5127
sg9
S'8.jpg.bin'
p5128
sa(dp5129
g6
F3.548737
sg7
S'333'
p5130
sg9
S'0.jpg.bin'
p5131
sa(dp5132
g6
F3.5256820000000002
sg7
S'480'
p5133
sg9
S'5_noplate.jpg.bin'
p5134
sa(dp5135
g6
F3.185038
sg7
S'768'
p5136
sg9
S'4_noplate.jpg.bin'
p5137
sa(dp5138
g6
F3.1552750000000001
sg7
S'433'
p5139
sg9
S'2.jpg.bin'
p5140
sa(dp5141
g6
F3.119745
sg7
S'619'
p5142
sg9
S'3.jpg.bin'
p5143
sa(dp5144
g6
F3.1033309999999998
sg7
S'840'
p5145
sg9
S'2.jpg.bin'
p5146
sa(dp5147
g6
F3.0445060000000002
sg7
S'28'
p5148
sg9
S'4_noplate.jpg.bin'
p5149
sa(dp5150
g6
F3.0024220000000001
sg7
S'759'
p5151
sg9
S'6_noplate.jpg.bin'
p5152
sa(dp5153
g6
F2.959803
sg7
S'562'
p5154
sg9
S'3.jpg.bin'
p5155
sa(dp5156
g6
F2.9363709999999998
sg7
S'464'
p5157
sg9
S'3.jpg.bin'
p5158
sa(dp5159
g6
F2.8791869999999999
sg7
S'214'
p5160
sg9
S'3.jpg.bin'
p5161
sa(dp5162
g6
F2.8692890000000002
sg7
S'2'
sg9
S'4.jpg.bin'
p5163
sa(dp5164
g6
F2.867496
sg7
S'935'
p5165
sg9
S'1.jpg.bin'
p5166
sa(dp5167
g6
F2.7436259999999999
sg7
S'550'
p5168
sg9
S'0.jpg.bin'
p5169
sasg7
S'24'
p5170
sg9
S'2_noplate.jpg.bin'
p5171
sa(dp5172
g3
(lp5173
(dp5174
g6
F8.8693600000000004
sg7
S'93'
p5175
sg9
S'6.jpg.bin'
p5176
sa(dp5177
g6
F5.6614089999999999
sg7
S'927'
p5178
sg9
S'7.jpg.bin'
p5179
sa(dp5180
g6
F5.4834370000000003
sg7
S'576'
p5181
sg9
S'0_noplate.jpg.bin'
p5182
sa(dp5183
g6
F5.3667129999999998
sg7
S'187'
p5184
sg9
S'0_noplate.jpg.bin'
p5185
sa(dp5186
g6
F4.8197770000000002
sg7
S'382'
p5187
sg9
S'7.jpg.bin'
p5188
sa(dp5189
g6
F4.5832199999999998
sg7
S'979'
p5190
sg9
S'8_noplate.jpg.bin'
p5191
sa(dp5192
g6
F4.2681329999999997
sg7
S'610'
p5193
sg9
S'2_noplate.jpg.bin'
p5194
sa(dp5195
g6
F3.7961830000000001
sg7
S'332'
p5196
sg9
S'5_noplate.jpg.bin'
p5197
sa(dp5198
g6
F3.730137
sg7
S'416'
p5199
sg9
S'3_noplate.jpg.bin'
p5200
sa(dp5201
g6
F3.7047249999999998
sg7
S'374'
p5202
sg9
S'2.jpg.bin'
p5203
sa(dp5204
g6
F3.6433450000000001
sg7
S'826'
p5205
sg9
S'4.jpg.bin'
p5206
sa(dp5207
g6
F3.3390029999999999
sg7
S'603'
p5208
sg9
S'5.jpg.bin'
p5209
sa(dp5210
g6
F3.3029350000000002
sg7
S'83'
p5211
sg9
S'3_noplate.jpg.bin'
p5212
sa(dp5213
g6
F3.1099429999999999
sg7
S'415'
p5214
sg9
S'4.jpg.bin'
p5215
sa(dp5216
g6
F3.0226540000000002
sg7
S'860'
p5217
sg9
S'1.jpg.bin'
p5218
sa(dp5219
g6
F2.8501259999999999
sg7
S'983'
p5220
sg9
S'2.jpg.bin'
p5221
sa(dp5222
g6
F2.7362099999999998
sg7
S'628'
p5223
sg9
S'2.jpg.bin'
p5224
sa(dp5225
g6
F2.609934
sg7
S'389'
p5226
sg9
S'5_noplate.jpg.bin'
p5227
sa(dp5228
g6
F2.588562
sg7
S'988'
p5229
sg9
S'4.jpg.bin'
p5230
sa(dp5231
g6
F2.522659
sg7
S'869'
p5232
sg9
S'10_noplate.jpg.bin'
p5233
sasg7
S'93'
p5234
sg9
S'5.jpg.bin'
p5235
sa(dp5236
g3
(lp5237
(dp5238
g6
F4.5314730000000001
sg7
S'357'
p5239
sg9
S'0_noplate.jpg.bin'
p5240
sa(dp5241
g6
F3.771547
sg7
S'765'
p5242
sg9
S'1_noplate.jpg.bin'
p5243
sa(dp5244
g6
F3.7667350000000002
sg7
S'980'
p5245
sg9
S'2_noplate.jpg.bin'
p5246
sa(dp5247
g6
F3.6906889999999999
sg7
S'476'
p5248
sg9
S'2.jpg.bin'
p5249
sa(dp5250
g6
F3.2503220000000002
sg7
S'212'
p5251
sg9
S'0.jpg.bin'
p5252
sa(dp5253
g6
F3.220682
sg7
S'819'
p5254
sg9
S'2_noplate.jpg.bin'
p5255
sa(dp5256
g6
F3.2088549999999998
sg7
S'133'
p5257
sg9
S'3.jpg.bin'
p5258
sa(dp5259
g6
F3.037792
sg7
S'436'
p5260
sg9
S'11_noplate.jpg.bin'
p5261
sa(dp5262
g6
F3.0334340000000002
sg7
S'685'
p5263
sg9
S'3_noplate.jpg.bin'
p5264
sa(dp5265
g6
F3.0212189999999999
sg7
S'841'
p5266
sg9
S'1.jpg.bin'
p5267
sa(dp5268
g6
F2.8804949999999998
sg7
S'702'
p5269
sg9
S'7_noplate.jpg.bin'
p5270
sa(dp5271
g6
F2.8580779999999999
sg7
S'360'
p5272
sg9
S'2.jpg.bin'
p5273
sa(dp5274
g6
F2.79826
sg7
S'136'
p5275
sg9
S'2_noplate.jpg.bin'
p5276
sa(dp5277
g6
F2.7671679999999999
sg7
S'721'
p5278
sg9
S'6.jpg.bin'
p5279
sa(dp5280
g6
F2.673489
sg7
S'228'
p5281
sg9
S'1_noplate.jpg.bin'
p5282
sa(dp5283
g6
F2.6240839999999999
sg7
S'339'
p5284
sg9
S'4_noplate.jpg.bin'
p5285
sa(dp5286
g6
F2.5682299999999998
sg7
S'225'
p5287
sg9
S'3.jpg.bin'
p5288
sa(dp5289
g6
F2.4801350000000002
sg7
S'769'
p5290
sg9
S'1.jpg.bin'
p5291
sa(dp5292
g6
F2.43519
sg7
S'988'
p5293
sg9
S'4.jpg.bin'
p5294
sa(dp5295
g6
F2.3744049999999999
sg7
S'491'
p5296
sg9
S'3.jpg.bin'
p5297
sasg7
S'60'
p5298
sg9
S'4.jpg.bin'
p5299
sa(dp5300
g3
(lp5301
(dp5302
g6
F4.1347290000000001
sg7
S'415'
p5303
sg9
S'4.jpg.bin'
p5304
sa(dp5305
g6
F3.8164690000000001
sg7
S'841'
p5306
sg9
S'1.jpg.bin'
p5307
sa(dp5308
g6
F3.3586960000000001
sg7
S'927'
p5309
sg9
S'7.jpg.bin'
p5310
sa(dp5311
g6
F3.3108710000000001
sg7
S'93'
p5312
sg9
S'6.jpg.bin'
p5313
sa(dp5314
g6
F3.2629950000000001
sg7
S'13'
p5315
sg9
S'5.jpg.bin'
p5316
sa(dp5317
g6
F2.8944070000000002
sg7
S'410'
p5318
sg9
S'3_noplate.jpg.bin'
p5319
sa(dp5320
g6
F2.846991
sg7
S'183'
p5321
sg9
S'4_noplate.jpg.bin'
p5322
sa(dp5323
g6
F2.8274460000000001
sg7
S'464'
p5324
sg9
S'3.jpg.bin'
p5325
sa(dp5326
g6
F2.581779
sg7
S'664'
p5327
sg9
S'3_noplate.jpg.bin'
p5328
sa(dp5329
g6
F2.5660020000000001
sg7
S'505'
p5330
sg9
S'3_noplate.jpg.bin'
p5331
sa(dp5332
g6
F2.5425049999999998
sg7
S'612'
p5333
sg9
S'0_noplate.jpg.bin'
p5334
sa(dp5335
g6
F2.4815879999999999
sg7
S'475'
p5336
sg9
S'1.jpg.bin'
p5337
sa(dp5338
g6
F2.4571420000000002
sg7
S'889'
p5339
sg9
S'0.jpg.bin'
p5340
sa(dp5341
g6
F2.3962840000000001
sg7
S'685'
p5342
sg9
S'3_noplate.jpg.bin'
p5343
sa(dp5344
g6
F2.3326850000000001
sg7
S'147'
p5345
sg9
S'0_noplate.jpg.bin'
p5346
sa(dp5347
g6
F2.0680269999999998
sg7
S'628'
p5348
sg9
S'2.jpg.bin'
p5349
sa(dp5350
g6
F1.8172779999999999
sg7
S'979'
p5351
sg9
S'8_noplate.jpg.bin'
p5352
sa(dp5353
g6
F1.799007
sg7
S'366'
p5354
sg9
S'0.jpg.bin'
p5355
sa(dp5356
g6
F1.6309009999999999
sg7
S'783'
p5357
sg9
S'4_noplate.jpg.bin'
p5358
sa(dp5359
g6
F1.601486
sg7
S'387'
p5360
sg9
S'2_noplate.jpg.bin'
p5361
sasg7
S'13'
p5362
sg9
S'0.jpg.bin'
p5363
sa(dp5364
g3
(lp5365
(dp5366
g6
F3.6435789999999999
sg7
S'15'
p5367
sg9
S'9.jpg.bin'
p5368
sa(dp5369
g6
F1.1324920000000001
sg7
S'375'
p5370
sg9
S'5.jpg.bin'
p5371
sa(dp5372
g6
F0.86459699999999995
sg7
S'90'
p5373
sg9
S'1_noplate.jpg.bin'
p5374
sa(dp5375
g6
F0.66625400000000001
sg7
S'378'
p5376
sg9
S'6_noplate.jpg.bin'
p5377
sa(dp5378
g6
F0.41347299999999998
sg7
S'108'
p5379
sg9
S'1.jpg.bin'
p5380
sa(dp5381
g6
F0.38815699999999997
sg7
S'608'
p5382
sg9
S'2.jpg.bin'
p5383
sa(dp5384
g6
F0.353848
sg7
S'674'
p5385
sg9
S'1_noplate.jpg.bin'
p5386
sa(dp5387
g6
F0.13988300000000001
sg7
S'353'
p5388
sg9
S'4.jpg.bin'
p5389
sa(dp5390
g6
F0.036374999999999998
sg7
S'910'
p5391
sg9
S'35.jpg.bin'
p5392
sa(dp5393
g6
F-0.023958
sg7
S'876'
p5394
sg9
S'21_noplate.jpg.bin'
p5395
sa(dp5396
g6
F-0.095848000000000003
sg7
S'551'
p5397
sg9
S'9.jpg.bin'
p5398
sa(dp5399
g6
F-0.151754
sg7
S'312'
p5400
sg9
S'6_noplate.jpg.bin'
p5401
sa(dp5402
g6
F-0.30780000000000002
sg7
S'891'
p5403
sg9
S'3.jpg.bin'
p5404
sa(dp5405
g6
F-0.50016000000000005
sg7
S'930'
p5406
sg9
S'7_noplate.jpg.bin'
p5407
sa(dp5408
g6
F-0.51773499999999995
sg7
S'611'
p5409
sg9
S'4_noplate.jpg.bin'
p5410
sa(dp5411
g6
F-0.58218999999999999
sg7
S'510'
p5412
sg9
S'4.jpg.bin'
p5413
sa(dp5414
g6
F-0.798983
sg7
S'542'
p5415
sg9
S'3.jpg.bin'
p5416
sa(dp5417
g6
F-0.949295
sg7
S'243'
p5418
sg9
S'1.jpg.bin'
p5419
sa(dp5420
g6
F-0.95462599999999997
sg7
S'813'
p5421
sg9
S'9.jpg.bin'
p5422
sa(dp5423
g6
F-1.241922
sg7
S'71'
p5424
sg9
S'2_noplate.jpg.bin'
p5425
sasg7
S'15'
p5426
sg9
S'8.jpg.bin'
p5427
sa(dp5428
g3
(lp5429
(dp5430
g6
F4.051901
sg7
S'64'
p5431
sg9
S'4.jpg.bin'
p5432
sa(dp5433
g6
F2.3435480000000002
sg7
S'562'
p5434
sg9
S'3.jpg.bin'
p5435
sa(dp5436
g6
F2.3225989999999999
sg7
S'592'
p5437
sg9
S'3.jpg.bin'
p5438
sa(dp5439
g6
F2.11219
sg7
S'422'
p5440
sg9
S'2_noplate.jpg.bin'
p5441
sa(dp5442
g6
F2.0371069999999998
sg7
S'954'
p5443
sg9
S'6_noplate.jpg.bin'
p5444
sa(dp5445
g6
F1.5133479999999999
sg7
S'696'
p5446
sg9
S'1_noplate.jpg.bin'
p5447
sa(dp5448
g6
F1.4458789999999999
sg7
S'198'
p5449
sg9
S'0.jpg.bin'
p5450
sa(dp5451
g6
F1.281652
sg7
S'870'
p5452
sg9
S'2_noplate.jpg.bin'
p5453
sa(dp5454
g6
F1.2112560000000001
sg7
S'810'
p5455
sg9
S'4_noplate.jpg.bin'
p5456
sa(dp5457
g6
F1.180056
sg7
S'865'
p5458
sg9
S'0.jpg.bin'
p5459
sa(dp5460
g6
F1.157646
sg7
S'264'
p5461
sg9
S'0.jpg.bin'
p5462
sa(dp5463
g6
F1.144825
sg7
S'723'
p5464
sg9
S'5.jpg.bin'
p5465
sa(dp5466
g6
F1.1241699999999999
sg7
S'935'
p5467
sg9
S'1.jpg.bin'
p5468
sa(dp5469
g6
F1.1013029999999999
sg7
S'434'
p5470
sg9
S'1.jpg.bin'
p5471
sa(dp5472
g6
F1.089445
sg7
S'110'
p5473
sg9
S'2.jpg.bin'
p5474
sa(dp5475
g6
F0.93426100000000001
sg7
S'831'
p5476
sg9
S'3_noplate.jpg.bin'
p5477
sa(dp5478
g6
F0.88830600000000004
sg7
S'23'
p5479
sg9
S'5_noplate.jpg.bin'
p5480
sa(dp5481
g6
F0.48850399999999999
sg7
S'749'
p5482
sg9
S'5.jpg.bin'
p5483
sa(dp5484
g6
F0.43737999999999999
sg7
S'744'
p5485
sg9
S'1.jpg.bin'
p5486
sa(dp5487
g6
F0.35657299999999997
sg7
S'550'
p5488
sg9
S'0.jpg.bin'
p5489
sasg7
S'64'
p5490
sg9
S'2_noplate.jpg.bin'
p5491
sa(dp5492
g3
(lp5493
(dp5494
g6
F5.9724560000000002
sg7
S'9'
sg9
S'3.jpg.bin'
p5495
sa(dp5496
g6
F4.8445109999999998
sg7
S'11'
p5497
sg9
S'5_noplate.jpg.bin'
p5498
sa(dp5499
g6
F3.7282350000000002
sg7
S'178'
p5500
sg9
S'7_noplate.jpg.bin'
p5501
sa(dp5502
g6
F2.471098
sg7
S'28'
p5503
sg9
S'4_noplate.jpg.bin'
p5504
sa(dp5505
g6
F1.59507
sg7
S'798'
p5506
sg9
S'0_noplate.jpg.bin'
p5507
sa(dp5508
g6
F1.331043
sg7
S'62'
p5509
sg9
S'3_noplate.jpg.bin'
p5510
sa(dp5511
g6
F1.1701220000000001
sg7
S'359'
p5512
sg9
S'3.jpg.bin'
p5513
sa(dp5514
g6
F1.133121
sg7
S'573'
p5515
sg9
S'2.jpg.bin'
p5516
sa(dp5517
g6
F1.0397339999999999
sg7
S'312'
p5518
sg9
S'6_noplate.jpg.bin'
p5519
sa(dp5520
g6
F0.990425
sg7
S'950'
p5521
sg9
S'3_noplate.jpg.bin'
p5522
sa(dp5523
g6
F0.96261799999999997
sg7
S'96'
p5524
sg9
S'1.jpg.bin'
p5525
sa(dp5526
g6
F0.92135999999999996
sg7
S'262'
p5527
sg9
S'1_noplate.jpg.bin'
p5528
sa(dp5529
g6
F0.64554599999999995
sg7
S'949'
p5530
sg9
S'3_noplate.jpg.bin'
p5531
sa(dp5532
g6
F0.628386
sg7
S'629'
p5533
sg9
S'3_noplate.jpg.bin'
p5534
sa(dp5535
g6
F0.47488999999999998
sg7
S'854'
p5536
sg9
S'4_noplate.jpg.bin'
p5537
sa(dp5538
g6
F0.35770200000000002
sg7
S'301'
p5539
sg9
S'0_noplate.jpg.bin'
p5540
sa(dp5541
g6
F0.34091900000000003
sg7
S'845'
p5542
sg9
S'0_noplate.jpg.bin'
p5543
sa(dp5544
g6
F-0.21678700000000001
sg7
S'264'
p5545
sg9
S'0.jpg.bin'
p5546
sa(dp5547
g6
F-0.22931099999999999
sg7
S'952'
p5548
sg9
S'3.jpg.bin'
p5549
sa(dp5550
g6
F-0.27827800000000003
sg7
S'870'
p5551
sg9
S'2_noplate.jpg.bin'
p5552
sasg7
S'11'
p5553
sg9
S'4.jpg.bin'
p5554
sa(dp5555
g3
(lp5556
(dp5557
g6
F15.524255999999999
sg7
S'33'
p5558
sg9
S'8.jpg.bin'
p5559
sa(dp5560
g6
F4.9536249999999997
sg7
S'104'
p5561
sg9
S'9_noplate.jpg.bin'
p5562
sa(dp5563
g6
F4.0322399999999998
sg7
S'108'
p5564
sg9
S'1.jpg.bin'
p5565
sa(dp5566
g6
F3.7493479999999999
sg7
S'336'
p5567
sg9
S'11.jpg.bin'
p5568
sa(dp5569
g6
F3.4678689999999999
sg7
S'355'
p5570
sg9
S'0_noplate.jpg.bin'
p5571
sa(dp5572
g6
F2.6062699999999999
sg7
S'302'
p5573
sg9
S'5.jpg.bin'
p5574
sa(dp5575
g6
F2.531158
sg7
S'930'
p5576
sg9
S'7_noplate.jpg.bin'
p5577
sa(dp5578
g6
F2.3123819999999999
sg7
S'844'
p5579
sg9
S'0_noplate.jpg.bin'
p5580
sa(dp5581
g6
F2.0139390000000001
sg7
S'312'
p5582
sg9
S'6_noplate.jpg.bin'
p5583
sa(dp5584
g6
F1.912123
sg7
S'10'
p5585
sg9
S'1.jpg.bin'
p5586
sa(dp5587
g6
F1.514788
sg7
S'880'
p5588
sg9
S'3_noplate.jpg.bin'
p5589
sa(dp5590
g6
F1.3667389999999999
sg7
S'757'
p5591
sg9
S'4_noplate.jpg.bin'
p5592
sa(dp5593
g6
F1.2758240000000001
sg7
S'856'
p5594
sg9
S'0.jpg.bin'
p5595
sa(dp5596
g6
F1.2692829999999999
sg7
S'148'
p5597
sg9
S'1.jpg.bin'
p5598
sa(dp5599
g6
F0.79657199999999995
sg7
S'903'
p5600
sg9
S'4.jpg.bin'
p5601
sa(dp5602
g6
F0.77574299999999996
sg7
S'73'
p5603
sg9
S'1.jpg.bin'
p5604
sa(dp5605
g6
F0.58198000000000005
sg7
S'577'
p5606
sg9
S'2.jpg.bin'
p5607
sa(dp5608
g6
F0.53512000000000004
sg7
S'276'
p5609
sg9
S'0_noplate.jpg.bin'
p5610
sa(dp5611
g6
F0.35311700000000001
sg7
S'518'
p5612
sg9
S'4.jpg.bin'
p5613
sa(dp5614
g6
F0.29262500000000002
sg7
S'392'
p5615
sg9
S'2.jpg.bin'
p5616
sasg7
S'33'
p5617
sg9
S'7.jpg.bin'
p5618
sa(dp5619
g3
(lp5620
(dp5621
g6
F3.7526130000000002
sg7
S'353'
p5622
sg9
S'4.jpg.bin'
p5623
sa(dp5624
g6
F3.6162339999999999
sg7
S'38'
p5625
sg9
S'7.jpg.bin'
p5626
sa(dp5627
g6
F2.9529019999999999
sg7
S'243'
p5628
sg9
S'1.jpg.bin'
p5629
sa(dp5630
g6
F2.452887
sg7
S'601'
p5631
sg9
S'9.jpg.bin'
p5632
sa(dp5633
g6
F2.0038390000000001
sg7
S'847'
p5634
sg9
S'9.jpg.bin'
p5635
sa(dp5636
g6
F1.8161769999999999
sg7
S'319'
p5637
sg9
S'4.jpg.bin'
p5638
sa(dp5639
g6
F1.7437689999999999
sg7
S'952'
p5640
sg9
S'3.jpg.bin'
p5641
sa(dp5642
g6
F1.6686019999999999
sg7
S'171'
p5643
sg9
S'4.jpg.bin'
p5644
sa(dp5645
g6
F1.322279
sg7
S'375'
p5646
sg9
S'5.jpg.bin'
p5647
sa(dp5648
g6
F1.3197350000000001
sg7
S'607'
p5649
sg9
S'3_noplate.jpg.bin'
p5650
sa(dp5651
g6
F1.2980959999999999
sg7
S'891'
p5652
sg9
S'3.jpg.bin'
p5653
sa(dp5654
g6
F1.07795
sg7
S'675'
p5655
sg9
S'4_noplate.jpg.bin'
p5656
sa(dp5657
g6
F1.0167619999999999
sg7
S'986'
p5658
sg9
S'6.jpg.bin'
p5659
sa(dp5660
g6
F0.98843199999999998
sg7
S'434'
p5661
sg9
S'1.jpg.bin'
p5662
sa(dp5663
g6
F0.89164399999999999
sg7
S'151'
p5664
sg9
S'3_noplate.jpg.bin'
p5665
sa(dp5666
g6
F0.53974
sg7
S'89'
p5667
sg9
S'4.jpg.bin'
p5668
sa(dp5669
g6
F0.46752199999999999
sg7
S'559'
p5670
sg9
S'8.jpg.bin'
p5671
sa(dp5672
g6
F0.37786700000000001
sg7
S'526'
p5673
sg9
S'18_noplate.jpg.bin'
p5674
sa(dp5675
g6
F0.12645899999999999
sg7
S'779'
p5676
sg9
S'4_noplate.jpg.bin'
p5677
sa(dp5678
g6
F-0.061987
sg7
S'573'
p5679
sg9
S'2.jpg.bin'
p5680
sasg7
S'38'
p5681
sg9
S'2_noplate.jpg.bin'
p5682
sa(dp5683
g3
(lp5684
(dp5685
g6
F5.1070919999999997
sg7
S'821'
p5686
sg9
S'2.jpg.bin'
p5687
sa(dp5688
g6
F3.8409819999999999
sg7
S'9'
sg9
S'3.jpg.bin'
p5689
sa(dp5690
g6
F3.7610549999999998
sg7
S'262'
p5691
sg9
S'1_noplate.jpg.bin'
p5692
sa(dp5693
g6
F3.6840760000000001
sg7
S'425'
p5694
sg9
S'1.jpg.bin'
p5695
sa(dp5696
g6
F2.9300730000000001
sg7
S'870'
p5697
sg9
S'2_noplate.jpg.bin'
p5698
sa(dp5699
g6
F2.4979170000000002
sg7
S'952'
p5700
sg9
S'3.jpg.bin'
p5701
sa(dp5702
g6
F2.4836939999999998
sg7
S'101'
p5703
sg9
S'3.jpg.bin'
p5704
sa(dp5705
g6
F2.3616679999999999
sg7
S'779'
p5706
sg9
S'4_noplate.jpg.bin'
p5707
sa(dp5708
g6
F2.3064770000000001
sg7
S'629'
p5709
sg9
S'3_noplate.jpg.bin'
p5710
sa(dp5711
g6
F2.1222439999999998
sg7
S'573'
p5712
sg9
S'2.jpg.bin'
p5713
sa(dp5714
g6
F1.9299139999999999
sg7
S'62'
p5715
sg9
S'3_noplate.jpg.bin'
p5716
sa(dp5717
g6
F1.9280219999999999
sg7
S'28'
p5718
sg9
S'4_noplate.jpg.bin'
p5719
sa(dp5720
g6
F1.8010429999999999
sg7
S'749'
p5721
sg9
S'5.jpg.bin'
p5722
sa(dp5723
g6
F1.8008789999999999
sg7
S'44'
p5724
sg9
S'1.jpg.bin'
p5725
sa(dp5726
g6
F1.7370190000000001
sg7
S'434'
p5727
sg9
S'1.jpg.bin'
p5728
sa(dp5729
g6
F1.7172829999999999
sg7
S'438'
p5730
sg9
S'1_noplate.jpg.bin'
p5731
sa(dp5732
g6
F1.4333
sg7
S'312'
p5733
sg9
S'6_noplate.jpg.bin'
p5734
sa(dp5735
g6
F1.023911
sg7
S'673'
p5736
sg9
S'1.jpg.bin'
p5737
sa(dp5738
g6
F0.970495
sg7
S'96'
p5739
sg9
S'1.jpg.bin'
p5740
sa(dp5741
g6
F0.65530600000000006
sg7
S'811'
p5742
sg9
S'6.jpg.bin'
p5743
sasg7
S'9'
sg9
S'4_noplate.jpg.bin'
p5744
sa(dp5745
g3
(lp5746
(dp5747
g6
F4.9043749999999999
sg7
S'523'
p5748
sg9
S'0_noplate.jpg.bin'
p5749
sa(dp5750
g6
F4.8331429999999997
sg7
S'956'
p5751
sg9
S'0_noplate.jpg.bin'
p5752
sa(dp5753
g6
F4.6568620000000003
sg7
S'843'
p5754
sg9
S'2_noplate.jpg.bin'
p5755
sa(dp5756
g6
F3.7667600000000001
sg7
S'404'
p5757
sg9
S'2.jpg.bin'
p5758
sa(dp5759
g6
F3.7584719999999998
sg7
S'493'
p5760
sg9
S'4_noplate.jpg.bin'
p5761
sa(dp5762
g6
F3.6765979999999998
sg7
S'924'
p5763
sg9
S'1_noplate.jpg.bin'
p5764
sa(dp5765
g6
F3.5183620000000002
sg7
S'923'
p5766
sg9
S'4_noplate.jpg.bin'
p5767
sa(dp5768
g6
F3.457497
sg7
S'443'
p5769
sg9
S'4.jpg.bin'
p5770
sa(dp5771
g6
F3.2558099999999999
sg7
S'87'
p5772
sg9
S'2.jpg.bin'
p5773
sa(dp5774
g6
F2.8357700000000001
sg7
S'34'
p5775
sg9
S'2_noplate.jpg.bin'
p5776
sa(dp5777
g6
F2.7625690000000001
sg7
S'810'
p5778
sg9
S'4_noplate.jpg.bin'
p5779
sa(dp5780
g6
F2.6485059999999998
sg7
S'792'
p5781
sg9
S'2_noplate.jpg.bin'
p5782
sa(dp5783
g6
F2.6234479999999998
sg7
S'939'
p5784
sg9
S'5_noplate.jpg.bin'
p5785
sa(dp5786
g6
F2.5587689999999998
sg7
S'22'
p5787
sg9
S'1.jpg.bin'
p5788
sa(dp5789
g6
F2.4372410000000002
sg7
S'127'
p5790
sg9
S'4_noplate.jpg.bin'
p5791
sa(dp5792
g6
F2.4261020000000002
sg7
S'989'
p5793
sg9
S'2.jpg.bin'
p5794
sa(dp5795
g6
F2.4204140000000001
sg7
S'467'
p5796
sg9
S'3_noplate.jpg.bin'
p5797
sa(dp5798
g6
F2.3725679999999998
sg7
S'782'
p5799
sg9
S'0_noplate.jpg.bin'
p5800
sa(dp5801
g6
F2.2508349999999999
sg7
S'335'
p5802
sg9
S'5_noplate.jpg.bin'
p5803
sa(dp5804
g6
F2.2390979999999998
sg7
S'80'
p5805
sg9
S'1_noplate.jpg.bin'
p5806
sasg7
S'22'
p5807
sg9
S'3_noplate.jpg.bin'
p5808
sa(dp5809
g3
(lp5810
(dp5811
g6
F11.811845
sg7
S'1'
sg9
S'2.jpg.bin'
p5812
sa(dp5813
g6
F5.7997740000000002
sg7
S'341'
p5814
sg9
S'3_noplate.jpg.bin'
p5815
sa(dp5816
g6
F5.0804349999999996
sg7
S'421'
p5817
sg9
S'1.jpg.bin'
p5818
sa(dp5819
g6
F3.6543060000000001
sg7
S'644'
p5820
sg9
S'4.jpg.bin'
p5821
sa(dp5822
g6
F3.3825319999999999
sg7
S'403'
p5823
sg9
S'2.jpg.bin'
p5824
sa(dp5825
g6
F3.3782519999999998
sg7
S'801'
p5826
sg9
S'9_noplate.jpg.bin'
p5827
sa(dp5828
g6
F3.0994109999999999
sg7
S'56'
p5829
sg9
S'3.jpg.bin'
p5830
sa(dp5831
g6
F2.9897399999999998
sg7
S'988'
p5832
sg9
S'4.jpg.bin'
p5833
sa(dp5834
g6
F2.8364180000000001
sg7
S'324'
p5835
sg9
S'0.jpg.bin'
p5836
sa(dp5837
g6
F2.7825869999999999
sg7
S'306'
p5838
sg9
S'3_noplate.jpg.bin'
p5839
sa(dp5840
g6
F2.750105
sg7
S'180'
p5841
sg9
S'5_noplate.jpg.bin'
p5842
sa(dp5843
g6
F2.7495560000000001
sg7
S'828'
p5844
sg9
S'3_noplate.jpg.bin'
p5845
sa(dp5846
g6
F2.4490850000000002
sg7
S'195'
p5847
sg9
S'4.jpg.bin'
p5848
sa(dp5849
g6
F2.4159600000000001
sg7
S'340'
p5850
sg9
S'3_noplate.jpg.bin'
p5851
sa(dp5852
g6
F2.3981509999999999
sg7
S'685'
p5853
sg9
S'3_noplate.jpg.bin'
p5854
sa(dp5855
g6
F2.3083969999999998
sg7
S'458'
p5856
sg9
S'4_noplate.jpg.bin'
p5857
sa(dp5858
g6
F2.2134779999999998
sg7
S'826'
p5859
sg9
S'4.jpg.bin'
p5860
sa(dp5861
g6
F2.1311819999999999
sg7
S'360'
p5862
sg9
S'2.jpg.bin'
p5863
sa(dp5864
g6
F1.822748
sg7
S'47'
p5865
sg9
S'3_noplate.jpg.bin'
p5866
sa(dp5867
g6
F1.8071140000000001
sg7
S'242'
p5868
sg9
S'0_noplate.jpg.bin'
p5869
sasg7
S'1'
sg9
S'5.jpg.bin'
p5870
sa(dp5871
g3
(lp5872
(dp5873
g6
F6.2747760000000001
sg7
S'800'
p5874
sg9
S'1_noplate.jpg.bin'
p5875
sa(dp5876
g6
F5.309151
sg7
S'310'
p5877
sg9
S'7_noplate.jpg.bin'
p5878
sa(dp5879
g6
F4.4249840000000003
sg7
S'253'
p5880
sg9
S'1.jpg.bin'
p5881
sa(dp5882
g6
F4.1447050000000001
sg7
S'443'
p5883
sg9
S'4.jpg.bin'
p5884
sa(dp5885
g6
F3.901043
sg7
S'165'
p5886
sg9
S'4_noplate.jpg.bin'
p5887
sa(dp5888
g6
F3.4784739999999998
sg7
S'18'
p5889
sg9
S'1_noplate.jpg.bin'
p5890
sa(dp5891
g6
F3.402771
sg7
S'79'
p5892
sg9
S'3_noplate.jpg.bin'
p5893
sa(dp5894
g6
F3.239779
sg7
S'824'
p5895
sg9
S'5.jpg.bin'
p5896
sa(dp5897
g6
F3.1943739999999998
sg7
S'792'
p5898
sg9
S'2_noplate.jpg.bin'
p5899
sa(dp5900
g6
F2.9878439999999999
sg7
S'107'
p5901
sg9
S'4.jpg.bin'
p5902
sa(dp5903
g6
F2.383883
sg7
S'962'
p5904
sg9
S'7_noplate.jpg.bin'
p5905
sa(dp5906
g6
F2.3786489999999998
sg7
S'631'
p5907
sg9
S'9_noplate.jpg.bin'
p5908
sa(dp5909
g6
F2.2662559999999998
sg7
S'211'
p5910
sg9
S'10.jpg.bin'
p5911
sa(dp5912
g6
F1.834406
sg7
S'209'
p5913
sg9
S'5_noplate.jpg.bin'
p5914
sa(dp5915
g6
F1.822613
sg7
S'326'
p5916
sg9
S'1.jpg.bin'
p5917
sa(dp5918
g6
F1.565437
sg7
S'358'
p5919
sg9
S'6.jpg.bin'
p5920
sa(dp5921
g6
F1.5518970000000001
sg7
S'174'
p5922
sg9
S'4.jpg.bin'
p5923
sa(dp5924
g6
F1.352465
sg7
S'833'
p5925
sg9
S'1.jpg.bin'
p5926
sa(dp5927
g6
F1.2845249999999999
sg7
S'404'
p5928
sg9
S'2.jpg.bin'
p5929
sa(dp5930
g6
F1.284491
sg7
S'939'
p5931
sg9
S'5_noplate.jpg.bin'
p5932
sasg7
S'18'
p5933
sg9
S'2_noplate.jpg.bin'
p5934
sa(dp5935
g3
(lp5936
(dp5937
g6
F7.6346809999999996
sg7
S'12'
p5938
sg9
S'5_noplate.jpg.bin'
p5939
sa(dp5940
g6
F3.4877929999999999
sg7
S'479'
p5941
sg9
S'0_noplate.jpg.bin'
p5942
sa(dp5943
g6
F3.1182840000000001
sg7
S'81'
p5944
sg9
S'1.jpg.bin'
p5945
sa(dp5946
g6
F2.9892829999999999
sg7
S'770'
p5947
sg9
S'1_noplate.jpg.bin'
p5948
sa(dp5949
g6
F2.911184
sg7
S'204'
p5950
sg9
S'3_noplate.jpg.bin'
p5951
sa(dp5952
g6
F2.8089140000000001
sg7
S'161'
p5953
sg9
S'4_noplate.jpg.bin'
p5954
sa(dp5955
g6
F2.2823500000000001
sg7
S'499'
p5956
sg9
S'5.jpg.bin'
p5957
sa(dp5958
g6
F2.2453349999999999
sg7
S'587'
p5959
sg9
S'3_noplate.jpg.bin'
p5960
sa(dp5961
g6
F2.1468090000000002
sg7
S'377'
p5962
sg9
S'1_noplate.jpg.bin'
p5963
sa(dp5964
g6
F2.076193
sg7
S'636'
p5965
sg9
S'0_noplate.jpg.bin'
p5966
sa(dp5967
g6
F2.0137019999999999
sg7
S'931'
p5968
sg9
S'5_noplate.jpg.bin'
p5969
sa(dp5970
g6
F1.9743250000000001
sg7
S'788'
p5971
sg9
S'2.jpg.bin'
p5972
sa(dp5973
g6
F1.9541660000000001
sg7
S'295'
p5974
sg9
S'0_noplate.jpg.bin'
p5975
sa(dp5976
g6
F1.8251759999999999
sg7
S'802'
p5977
sg9
S'0.jpg.bin'
p5978
sa(dp5979
g6
F1.796934
sg7
S'915'
p5980
sg9
S'0.jpg.bin'
p5981
sa(dp5982
g6
F1.77322
sg7
S'647'
p5983
sg9
S'2.jpg.bin'
p5984
sa(dp5985
g6
F1.642649
sg7
S'437'
p5986
sg9
S'5.jpg.bin'
p5987
sa(dp5988
g6
F1.6273139999999999
sg7
S'63'
p5989
sg9
S'4.jpg.bin'
p5990
sa(dp5991
g6
F1.478483
sg7
S'655'
p5992
sg9
S'0_noplate.jpg.bin'
p5993
sa(dp5994
g6
F1.3949530000000001
sg7
S'238'
p5995
sg9
S'1_noplate.jpg.bin'
p5996
sasg7
S'12'
p5997
sg9
S'3_noplate.jpg.bin'
p5998
sa(dp5999
g3
(lp6000
(dp6001
g6
F31.371517000000001
sg7
S'90'
p6002
sg9
S'1_noplate.jpg.bin'
p6003
sa(dp6004
g6
F9.9490280000000002
sg7
S'215'
p6005
sg9
S'5.jpg.bin'
p6006
sa(dp6007
g6
F8.9137950000000004
sg7
S'910'
p6008
sg9
S'35.jpg.bin'
p6009
sa(dp6010
g6
F6.499498
sg7
S'876'
p6011
sg9
S'21_noplate.jpg.bin'
p6012
sa(dp6013
g6
F6.00617
sg7
S'510'
p6014
sg9
S'4.jpg.bin'
p6015
sa(dp6016
g6
F5.2383369999999996
sg7
S'674'
p6017
sg9
S'1_noplate.jpg.bin'
p6018
sa(dp6019
g6
F4.3957689999999996
sg7
S'551'
p6020
sg9
S'9.jpg.bin'
p6021
sa(dp6022
g6
F1.1651549999999999
sg7
S'777'
p6023
sg9
S'0_noplate.jpg.bin'
p6024
sa(dp6025
g6
F1.1298239999999999
sg7
S'39'
p6026
sg9
S'1.jpg.bin'
p6027
sa(dp6028
g6
F0.87619400000000003
sg7
S'750'
p6029
sg9
S'3.jpg.bin'
p6030
sa(dp6031
g6
F0.80808800000000003
sg7
S'23'
p6032
sg9
S'5_noplate.jpg.bin'
p6033
sa(dp6034
g6
F0.60782599999999998
sg7
S'730'
p6035
sg9
S'7_noplate.jpg.bin'
p6036
sa(dp6037
g6
F0.53154400000000002
sg7
S'789'
p6038
sg9
S'5_noplate.jpg.bin'
p6039
sa(dp6040
g6
F0.49563200000000002
sg7
S'577'
p6041
sg9
S'2.jpg.bin'
p6042
sa(dp6043
g6
F0.48443599999999998
sg7
S'844'
p6044
sg9
S'0_noplate.jpg.bin'
p6045
sa(dp6046
g6
F0.48407600000000001
sg7
S'501'
p6047
sg9
S'6_noplate.jpg.bin'
p6048
sa(dp6049
g6
F0.30214299999999999
sg7
S'452'
p6050
sg9
S'5.jpg.bin'
p6051
sa(dp6052
g6
F0.26543
sg7
S'15'
p6053
sg9
S'9.jpg.bin'
p6054
sa(dp6055
g6
F0.12704799999999999
sg7
S'831'
p6056
sg9
S'3_noplate.jpg.bin'
p6057
sa(dp6058
g6
F-0.16492799999999999
sg7
S'703'
p6059
sg9
S'4.jpg.bin'
p6060
sasg7
S'90'
p6061
sg9
S'1.jpg.bin'
p6062
sa(dp6063
g3
(lp6064
(dp6065
g6
F6.0144200000000003
sg7
S'733'
p6066
sg9
S'2_noplate.jpg.bin'
p6067
sa(dp6068
g6
F4.9907719999999998
sg7
S'235'
p6069
sg9
S'4.jpg.bin'
p6070
sa(dp6071
g6
F4.8590220000000004
sg7
S'327'
p6072
sg9
S'6.jpg.bin'
p6073
sa(dp6074
g6
F4.7289490000000001
sg7
S'258'
p6075
sg9
S'3.jpg.bin'
p6076
sa(dp6077
g6
F4.5183489999999997
sg7
S'75'
p6078
sg9
S'4_noplate.jpg.bin'
p6079
sa(dp6080
g6
F4.4126950000000003
sg7
S'95'
p6081
sg9
S'1.jpg.bin'
p6082
sa(dp6083
g6
F4.2018219999999999
sg7
S'401'
p6084
sg9
S'4_noplate.jpg.bin'
p6085
sa(dp6086
g6
F4.0296690000000002
sg7
S'6'
sg9
S'10.jpg.bin'
p6087
sa(dp6088
g6
F3.7978710000000002
sg7
S'859'
p6089
sg9
S'12.jpg.bin'
p6090
sa(dp6091
g6
F3.7793600000000001
sg7
S'562'
p6092
sg9
S'3.jpg.bin'
p6093
sa(dp6094
g6
F3.6848619999999999
sg7
S'500'
p6095
sg9
S'2_noplate.jpg.bin'
p6096
sa(dp6097
g6
F3.6511019999999998
sg7
S'411'
p6098
sg9
S'2_noplate.jpg.bin'
p6099
sa(dp6100
g6
F3.6404510000000001
sg7
S'935'
p6101
sg9
S'1.jpg.bin'
p6102
sa(dp6103
g6
F3.6139830000000002
sg7
S'32'
p6104
sg9
S'2.jpg.bin'
p6105
sa(dp6106
g6
F3.6118450000000002
sg7
S'645'
p6107
sg9
S'0.jpg.bin'
p6108
sa(dp6109
g6
F3.5608599999999999
sg7
S'957'
p6110
sg9
S'3_noplate.jpg.bin'
p6111
sa(dp6112
g6
F3.519949
sg7
S'540'
p6113
sg9
S'0.jpg.bin'
p6114
sa(dp6115
g6
F3.5092089999999998
sg7
S'214'
p6116
sg9
S'3.jpg.bin'
p6117
sa(dp6118
g6
F3.505754
sg7
S'428'
p6119
sg9
S'2_noplate.jpg.bin'
p6120
sa(dp6121
g6
F3.4124430000000001
sg7
S'423'
p6122
sg9
S'6.jpg.bin'
p6123
sasg7
S'95'
p6124
sg9
S'3_noplate.jpg.bin'
p6125
sa(dp6126
g3
(lp6127
(dp6128
g6
F5.7737920000000003
sg7
S'14'
p6129
sg9
S'1_noplate.jpg.bin'
p6130
sa(dp6131
g6
F5.6211760000000002
sg7
S'584'
p6132
sg9
S'3_noplate.jpg.bin'
p6133
sa(dp6134
g6
F5.2410199999999998
sg7
S'970'
p6135
sg9
S'6_noplate.jpg.bin'
p6136
sa(dp6137
g6
F5.1786079999999997
sg7
S'329'
p6138
sg9
S'5_noplate.jpg.bin'
p6139
sa(dp6140
g6
F5.1600169999999999
sg7
S'589'
p6141
sg9
S'14.jpg.bin'
p6142
sa(dp6143
g6
F4.9536420000000003
sg7
S'383'
p6144
sg9
S'5_noplate.jpg.bin'
p6145
sa(dp6146
g6
F4.6020909999999997
sg7
S'65'
p6147
sg9
S'1.jpg.bin'
p6148
sa(dp6149
g6
F4.3954810000000002
sg7
S'925'
p6150
sg9
S'0.jpg.bin'
p6151
sa(dp6152
g6
F4.3187100000000003
sg7
S'792'
p6153
sg9
S'2_noplate.jpg.bin'
p6154
sa(dp6155
g6
F3.7639469999999999
sg7
S'199'
p6156
sg9
S'0_noplate.jpg.bin'
p6157
sa(dp6158
g6
F3.490164
sg7
S'524'
p6159
sg9
S'8.jpg.bin'
p6160
sa(dp6161
g6
F3.3691439999999999
sg7
S'815'
p6162
sg9
S'6_noplate.jpg.bin'
p6163
sa(dp6164
g6
F3.296923
sg7
S'377'
p6165
sg9
S'1_noplate.jpg.bin'
p6166
sa(dp6167
g6
F3.097664
sg7
S'684'
p6168
sg9
S'4.jpg.bin'
p6169
sa(dp6170
g6
F3.0195409999999998
sg7
S'514'
p6171
sg9
S'9.jpg.bin'
p6172
sa(dp6173
g6
F2.8606400000000001
sg7
S'890'
p6174
sg9
S'1_noplate.jpg.bin'
p6175
sa(dp6176
g6
F2.8488579999999999
sg7
S'574'
p6177
sg9
S'4_noplate.jpg.bin'
p6178
sa(dp6179
g6
F2.7593899999999998
sg7
S'46'
p6180
sg9
S'9.jpg.bin'
p6181
sa(dp6182
g6
F2.7477800000000001
sg7
S'25'
p6183
sg9
S'3.jpg.bin'
p6184
sa(dp6185
g6
F2.7378179999999999
sg7
S'404'
p6186
sg9
S'2.jpg.bin'
p6187
sasg7
S'65'
p6188
sg9
S'2.jpg.bin'
p6189
sa(dp6190
g3
(lp6191
(dp6192
g6
F15.859697000000001
sg7
S'82'
p6193
sg9
S'1_noplate.jpg.bin'
p6194
sa(dp6195
g6
F3.5837110000000001
sg7
S'356'
p6196
sg9
S'0_noplate.jpg.bin'
p6197
sa(dp6198
g6
F3.446987
sg7
S'797'
p6199
sg9
S'0.jpg.bin'
p6200
sa(dp6201
g6
F3.3939270000000001
sg7
S'126'
p6202
sg9
S'1.jpg.bin'
p6203
sa(dp6204
g6
F3.0641479999999999
sg7
S'98'
p6205
sg9
S'2.jpg.bin'
p6206
sa(dp6207
g6
F2.993652
sg7
S'43'
p6208
sg9
S'5_noplate.jpg.bin'
p6209
sa(dp6210
g6
F2.8002820000000002
sg7
S'751'
p6211
sg9
S'6.jpg.bin'
p6212
sa(dp6213
g6
F2.6514190000000002
sg7
S'809'
p6214
sg9
S'4.jpg.bin'
p6215
sa(dp6216
g6
F2.5115590000000001
sg7
S'414'
p6217
sg9
S'2.jpg.bin'
p6218
sa(dp6219
g6
F2.3346309999999999
sg7
S'402'
p6220
sg9
S'4.jpg.bin'
p6221
sa(dp6222
g6
F2.3250259999999998
sg7
S'903'
p6223
sg9
S'4.jpg.bin'
p6224
sa(dp6225
g6
F2.158436
sg7
S'210'
p6226
sg9
S'4.jpg.bin'
p6227
sa(dp6228
g6
F1.961006
sg7
S'976'
p6229
sg9
S'5_noplate.jpg.bin'
p6230
sa(dp6231
g6
F1.710806
sg7
S'153'
p6232
sg9
S'13_noplate.jpg.bin'
p6233
sa(dp6234
g6
F1.5104329999999999
sg7
S'542'
p6235
sg9
S'3.jpg.bin'
p6236
sa(dp6237
g6
F1.462933
sg7
S'221'
p6238
sg9
S'7_noplate.jpg.bin'
p6239
sa(dp6240
g6
F1.4626790000000001
sg7
S'789'
p6241
sg9
S'5_noplate.jpg.bin'
p6242
sa(dp6243
g6
F1.3686700000000001
sg7
S'328'
p6244
sg9
S'2_noplate.jpg.bin'
p6245
sa(dp6246
g6
F1.353297
sg7
S'400'
p6247
sg9
S'6.jpg.bin'
p6248
sa(dp6249
g6
F1.336481
sg7
S'275'
p6250
sg9
S'0.jpg.bin'
p6251
sasg7
S'82'
p6252
sg9
S'1.jpg.bin'
p6253
sa(dp6254
g3
(lp6255
(dp6256
g6
F4.7677709999999998
sg7
S'941'
p6257
sg9
S'1.jpg.bin'
p6258
sa(dp6259
g6
F4.1058009999999996
sg7
S'841'
p6260
sg9
S'1.jpg.bin'
p6261
sa(dp6262
g6
F3.5680350000000001
sg7
S'106'
p6263
sg9
S'1_noplate.jpg.bin'
p6264
sa(dp6265
g6
F3.4931869999999998
sg7
S'673'
p6266
sg9
S'1.jpg.bin'
p6267
sa(dp6268
g6
F3.3229310000000001
sg7
S'783'
p6269
sg9
S'4_noplate.jpg.bin'
p6270
sa(dp6271
g6
F3.1867890000000001
sg7
S'831'
p6272
sg9
S'3_noplate.jpg.bin'
p6273
sa(dp6274
g6
F3.0229360000000001
sg7
S'954'
p6275
sg9
S'6_noplate.jpg.bin'
p6276
sa(dp6277
g6
F3.0200659999999999
sg7
S'60'
p6278
sg9
S'3.jpg.bin'
p6279
sa(dp6280
g6
F2.8253940000000002
sg7
S'811'
p6281
sg9
S'6.jpg.bin'
p6282
sa(dp6283
g6
F2.6870799999999999
sg7
S'51'
p6284
sg9
S'5.jpg.bin'
p6285
sa(dp6286
g6
F2.6658550000000001
sg7
S'434'
p6287
sg9
S'1.jpg.bin'
p6288
sa(dp6289
g6
F2.5726360000000001
sg7
S'191'
p6290
sg9
S'5_noplate.jpg.bin'
p6291
sa(dp6292
g6
F2.4845120000000001
sg7
S'477'
p6293
sg9
S'5.jpg.bin'
p6294
sa(dp6295
g6
F2.47987
sg7
S'16'
p6296
sg9
S'3.jpg.bin'
p6297
sa(dp6298
g6
F2.4491269999999998
sg7
S'298'
p6299
sg9
S'4_noplate.jpg.bin'
p6300
sa(dp6301
g6
F2.4459170000000001
sg7
S'703'
p6302
sg9
S'4.jpg.bin'
p6303
sa(dp6304
g6
F2.4178579999999998
sg7
S'140'
p6305
sg9
S'3.jpg.bin'
p6306
sa(dp6307
g6
F2.3018930000000002
sg7
S'769'
p6308
sg9
S'1.jpg.bin'
p6309
sa(dp6310
g6
F2.2846299999999999
sg7
S'57'
p6311
sg9
S'3.jpg.bin'
p6312
sa(dp6313
g6
F2.278616
sg7
S'666'
p6314
sg9
S'3_noplate.jpg.bin'
p6315
sasg7
S'57'
p6316
sg9
S'6_noplate.jpg.bin'
p6317
sa(dp6318
g3
(lp6319
(dp6320
g6
F7.3694230000000003
sg7
S'59'
p6321
sg9
S'3.jpg.bin'
p6322
sa(dp6323
g6
F4.9438570000000004
sg7
S'316'
p6324
sg9
S'5.jpg.bin'
p6325
sa(dp6326
g6
F4.7249739999999996
sg7
S'160'
p6327
sg9
S'2.jpg.bin'
p6328
sa(dp6329
g6
F4.219023
sg7
S'897'
p6330
sg9
S'3_noplate.jpg.bin'
p6331
sa(dp6332
g6
F3.890676
sg7
S'643'
p6333
sg9
S'9.jpg.bin'
p6334
sa(dp6335
g6
F3.8812980000000001
sg7
S'861'
p6336
sg9
S'8.jpg.bin'
p6337
sa(dp6338
g6
F3.199411
sg7
S'28'
p6339
sg9
S'4_noplate.jpg.bin'
p6340
sa(dp6341
g6
F3.1448860000000001
sg7
S'255'
p6342
sg9
S'1_noplate.jpg.bin'
p6343
sa(dp6344
g6
F3.101318
sg7
S'181'
p6345
sg9
S'1.jpg.bin'
p6346
sa(dp6347
g6
F3.0109789999999998
sg7
S'197'
p6348
sg9
S'0.jpg.bin'
p6349
sa(dp6350
g6
F2.9972319999999999
sg7
S'52'
p6351
sg9
S'0_noplate.jpg.bin'
p6352
sa(dp6353
g6
F2.996756
sg7
S'562'
p6354
sg9
S'3.jpg.bin'
p6355
sa(dp6356
g6
F2.9962390000000001
sg7
S'840'
p6357
sg9
S'2.jpg.bin'
p6358
sa(dp6359
g6
F2.7860369999999999
sg7
S'264'
p6360
sg9
S'0.jpg.bin'
p6361
sa(dp6362
g6
F2.7722470000000001
sg7
S'838'
p6363
sg9
S'4.jpg.bin'
p6364
sa(dp6365
g6
F2.6428180000000001
sg7
S'453'
p6366
sg9
S'0.jpg.bin'
p6367
sa(dp6368
g6
F2.5068359999999998
sg7
S'749'
p6369
sg9
S'5.jpg.bin'
p6370
sa(dp6371
g6
F2.4718
sg7
S'685'
p6372
sg9
S'3_noplate.jpg.bin'
p6373
sa(dp6374
g6
F2.1867049999999999
sg7
S'191'
p6375
sg9
S'5_noplate.jpg.bin'
p6376
sa(dp6377
g6
F2.0771259999999998
sg7
S'773'
p6378
sg9
S'4_noplate.jpg.bin'
p6379
sasg7
S'59'
p6380
sg9
S'5_noplate.jpg.bin'
p6381
sa.