(lp1
(dp2
S'data'
p3
(lp4
(dp5
S'score'
p6
F9.9962060000000008
sS'id'
p7
S'654'
p8
sS'name'
p9
S'0'
sa(dp10
g6
F9.3317359999999994
sg7
S'679'
p11
sg9
S'0'
sa(dp12
g6
F7.2884250000000002
sg7
S'92'
p13
sg9
S'0'
sa(dp14
g6
F6.4479199999999999
sg7
S'518'
p15
sg9
S'0'
sa(dp16
g6
F4.7992970000000001
sg7
S'447'
p17
sg9
S'0'
sa(dp18
g6
F4.656498
sg7
S'970'
p19
sg9
S'0'
sa(dp20
g6
F4.4508900000000002
sg7
S'538'
p21
sg9
S'0'
sa(dp22
g6
F4.4410860000000003
sg7
S'702'
p23
sg9
S'0'
sa(dp24
g6
F4.3290899999999999
sg7
S'204'
p25
sg9
S'0'
sa(dp26
g6
F4.23752
sg7
S'165'
p27
sg9
S'0'
sa(dp28
g6
F3.7301389999999999
sg7
S'856'
p29
sg9
S'0'
sa(dp30
g6
F3.6361469999999998
sg7
S'183'
p31
sg9
S'0'
sa(dp32
g6
F3.2035239999999998
sg7
S'963'
p33
sg9
S'0'
sa(dp34
g6
F3.0957810000000001
sg7
S'303'
p35
sg9
S'0'
sa(dp36
g6
F2.9402240000000002
sg7
S'247'
p37
sg9
S'0'
sa(dp38
g6
F2.8126009999999999
sg7
S'591'
p39
sg9
S'0'
sa(dp40
g6
F2.7154919999999998
sg7
S'162'
p41
sg9
S'0'
sa(dp42
g6
F2.5693190000000001
sg7
S'699'
p43
sg9
S'0'
sa(dp44
g6
F2.5429590000000002
sg7
S'292'
p45
sg9
S'0'
sa(dp46
g6
F2.2561650000000002
sg7
S'651'
p47
sg9
S'0'
sasg7
S'96'
p48
sg9
S'0'
sa(dp49
g3
(lp50
(dp51
g6
F10.215002
sg7
S'51'
p52
sg9
S'0'
sa(dp53
g6
F7.0443040000000003
sg7
S'908'
p54
sg9
S'0'
sa(dp55
g6
F6.1165500000000002
sg7
S'109'
p56
sg9
S'0'
sa(dp57
g6
F5.8371490000000001
sg7
S'716'
p58
sg9
S'0'
sa(dp59
g6
F5.7513620000000003
sg7
S'957'
p60
sg9
S'0'
sa(dp61
g6
F5.4860819999999997
sg7
S'583'
p62
sg9
S'0'
sa(dp63
g6
F5.2298739999999997
sg7
S'399'
p64
sg9
S'0'
sa(dp65
g6
F5.1084269999999998
sg7
S'623'
p66
sg9
S'0'
sa(dp67
g6
F4.9912970000000003
sg7
S'113'
p68
sg9
S'0'
sa(dp69
g6
F4.8329959999999996
sg7
S'73'
p70
sg9
S'0'
sa(dp71
g6
F4.7219309999999997
sg7
S'643'
p72
sg9
S'0'
sa(dp73
g6
F4.6881519999999997
sg7
S'451'
p74
sg9
S'0'
sa(dp75
g6
F4.5049190000000001
sg7
S'360'
p76
sg9
S'0'
sa(dp77
g6
F4.3293229999999996
sg7
S'763'
p78
sg9
S'0'
sa(dp79
g6
F4.2593139999999998
sg7
S'478'
p80
sg9
S'0'
sa(dp81
g6
F4.2238879999999996
sg7
S'101'
p82
sg9
S'0'
sa(dp83
g6
F4.0377809999999998
sg7
S'702'
p84
sg9
S'0'
sa(dp85
g6
F3.8851930000000001
sg7
S'34'
p86
sg9
S'0'
sa(dp87
g6
F3.8297819999999998
sg7
S'118'
p88
sg9
S'0'
sa(dp89
g6
F3.633829
sg7
S'410'
p90
sg9
S'0'
sasg7
S'51'
p91
sg9
S'0'
sa(dp92
g3
(lp93
(dp94
g6
F4.913208
sg7
S'80'
p95
sg9
S'0'
sa(dp96
g6
F4.5965670000000003
sg7
S'831'
p97
sg9
S'0'
sa(dp98
g6
F4.4417840000000002
sg7
S'322'
p99
sg9
S'0'
sa(dp100
g6
F4.271801
sg7
S'852'
p101
sg9
S'0'
sa(dp102
g6
F4.1211529999999996
sg7
S'644'
p103
sg9
S'0'
sa(dp104
g6
F3.8437269999999999
sg7
S'989'
p105
sg9
S'0'
sa(dp106
g6
F3.3299409999999998
sg7
S'443'
p107
sg9
S'0'
sa(dp108
g6
F3.2032949999999998
sg7
S'467'
p109
sg9
S'0'
sa(dp110
g6
F3.1750340000000001
sg7
S'457'
p111
sg9
S'0'
sa(dp112
g6
F3.127672
sg7
S'134'
p113
sg9
S'0'
sa(dp114
g6
F3.0777489999999998
sg7
S'558'
p115
sg9
S'0'
sa(dp116
g6
F2.9750480000000001
sg7
S'809'
p117
sg9
S'0'
sa(dp118
g6
F2.8772389999999999
sg7
S'413'
p119
sg9
S'0'
sa(dp120
g6
F2.8518409999999998
sg7
S'843'
p121
sg9
S'0'
sa(dp122
g6
F2.8433860000000002
sg7
S'930'
p123
sg9
S'0'
sa(dp124
g6
F2.823067
sg7
S'190'
p125
sg9
S'0'
sa(dp126
g6
F2.7088809999999999
sg7
S'66'
p127
sg9
S'0'
sa(dp128
g6
F2.6808320000000001
sg7
S'894'
p129
sg9
S'0'
sa(dp130
g6
F2.6574249999999999
sg7
S'239'
p131
sg9
S'0'
sa(dp132
g6
F2.6346799999999999
sg7
S'567'
p133
sg9
S'0'
sasg7
S'74'
p134
sg9
S'0'
sa(dp135
g3
(lp136
(dp137
g6
F5.5264819999999997
sg7
S'813'
p138
sg9
S'0'
sa(dp139
g6
F4.6276780000000004
sg7
S'53'
p140
sg9
S'0'
sa(dp141
g6
F3.9226909999999999
sg7
S'30'
p142
sg9
S'0'
sa(dp143
g6
F3.8173599999999999
sg7
S'607'
p144
sg9
S'0'
sa(dp145
g6
F3.5550000000000002
sg7
S'232'
p146
sg9
S'0'
sa(dp147
g6
F3.4000409999999999
sg7
S'756'
p148
sg9
S'0'
sa(dp149
g6
F3.3618450000000002
sg7
S'942'
p150
sg9
S'0'
sa(dp151
g6
F3.3279109999999998
sg7
S'428'
p152
sg9
S'0'
sa(dp153
g6
F3.143389
sg7
S'463'
p154
sg9
S'0'
sa(dp155
g6
F3.102249
sg7
S'843'
p156
sg9
S'0'
sa(dp157
g6
F3.0457670000000001
sg7
S'572'
p158
sg9
S'0'
sa(dp159
g6
F3.027002
sg7
S'436'
p160
sg9
S'0'
sa(dp161
g6
F2.976515
sg7
S'859'
p162
sg9
S'0'
sa(dp163
g6
F2.85297
sg7
S'814'
p164
sg9
S'0'
sa(dp165
g6
F2.8053340000000002
sg7
S'198'
p166
sg9
S'0'
sa(dp167
g6
F2.7757260000000001
sg7
S'145'
p168
sg9
S'0'
sa(dp169
g6
F2.7193529999999999
sg7
S'256'
p170
sg9
S'0'
sa(dp171
g6
F2.6139450000000002
sg7
S'450'
p172
sg9
S'0'
sa(dp173
g6
F2.6004330000000002
sg7
S'794'
p174
sg9
S'0'
sa(dp175
g6
F2.5544069999999999
sg7
S'562'
p176
sg9
S'0'
sasg7
S'53'
p177
sg9
S'0'
sa(dp178
g3
(lp179
(dp180
g6
F4.352201
sg7
S'212'
p181
sg9
S'0'
sa(dp182
g6
F4.0542350000000003
sg7
S'756'
p183
sg9
S'0'
sa(dp184
g6
F3.9301699999999999
sg7
S'139'
p185
sg9
S'0'
sa(dp186
g6
F3.9219460000000002
sg7
S'577'
p187
sg9
S'0'
sa(dp188
g6
F3.804513
sg7
S'477'
p189
sg9
S'0'
sa(dp190
g6
F3.7734130000000001
sg7
S'262'
p191
sg9
S'0'
sa(dp192
g6
F3.6900300000000001
sg7
S'287'
p193
sg9
S'0'
sa(dp194
g6
F3.6546620000000001
sg7
S'891'
p195
sg9
S'0'
sa(dp196
g6
F3.5659350000000001
sg7
S'855'
p197
sg9
S'0'
sa(dp198
g6
F3.560711
sg7
S'794'
p199
sg9
S'0'
sa(dp200
g6
F3.5385339999999998
sg7
S'678'
p201
sg9
S'0'
sa(dp202
g6
F3.5189849999999998
sg7
S'554'
p203
sg9
S'0'
sa(dp204
g6
F3.5015540000000001
sg7
S'935'
p205
sg9
S'0'
sa(dp206
g6
F3.465551
sg7
S'905'
p207
sg9
S'0'
sa(dp208
g6
F3.3907449999999999
sg7
S'211'
p209
sg9
S'0'
sa(dp210
g6
F3.341974
sg7
S'300'
p211
sg9
S'0'
sa(dp212
g6
F3.3410839999999999
sg7
S'868'
p213
sg9
S'0'
sa(dp214
g6
F3.3099289999999999
sg7
S'148'
p215
sg9
S'0'
sa(dp216
g6
F3.2697340000000001
sg7
S'592'
p217
sg9
S'0'
sa(dp218
g6
F3.2648999999999999
sg7
S'842'
p219
sg9
S'0'
sasg7
S'69'
p220
sg9
S'0'
sa(dp221
g3
(lp222
(dp223
g6
F8.3060639999999992
sg7
S'39'
p224
sg9
S'0'
sa(dp225
g6
F3.7858719999999999
sg7
S'285'
p226
sg9
S'0'
sa(dp227
g6
F3.5755650000000001
sg7
S'803'
p228
sg9
S'0'
sa(dp229
g6
F3.36083
sg7
S'94'
p230
sg9
S'0'
sa(dp231
g6
F3.3603339999999999
sg7
S'552'
p232
sg9
S'0'
sa(dp233
g6
F3.2934549999999998
sg7
S'245'
p234
sg9
S'0'
sa(dp235
g6
F3.2771819999999998
sg7
S'258'
p236
sg9
S'0'
sa(dp237
g6
F3.2606199999999999
sg7
S'586'
p238
sg9
S'0'
sa(dp239
g6
F3.2000449999999998
sg7
S'674'
p240
sg9
S'0'
sa(dp241
g6
F2.967714
sg7
S'47'
p242
sg9
S'0'
sa(dp243
g6
F2.9404409999999999
sg7
S'242'
p244
sg9
S'0'
sa(dp245
g6
F2.8333719999999998
sg7
S'238'
p246
sg9
S'0'
sa(dp247
g6
F2.8068490000000001
sg7
S'818'
p248
sg9
S'0'
sa(dp249
g6
F2.7606470000000001
sg7
S'429'
p250
sg9
S'0'
sa(dp251
g6
F2.6844429999999999
sg7
S'658'
p252
sg9
S'0'
sa(dp253
g6
F2.6607609999999999
sg7
S'2'
sg9
S'0'
sa(dp254
g6
F2.5737990000000002
sg7
S'465'
p255
sg9
S'0'
sa(dp256
g6
F2.47024
sg7
S'127'
p257
sg9
S'0'
sa(dp258
g6
F2.4472429999999998
sg7
S'49'
p259
sg9
S'0'
sa(dp260
g6
F2.4004880000000002
sg7
S'708'
p261
sg9
S'0'
sasg7
S'94'
p262
sg9
S'0'
sa(dp263
g3
(lp264
(dp265
g6
F5.4906940000000004
sg7
S'61'
p266
sg9
S'0'
sa(dp267
g6
F4.8965610000000002
sg7
S'984'
p268
sg9
S'0'
sa(dp269
g6
F4.6437229999999996
sg7
S'451'
p270
sg9
S'0'
sa(dp271
g6
F4.5686900000000001
sg7
S'841'
p272
sg9
S'0'
sa(dp273
g6
F4.4423570000000003
sg7
S'98'
p274
sg9
S'0'
sa(dp275
g6
F4.2657809999999996
sg7
S'34'
p276
sg9
S'0'
sa(dp277
g6
F4.0154550000000002
sg7
S'101'
p278
sg9
S'0'
sa(dp279
g6
F3.6381939999999999
sg7
S'795'
p280
sg9
S'0'
sa(dp281
g6
F3.4083350000000001
sg7
S'615'
p282
sg9
S'0'
sa(dp283
g6
F3.3380429999999999
sg7
S'848'
p284
sg9
S'0'
sa(dp285
g6
F2.9942000000000002
sg7
S'743'
p286
sg9
S'0'
sa(dp287
g6
F2.9340649999999999
sg7
S'908'
p288
sg9
S'0'
sa(dp289
g6
F2.9082699999999999
sg7
S'230'
p290
sg9
S'0'
sa(dp291
g6
F2.8932739999999999
sg7
S'806'
p292
sg9
S'0'
sa(dp293
g6
F2.1345160000000001
sg7
S'73'
p294
sg9
S'0'
sa(dp295
g6
F2.0035500000000002
sg7
S'827'
p296
sg9
S'0'
sa(dp297
g6
F1.9308380000000001
sg7
S'896'
p298
sg9
S'0'
sa(dp299
g6
F1.809248
sg7
S'830'
p300
sg9
S'0'
sa(dp301
g6
F1.6469959999999999
sg7
S'623'
p302
sg9
S'0'
sa(dp303
g6
F1.601723
sg7
S'702'
p304
sg9
S'0'
sasg7
S'91'
p305
sg9
S'0'
sa(dp306
g3
(lp307
(dp308
g6
F8.5815090000000005
sg7
S'490'
p309
sg9
S'0'
sa(dp310
g6
F6.1003970000000001
sg7
S'78'
p311
sg9
S'0'
sa(dp312
g6
F3.9440189999999999
sg7
S'476'
p313
sg9
S'0'
sa(dp314
g6
F3.4249000000000001
sg7
S'632'
p315
sg9
S'0'
sa(dp316
g6
F3.0359970000000001
sg7
S'185'
p317
sg9
S'0'
sa(dp318
g6
F2.68309
sg7
S'324'
p319
sg9
S'0'
sa(dp320
g6
F2.3814600000000001
sg7
S'269'
p321
sg9
S'0'
sa(dp322
g6
F2.368538
sg7
S'953'
p323
sg9
S'0'
sa(dp324
g6
F2.3015439999999998
sg7
S'158'
p325
sg9
S'0'
sa(dp326
g6
F2.2300800000000001
sg7
S'634'
p327
sg9
S'0'
sa(dp328
g6
F2.0858500000000002
sg7
S'818'
p329
sg9
S'0'
sa(dp330
g6
F2.0577350000000001
sg7
S'849'
p331
sg9
S'0'
sa(dp332
g6
F2.0336460000000001
sg7
S'361'
p333
sg9
S'0'
sa(dp334
g6
F1.9209369999999999
sg7
S'466'
p335
sg9
S'0'
sa(dp336
g6
F1.9189609999999999
sg7
S'401'
p337
sg9
S'0'
sa(dp338
g6
F1.90469
sg7
S'961'
p339
sg9
S'0'
sa(dp340
g6
F1.884493
sg7
S'923'
p341
sg9
S'0'
sa(dp342
g6
F1.7908550000000001
sg7
S'260'
p343
sg9
S'0'
sa(dp344
g6
F1.619961
sg7
S'822'
p345
sg9
S'0'
sa(dp346
g6
F1.5768409999999999
sg7
S'552'
p347
sg9
S'0'
sasg7
S'78'
p348
sg9
S'0'
sa(dp349
g3
(lp350
(dp351
g6
F6.1806219999999996
sg7
S'805'
p352
sg9
S'0'
sa(dp353
g6
F6.0784260000000003
sg7
S'823'
p354
sg9
S'0'
sa(dp355
g6
F5.5152489999999998
sg7
S'74'
p356
sg9
S'0'
sa(dp357
g6
F5.5002709999999997
sg7
S'962'
p358
sg9
S'0'
sa(dp359
g6
F5.3541930000000004
sg7
S'293'
p360
sg9
S'0'
sa(dp361
g6
F5.2137450000000003
sg7
S'689'
p362
sg9
S'0'
sa(dp363
g6
F5.0066509999999997
sg7
S'28'
p364
sg9
S'0'
sa(dp365
g6
F4.8607810000000002
sg7
S'721'
p366
sg9
S'0'
sa(dp367
g6
F4.7528879999999996
sg7
S'878'
p368
sg9
S'0'
sa(dp369
g6
F4.715014
sg7
S'979'
p370
sg9
S'0'
sa(dp371
g6
F4.5768719999999998
sg7
S'548'
p372
sg9
S'0'
sa(dp373
g6
F4.5340749999999996
sg7
S'252'
p374
sg9
S'0'
sa(dp375
g6
F4.2335929999999999
sg7
S'595'
p376
sg9
S'0'
sa(dp377
g6
F4.1942329999999997
sg7
S'14'
p378
sg9
S'0'
sa(dp379
g6
F4.1396660000000001
sg7
S'688'
p380
sg9
S'0'
sa(dp381
g6
F4.0708679999999999
sg7
S'462'
p382
sg9
S'0'
sa(dp383
g6
F3.9364469999999998
sg7
S'112'
p384
sg9
S'0'
sa(dp385
g6
F3.832087
sg7
S'960'
p386
sg9
S'0'
sa(dp387
g6
F3.7490559999999999
sg7
S'33'
p388
sg9
S'0'
sa(dp389
g6
F3.7127460000000001
sg7
S'652'
p390
sg9
S'0'
sasg7
S'42'
p391
sg9
S'0'
sa(dp392
g3
(lp393
(dp394
g6
F6.2219490000000004
sg7
S'726'
p395
sg9
S'0'
sa(dp396
g6
F6.1854319999999996
sg7
S'960'
p397
sg9
S'0'
sa(dp398
g6
F6.0728650000000002
sg7
S'962'
p399
sg9
S'0'
sa(dp400
g6
F5.8818489999999999
sg7
S'50'
p401
sg9
S'0'
sa(dp402
g6
F5.8754020000000002
sg7
S'721'
p403
sg9
S'0'
sa(dp404
g6
F5.6138760000000003
sg7
S'823'
p405
sg9
S'0'
sa(dp406
g6
F5.5465429999999998
sg7
S'979'
p407
sg9
S'0'
sa(dp408
g6
F5.4049430000000003
sg7
S'348'
p409
sg9
S'0'
sa(dp410
g6
F5.3902510000000001
sg7
S'96'
p411
sg9
S'0'
sa(dp412
g6
F5.3151529999999996
sg7
S'292'
p413
sg9
S'0'
sa(dp414
g6
F5.3125109999999998
sg7
S'969'
p415
sg9
S'0'
sa(dp416
g6
F5.1958979999999997
sg7
S'440'
p417
sg9
S'0'
sa(dp418
g6
F4.5926109999999998
sg7
S'482'
p419
sg9
S'0'
sa(dp420
g6
F4.5187229999999996
sg7
S'730'
p421
sg9
S'0'
sa(dp422
g6
F4.3167759999999999
sg7
S'652'
p423
sg9
S'0'
sa(dp424
g6
F4.2385200000000003
sg7
S'298'
p425
sg9
S'0'
sa(dp426
g6
F4.178623
sg7
S'33'
p427
sg9
S'0'
sa(dp428
g6
F4.1573089999999997
sg7
S'805'
p429
sg9
S'0'
sa(dp430
g6
F4.1035079999999997
sg7
S'964'
p431
sg9
S'0'
sa(dp432
g6
F3.9712239999999999
sg7
S'496'
p433
sg9
S'0'
sasg7
S'50'
p434
sg9
S'0'
sa(dp435
g3
(lp436
(dp437
g6
F5.9838110000000002
sg7
S'548'
p438
sg9
S'0'
sa(dp439
g6
F5.1173400000000004
sg7
S'595'
p440
sg9
S'0'
sa(dp441
g6
F4.9999349999999998
sg7
S'22'
p442
sg9
S'0'
sa(dp443
g6
F4.6614649999999997
sg7
S'513'
p444
sg9
S'0'
sa(dp445
g6
F4.581474
sg7
S'688'
p446
sg9
S'0'
sa(dp447
g6
F3.987028
sg7
S'689'
p448
sg9
S'0'
sa(dp449
g6
F3.8764379999999998
sg7
S'808'
p450
sg9
S'0'
sa(dp451
g6
F3.58127
sg7
S'650'
p452
sg9
S'0'
sa(dp453
g6
F3.5042019999999998
sg7
S'652'
p454
sg9
S'0'
sa(dp455
g6
F3.39798
sg7
S'726'
p456
sg9
S'0'
sa(dp457
g6
F3.2455270000000001
sg7
S'23'
p458
sg9
S'0'
sa(dp459
g6
F3.192291
sg7
S'440'
p460
sg9
S'0'
sa(dp461
g6
F3.046923
sg7
S'202'
p462
sg9
S'0'
sa(dp463
g6
F3.0154290000000001
sg7
S'50'
p464
sg9
S'0'
sa(dp465
g6
F2.928442
sg7
S'583'
p466
sg9
S'0'
sa(dp467
g6
F2.8556789999999999
sg7
S'962'
p468
sg9
S'0'
sa(dp469
g6
F2.855003
sg7
S'51'
p470
sg9
S'0'
sa(dp471
g6
F2.73942
sg7
S'591'
p472
sg9
S'0'
sa(dp473
g6
F2.6859359999999999
sg7
S'320'
p474
sg9
S'0'
sa(dp475
g6
F2.61503
sg7
S'823'
p476
sg9
S'0'
sasg7
S'22'
p477
sg9
S'0'
sa(dp478
g3
(lp479
(dp480
g6
F4.8513260000000002
sg7
S'296'
p481
sg9
S'0'
sa(dp482
g6
F4.6822699999999999
sg7
S'854'
p483
sg9
S'0'
sa(dp484
g6
F3.7054879999999999
sg7
S'504'
p485
sg9
S'0'
sa(dp486
g6
F3.1904180000000002
sg7
S'306'
p487
sg9
S'0'
sa(dp488
g6
F3.0864539999999998
sg7
S'234'
p489
sg9
S'0'
sa(dp490
g6
F2.87636
sg7
S'703'
p491
sg9
S'0'
sa(dp492
g6
F2.1198939999999999
sg7
S'159'
p493
sg9
S'0'
sa(dp494
g6
F2.1000610000000002
sg7
S'285'
p495
sg9
S'0'
sa(dp496
g6
F2.0318909999999999
sg7
S'378'
p497
sg9
S'0'
sa(dp498
g6
F1.9468399999999999
sg7
S'201'
p499
sg9
S'0'
sa(dp500
g6
F1.8606149999999999
sg7
S'811'
p501
sg9
S'0'
sa(dp502
g6
F1.852859
sg7
S'710'
p503
sg9
S'0'
sa(dp504
g6
F1.8403849999999999
sg7
S'933'
p505
sg9
S'0'
sa(dp506
g6
F1.8110219999999999
sg7
S'16'
p507
sg9
S'0'
sa(dp508
g6
F1.7975730000000001
sg7
S'47'
p509
sg9
S'0'
sa(dp510
g6
F1.7470589999999999
sg7
S'802'
p511
sg9
S'0'
sa(dp512
g6
F1.7071670000000001
sg7
S'597'
p513
sg9
S'0'
sa(dp514
g6
F1.669861
sg7
S'910'
p515
sg9
S'0'
sa(dp516
g6
F1.5760860000000001
sg7
S'598'
p517
sg9
S'0'
sa(dp518
g6
F1.555496
sg7
S'198'
p519
sg9
S'0'
sasg7
S'16'
p520
sg9
S'0'
sa(dp521
g3
(lp522
(dp523
g6
F5.3732110000000004
sg7
S'406'
p524
sg9
S'0'
sa(dp525
g6
F5.2941250000000002
sg7
S'706'
p526
sg9
S'0'
sa(dp527
g6
F4.1228259999999999
sg7
S'731'
p528
sg9
S'0'
sa(dp529
g6
F3.7190089999999998
sg7
S'613'
p530
sg9
S'0'
sa(dp531
g6
F3.2784900000000001
sg7
S'952'
p532
sg9
S'0'
sa(dp533
g6
F2.9509789999999998
sg7
S'646'
p534
sg9
S'0'
sa(dp535
g6
F2.8826429999999998
sg7
S'674'
p536
sg9
S'0'
sa(dp537
g6
F2.8683909999999999
sg7
S'736'
p538
sg9
S'0'
sa(dp539
g6
F2.804411
sg7
S'616'
p540
sg9
S'0'
sa(dp541
g6
F2.6781640000000002
sg7
S'57'
p542
sg9
S'0'
sa(dp543
g6
F2.665394
sg7
S'407'
p544
sg9
S'0'
sa(dp545
g6
F2.656698
sg7
S'794'
p546
sg9
S'0'
sa(dp547
g6
F2.5096949999999998
sg7
S'44'
p548
sg9
S'0'
sa(dp549
g6
F2.4098489999999999
sg7
S'907'
p550
sg9
S'0'
sa(dp551
g6
F2.4073220000000002
sg7
S'393'
p552
sg9
S'0'
sa(dp553
g6
F2.3553709999999999
sg7
S'242'
p554
sg9
S'0'
sa(dp555
g6
F2.3357540000000001
sg7
S'201'
p556
sg9
S'0'
sa(dp557
g6
F2.2708699999999999
sg7
S'260'
p558
sg9
S'0'
sa(dp559
g6
F2.1995619999999998
sg7
S'663'
p560
sg9
S'0'
sa(dp561
g6
F2.0775679999999999
sg7
S'214'
p562
sg9
S'0'
sasg7
S'32'
p563
sg9
S'0'
sa(dp564
g3
(lp565
(dp566
g6
F4.9974439999999998
sg7
S'29'
p567
sg9
S'0'
sa(dp568
g6
F3.7904849999999999
sg7
S'496'
p569
sg9
S'0'
sa(dp570
g6
F3.5710980000000001
sg7
S'3'
sg9
S'0'
sa(dp571
g6
F2.9944229999999998
sg7
S'664'
p572
sg9
S'0'
sa(dp573
g6
F2.1275040000000001
sg7
S'859'
p574
sg9
S'0'
sa(dp575
g6
F1.898962
sg7
S'539'
p576
sg9
S'0'
sa(dp577
g6
F1.827877
sg7
S'527'
p578
sg9
S'0'
sa(dp579
g6
F1.8069059999999999
sg7
S'813'
p580
sg9
S'0'
sa(dp581
g6
F1.6831510000000001
sg7
S'25'
p582
sg9
S'0'
sa(dp583
g6
F1.5741080000000001
sg7
S'163'
p584
sg9
S'0'
sa(dp585
g6
F1.4507369999999999
sg7
S'292'
p586
sg9
S'0'
sa(dp587
g6
F1.394962
sg7
S'56'
p588
sg9
S'0'
sa(dp589
g6
F1.217112
sg7
S'356'
p590
sg9
S'0'
sa(dp591
g6
F1.0889470000000001
sg7
S'526'
p592
sg9
S'0'
sa(dp593
g6
F0.83992800000000001
sg7
S'134'
p594
sg9
S'0'
sa(dp595
g6
F0.836781
sg7
S'47'
p596
sg9
S'0'
sa(dp597
g6
F0.77069699999999997
sg7
S'637'
p598
sg9
S'0'
sa(dp599
g6
F0.62040700000000004
sg7
S'116'
p600
sg9
S'0'
sa(dp601
g6
F0.60043500000000005
sg7
S'154'
p602
sg9
S'0'
sa(dp603
g6
F0.57285699999999995
sg7
S'437'
p604
sg9
S'0'
sasg7
S'3'
sg9
S'0'
sa(dp605
g3
(lp606
(dp607
g6
F2.8804569999999998
sg7
S'668'
p608
sg9
S'0'
sa(dp609
g6
F2.8389540000000002
sg7
S'195'
p610
sg9
S'0'
sa(dp611
g6
F2.6101200000000002
sg7
S'263'
p612
sg9
S'0'
sa(dp613
g6
F2.4922260000000001
sg7
S'255'
p614
sg9
S'0'
sa(dp615
g6
F2.4455179999999999
sg7
S'85'
p616
sg9
S'0'
sa(dp617
g6
F2.431746
sg7
S'918'
p618
sg9
S'0'
sa(dp619
g6
F2.389303
sg7
S'212'
p620
sg9
S'0'
sa(dp621
g6
F2.3719030000000001
sg7
S'994'
p622
sg9
S'0'
sa(dp623
g6
F2.1669510000000001
sg7
S'868'
p624
sg9
S'0'
sa(dp625
g6
F2.09877
sg7
S'285'
p626
sg9
S'0'
sa(dp627
g6
F1.933929
sg7
S'156'
p628
sg9
S'0'
sa(dp629
g6
F1.8663320000000001
sg7
S'719'
p630
sg9
S'0'
sa(dp631
g6
F1.8261689999999999
sg7
S'436'
p632
sg9
S'0'
sa(dp633
g6
F1.8182860000000001
sg7
S'214'
p634
sg9
S'0'
sa(dp635
g6
F1.7838350000000001
sg7
S'475'
p636
sg9
S'0'
sa(dp637
g6
F1.6892830000000001
sg7
S'935'
p638
sg9
S'0'
sa(dp639
g6
F1.681017
sg7
S'198'
p640
sg9
S'0'
sa(dp641
g6
F1.6316580000000001
sg7
S'477'
p642
sg9
S'0'
sa(dp643
g6
F1.556902
sg7
S'253'
p644
sg9
S'0'
sa(dp645
g6
F1.5556220000000001
sg7
S'91'
p646
sg9
S'0'
sasg7
S'14'
p647
sg9
S'0'
sa(dp648
g3
(lp649
(dp650
g6
F4.1746220000000003
sg7
S'222'
p651
sg9
S'0'
sa(dp652
g6
F3.2467820000000001
sg7
S'86'
p653
sg9
S'0'
sa(dp654
g6
F3.1414680000000001
sg7
S'242'
p655
sg9
S'0'
sa(dp656
g6
F3.07917
sg7
S'147'
p657
sg9
S'0'
sa(dp658
g6
F3.0621070000000001
sg7
S'952'
p659
sg9
S'0'
sa(dp660
g6
F3.0366840000000002
sg7
S'737'
p661
sg9
S'0'
sa(dp662
g6
F2.962275
sg7
S'818'
p663
sg9
S'0'
sa(dp664
g6
F2.9248639999999999
sg7
S'553'
p665
sg9
S'0'
sa(dp666
g6
F2.9116949999999999
sg7
S'822'
p667
sg9
S'0'
sa(dp668
g6
F2.9002340000000002
sg7
S'244'
p669
sg9
S'0'
sa(dp670
g6
F2.8664649999999998
sg7
S'882'
p671
sg9
S'0'
sa(dp672
g6
F2.8000949999999998
sg7
S'490'
p673
sg9
S'0'
sa(dp674
g6
F2.3080560000000001
sg7
S'658'
p675
sg9
S'0'
sa(dp676
g6
F2.232901
sg7
S'91'
p677
sg9
S'0'
sa(dp678
g6
F2.2318229999999999
sg7
S'771'
p679
sg9
S'0'
sa(dp680
g6
F2.2244969999999999
sg7
S'736'
p681
sg9
S'0'
sa(dp682
g6
F2.2205599999999999
sg7
S'41'
p683
sg9
S'0'
sa(dp684
g6
F2.1695440000000001
sg7
S'632'
p685
sg9
S'0'
sa(dp686
g6
F2.1403219999999998
sg7
S'401'
p687
sg9
S'0'
sa(dp688
g6
F1.9083079999999999
sg7
S'826'
p689
sg9
S'0'
sasg7
S'86'
p690
sg9
S'0'
sa(dp691
g3
(lp692
(dp693
g6
F12.359745
sg7
S'21'
p694
sg9
S'0'
sa(dp695
g6
F8.2458629999999999
sg7
S'333'
p696
sg9
S'0'
sa(dp697
g6
F5.453074
sg7
S'931'
p698
sg9
S'0'
sa(dp699
g6
F5.3647770000000001
sg7
S'68'
p700
sg9
S'0'
sa(dp701
g6
F5.1456999999999997
sg7
S'291'
p702
sg9
S'0'
sa(dp703
g6
F4.9621389999999996
sg7
S'424'
p704
sg9
S'0'
sa(dp705
g6
F4.2444899999999999
sg7
S'955'
p706
sg9
S'0'
sa(dp707
g6
F3.8236309999999998
sg7
S'243'
p708
sg9
S'0'
sa(dp709
g6
F3.6653769999999999
sg7
S'571'
p710
sg9
S'0'
sa(dp711
g6
F3.6207790000000002
sg7
S'696'
p712
sg9
S'0'
sa(dp713
g6
F3.6056210000000002
sg7
S'517'
p714
sg9
S'0'
sa(dp715
g6
F3.4083920000000001
sg7
S'435'
p716
sg9
S'0'
sa(dp717
g6
F3.4021400000000002
sg7
S'506'
p718
sg9
S'0'
sa(dp719
g6
F3.2413729999999998
sg7
S'913'
p720
sg9
S'0'
sa(dp721
g6
F2.9036559999999998
sg7
S'923'
p722
sg9
S'0'
sa(dp723
g6
F2.718378
sg7
S'746'
p724
sg9
S'0'
sa(dp725
g6
F2.7070470000000002
sg7
S'266'
p726
sg9
S'0'
sa(dp727
g6
F2.6711079999999998
sg7
S'585'
p728
sg9
S'0'
sa(dp729
g6
F2.5991710000000001
sg7
S'812'
p730
sg9
S'0'
sa(dp731
g6
F2.532816
sg7
S'79'
p732
sg9
S'0'
sasg7
S'21'
p733
sg9
S'0'
sa(dp734
g3
(lp735
(dp736
g6
F4.8099990000000004
sg7
S'54'
p737
sg9
S'0'
sa(dp738
g6
F4.0827809999999998
sg7
S'700'
p739
sg9
S'0'
sa(dp740
g6
F3.6894130000000001
sg7
S'237'
p741
sg9
S'0'
sa(dp742
g6
F3.617874
sg7
S'854'
p743
sg9
S'0'
sa(dp744
g6
F3.4811939999999999
sg7
S'996'
p745
sg9
S'0'
sa(dp746
g6
F3.4327260000000002
sg7
S'676'
p747
sg9
S'0'
sa(dp748
g6
F3.2715800000000002
sg7
S'306'
p749
sg9
S'0'
sa(dp750
g6
F3.2088679999999998
sg7
S'380'
p751
sg9
S'0'
sa(dp752
g6
F2.6915439999999999
sg7
S'556'
p753
sg9
S'0'
sa(dp754
g6
F2.5991209999999998
sg7
S'194'
p755
sg9
S'0'
sa(dp756
g6
F2.3746939999999999
sg7
S'674'
p757
sg9
S'0'
sa(dp758
g6
F2.2753909999999999
sg7
S'758'
p759
sg9
S'0'
sa(dp760
g6
F2.2703000000000002
sg7
S'782'
p761
sg9
S'0'
sa(dp762
g6
F1.9929730000000001
sg7
S'733'
p763
sg9
S'0'
sa(dp764
g6
F1.989071
sg7
S'417'
p765
sg9
S'0'
sa(dp766
g6
F1.988834
sg7
S'370'
p767
sg9
S'0'
sa(dp768
g6
F1.8361860000000001
sg7
S'994'
p769
sg9
S'0'
sa(dp770
g6
F1.764103
sg7
S'935'
p771
sg9
S'0'
sa(dp772
g6
F1.71719
sg7
S'296'
p773
sg9
S'0'
sa(dp774
g6
F1.714531
sg7
S'300'
p775
sg9
S'0'
sasg7
S'54'
p776
sg9
S'0'
sa(dp777
g3
(lp778
(dp779
g6
F9.3677650000000003
sg7
S'654'
p780
sg9
S'0'
sa(dp781
g6
F6.6003550000000004
sg7
S'92'
p782
sg9
S'0'
sa(dp783
g6
F5.3556350000000004
sg7
S'518'
p784
sg9
S'0'
sa(dp785
g6
F5.2135199999999999
sg7
S'679'
p786
sg9
S'0'
sa(dp787
g6
F4.2175580000000004
sg7
S'204'
p788
sg9
S'0'
sa(dp789
g6
F3.7632789999999998
sg7
S'963'
p790
sg9
S'0'
sa(dp791
g6
F3.7621859999999998
sg7
S'916'
p792
sg9
S'0'
sa(dp793
g6
F3.3676490000000001
sg7
S'995'
p794
sg9
S'0'
sa(dp795
g6
F3.2770079999999999
sg7
S'538'
p796
sg9
S'0'
sa(dp797
g6
F3.2374399999999999
sg7
S'285'
p798
sg9
S'0'
sa(dp799
g6
F2.947568
sg7
S'674'
p800
sg9
S'0'
sa(dp801
g6
F2.6670069999999999
sg7
S'183'
p802
sg9
S'0'
sa(dp803
g6
F2.5895440000000001
sg7
S'873'
p804
sg9
S'0'
sa(dp805
g6
F2.4482689999999998
sg7
S'975'
p806
sg9
S'0'
sa(dp807
g6
F2.23691
sg7
S'856'
p808
sg9
S'0'
sa(dp809
g6
F2.234165
sg7
S'608'
p810
sg9
S'0'
sa(dp811
g6
F2.2328220000000001
sg7
S'151'
p812
sg9
S'0'
sa(dp813
g6
F2.2033960000000001
sg7
S'353'
p814
sg9
S'0'
sa(dp815
g6
F2.171268
sg7
S'827'
p816
sg9
S'0'
sa(dp817
g6
F2.0676839999999999
sg7
S'651'
p818
sg9
S'0'
sasg7
S'92'
p819
sg9
S'0'
sa(dp820
g3
(lp821
(dp822
g6
F5.8851760000000004
sg7
S'25'
p823
sg9
S'0'
sa(dp824
g6
F5.4022690000000004
sg7
S'199'
p825
sg9
S'0'
sa(dp826
g6
F5.0910849999999996
sg7
S'15'
p827
sg9
S'0'
sa(dp828
g6
F5.019781
sg7
S'228'
p829
sg9
S'0'
sa(dp830
g6
F4.8059159999999999
sg7
S'452'
p831
sg9
S'0'
sa(dp832
g6
F4.237438
sg7
S'207'
p833
sg9
S'0'
sa(dp834
g6
F3.6357819999999998
sg7
S'85'
p835
sg9
S'0'
sa(dp836
g6
F3.1566049999999999
sg7
S'29'
p837
sg9
S'0'
sa(dp838
g6
F2.9413429999999998
sg7
S'325'
p839
sg9
S'0'
sa(dp840
g6
F2.929567
sg7
S'793'
p841
sg9
S'0'
sa(dp842
g6
F2.9029159999999998
sg7
S'586'
p843
sg9
S'0'
sa(dp844
g6
F2.8149470000000001
sg7
S'255'
p845
sg9
S'0'
sa(dp846
g6
F2.8076479999999999
sg7
S'429'
p847
sg9
S'0'
sa(dp848
g6
F2.6265839999999998
sg7
S'557'
p849
sg9
S'0'
sa(dp850
g6
F2.4721700000000002
sg7
S'743'
p851
sg9
S'0'
sa(dp852
g6
F2.3832610000000001
sg7
S'602'
p853
sg9
S'0'
sa(dp854
g6
F2.3705579999999999
sg7
S'874'
p855
sg9
S'0'
sa(dp856
g6
F2.1788159999999999
sg7
S'939'
p857
sg9
S'0'
sa(dp858
g6
F2.1066950000000002
sg7
S'258'
p859
sg9
S'0'
sa(dp860
g6
F1.918417
sg7
S'811'
p861
sg9
S'0'
sasg7
S'25'
p862
sg9
S'0'
sa(dp863
g3
(lp864
(dp865
g6
F8.2414989999999992
sg7
S'792'
p866
sg9
S'0'
sa(dp867
g6
F4.4984229999999998
sg7
S'326'
p868
sg9
S'0'
sa(dp869
g6
F4.4871790000000003
sg7
S'234'
p870
sg9
S'0'
sa(dp871
g6
F3.7418979999999999
sg7
S'344'
p872
sg9
S'0'
sa(dp873
g6
F3.6740819999999998
sg7
S'128'
p874
sg9
S'0'
sa(dp875
g6
F3.5973009999999999
sg7
S'246'
p876
sg9
S'0'
sa(dp877
g6
F3.378841
sg7
S'943'
p878
sg9
S'0'
sa(dp879
g6
F3.3366530000000001
sg7
S'7'
sg9
S'0'
sa(dp880
g6
F3.2955230000000002
sg7
S'768'
p881
sg9
S'0'
sa(dp882
g6
F3.1588859999999999
sg7
S'133'
p883
sg9
S'0'
sa(dp884
g6
F2.9378299999999999
sg7
S'549'
p885
sg9
S'0'
sa(dp886
g6
F2.908566
sg7
S'674'
p887
sg9
S'0'
sa(dp888
g6
F2.7944089999999999
sg7
S'201'
p889
sg9
S'0'
sa(dp890
g6
F2.7408890000000001
sg7
S'374'
p891
sg9
S'0'
sa(dp892
g6
F2.7158410000000002
sg7
S'367'
p893
sg9
S'0'
sa(dp894
g6
F2.5360149999999999
sg7
S'409'
p895
sg9
S'0'
sa(dp896
g6
F2.5338270000000001
sg7
S'36'
p897
sg9
S'0'
sa(dp898
g6
F2.5099200000000002
sg7
S'57'
p899
sg9
S'0'
sa(dp900
g6
F2.4532889999999998
sg7
S'821'
p901
sg9
S'0'
sa(dp902
g6
F2.4013610000000001
sg7
S'610'
p903
sg9
S'0'
sasg7
S'36'
p904
sg9
S'0'
sa(dp905
g3
(lp906
(dp907
g6
F7.7817869999999996
sg7
S'89'
p908
sg9
S'0'
sa(dp909
g6
F5.4688319999999999
sg7
S'203'
p910
sg9
S'0'
sa(dp911
g6
F4.8117910000000004
sg7
S'377'
p912
sg9
S'0'
sa(dp913
g6
F3.7956599999999998
sg7
S'211'
p914
sg9
S'0'
sa(dp915
g6
F3.7897319999999999
sg7
S'997'
p916
sg9
S'0'
sa(dp917
g6
F3.7406980000000001
sg7
S'694'
p918
sg9
S'0'
sa(dp919
g6
F3.3762810000000001
sg7
S'477'
p920
sg9
S'0'
sa(dp921
g6
F3.3139820000000002
sg7
S'199'
p922
sg9
S'0'
sa(dp923
g6
F3.2910330000000001
sg7
S'300'
p924
sg9
S'0'
sa(dp925
g6
F3.2702599999999999
sg7
S'99'
p926
sg9
S'0'
sa(dp927
g6
F3.2699569999999998
sg7
S'935'
p928
sg9
S'0'
sa(dp929
g6
F2.8307319999999998
sg7
S'557'
p930
sg9
S'0'
sa(dp931
g6
F2.8277939999999999
sg7
S'868'
p932
sg9
S'0'
sa(dp933
g6
F2.6191270000000002
sg7
S'759'
p934
sg9
S'0'
sa(dp935
g6
F2.6100949999999998
sg7
S'212'
p936
sg9
S'0'
sa(dp937
g6
F2.5635680000000001
sg7
S'436'
p938
sg9
S'0'
sa(dp939
g6
F2.5442490000000002
sg7
S'575'
p940
sg9
S'0'
sa(dp941
g6
F2.50989
sg7
S'810'
p942
sg9
S'0'
sa(dp943
g6
F2.5015139999999998
sg7
S'255'
p944
sg9
S'0'
sa(dp945
g6
F2.4956010000000002
sg7
S'918'
p946
sg9
S'0'
sasg7
S'89'
p947
sg9
S'0'
sa(dp948
g3
(lp949
(dp950
g6
F6.3312049999999997
sg7
S'548'
p951
sg9
S'0'
sa(dp952
g6
F5.885103
sg7
S'823'
p953
sg9
S'0'
sa(dp954
g6
F4.9848650000000001
sg7
S'962'
p955
sg9
S'0'
sa(dp956
g6
F4.9710159999999997
sg7
S'960'
p957
sg9
S'0'
sa(dp958
g6
F4.9603200000000003
sg7
S'14'
p959
sg9
S'0'
sa(dp960
g6
F4.8996719999999998
sg7
S'804'
p961
sg9
S'0'
sa(dp962
g6
F4.8148609999999996
sg7
S'688'
p963
sg9
S'0'
sa(dp964
g6
F4.5767309999999997
sg7
S'808'
p965
sg9
S'0'
sa(dp966
g6
F4.5606650000000002
sg7
S'652'
p967
sg9
S'0'
sa(dp968
g6
F4.1528510000000001
sg7
S'534'
p969
sg9
S'0'
sa(dp970
g6
F4.12418
sg7
S'33'
p971
sg9
S'0'
sa(dp972
g6
F3.7758630000000002
sg7
S'969'
p973
sg9
S'0'
sa(dp974
g6
F3.586039
sg7
S'805'
p975
sg9
S'0'
sa(dp976
g6
F3.503965
sg7
S'689'
p977
sg9
S'0'
sa(dp978
g6
F3.4037950000000001
sg7
S'568'
p979
sg9
S'0'
sa(dp980
g6
F3.3258359999999998
sg7
S'726'
p981
sg9
S'0'
sa(dp982
g6
F3.1139790000000001
sg7
S'979'
p983
sg9
S'0'
sa(dp984
g6
F3.0700080000000001
sg7
S'750'
p985
sg9
S'0'
sa(dp986
g6
F3.067142
sg7
S'590'
p987
sg9
S'0'
sa(dp988
g6
F3.051698
sg7
S'959'
p989
sg9
S'0'
sasg7
S'38'
p990
sg9
S'0'
sa(dp991
g3
(lp992
(dp993
g6
F9.5102209999999996
sg7
S'20'
p994
sg9
S'0'
sa(dp995
g6
F5.769501
sg7
S'641'
p996
sg9
S'0'
sa(dp997
g6
F5.3281080000000003
sg7
S'250'
p998
sg9
S'0'
sa(dp999
g6
F5.0143360000000001
sg7
S'930'
p1000
sg9
S'0'
sa(dp1001
g6
F4.9683840000000004
sg7
S'874'
p1002
sg9
S'0'
sa(dp1003
g6
F4.9243449999999998
sg7
S'607'
p1004
sg9
S'0'
sa(dp1005
g6
F4.9082600000000003
sg7
S'80'
p1006
sg9
S'0'
sa(dp1007
g6
F4.9078080000000002
sg7
S'644'
p1008
sg9
S'0'
sa(dp1009
g6
F4.8728449999999999
sg7
S'921'
p1010
sg9
S'0'
sa(dp1011
g6
F4.8195439999999996
sg7
S'779'
p1012
sg9
S'0'
sa(dp1013
g6
F4.8172889999999997
sg7
S'174'
p1014
sg9
S'0'
sa(dp1015
g6
F4.7292269999999998
sg7
S'421'
p1016
sg9
S'0'
sa(dp1017
g6
F4.641508
sg7
S'463'
p1018
sg9
S'0'
sa(dp1019
g6
F4.480499
sg7
S'355'
p1020
sg9
S'0'
sa(dp1021
g6
F4.3616010000000003
sg7
S'514'
p1022
sg9
S'0'
sa(dp1023
g6
F4.3545069999999999
sg7
S'197'
p1024
sg9
S'0'
sa(dp1025
g6
F4.3481750000000003
sg7
S'660'
p1026
sg9
S'0'
sa(dp1027
g6
F4.322813
sg7
S'200'
p1028
sg9
S'0'
sa(dp1029
g6
F4.3076800000000004
sg7
S'562'
p1030
sg9
S'0'
sa(dp1031
g6
F4.1940169999999997
sg7
S'335'
p1032
sg9
S'0'
sasg7
S'20'
p1033
sg9
S'0'
sa(dp1034
g3
(lp1035
(dp1036
g6
F5.1652389999999997
sg7
S'66'
p1037
sg9
S'0'
sa(dp1038
g6
F3.578983
sg7
S'556'
p1039
sg9
S'0'
sa(dp1040
g6
F3.5434160000000001
sg7
S'877'
p1041
sg9
S'0'
sa(dp1042
g6
F3.4237289999999998
sg7
S'930'
p1043
sg9
S'0'
sa(dp1044
g6
F2.8430520000000001
sg7
S'211'
p1045
sg9
S'0'
sa(dp1046
g6
F2.82077
sg7
S'607'
p1047
sg9
S'0'
sa(dp1048
g6
F2.8080599999999998
sg7
S'26'
p1049
sg9
S'0'
sa(dp1050
g6
F2.7517399999999999
sg7
S'264'
p1051
sg9
S'0'
sa(dp1052
g6
F2.6674250000000002
sg7
S'345'
p1053
sg9
S'0'
sa(dp1054
g6
F2.6625209999999999
sg7
S'203'
p1055
sg9
S'0'
sa(dp1056
g6
F2.6365090000000002
sg7
S'509'
p1057
sg9
S'0'
sa(dp1058
g6
F2.5520100000000001
sg7
S'660'
p1059
sg9
S'0'
sa(dp1060
g6
F2.5350670000000002
sg7
S'351'
p1061
sg9
S'0'
sa(dp1062
g6
F2.4891610000000002
sg7
S'672'
p1063
sg9
S'0'
sa(dp1064
g6
F2.3229500000000001
sg7
S'447'
p1065
sg9
S'0'
sa(dp1066
g6
F2.3166259999999999
sg7
S'175'
p1067
sg9
S'0'
sa(dp1068
g6
F2.294889
sg7
S'874'
p1069
sg9
S'0'
sa(dp1070
g6
F2.287655
sg7
S'421'
p1071
sg9
S'0'
sa(dp1072
g6
F2.2660979999999999
sg7
S'190'
p1073
sg9
S'0'
sa(dp1074
g6
F2.2455620000000001
sg7
S'29'
p1075
sg9
S'0'
sasg7
S'66'
p1076
sg9
S'0'
sa(dp1077
g3
(lp1078
(dp1079
g6
F7.3099040000000004
sg7
S'162'
p1080
sg9
S'0'
sa(dp1081
g6
F3.695303
sg7
S'165'
p1082
sg9
S'0'
sa(dp1083
g6
F3.4134980000000001
sg7
S'722'
p1084
sg9
S'0'
sa(dp1085
g6
F3.2785090000000001
sg7
S'447'
p1086
sg9
S'0'
sa(dp1087
g6
F3.0755560000000002
sg7
S'509'
p1088
sg9
S'0'
sa(dp1089
g6
F2.791058
sg7
S'877'
p1090
sg9
S'0'
sa(dp1091
g6
F2.7689170000000001
sg7
S'183'
p1092
sg9
S'0'
sa(dp1093
g6
F2.7134800000000001
sg7
S'654'
p1094
sg9
S'0'
sa(dp1095
g6
F2.5983489999999998
sg7
S'196'
p1096
sg9
S'0'
sa(dp1097
g6
F2.5511529999999998
sg7
S'56'
p1098
sg9
S'0'
sa(dp1099
g6
F2.5478149999999999
sg7
S'887'
p1100
sg9
S'0'
sa(dp1101
g6
F2.5075150000000002
sg7
S'292'
p1102
sg9
S'0'
sa(dp1103
g6
F2.3495159999999999
sg7
S'879'
p1104
sg9
S'0'
sa(dp1105
g6
F2.3048989999999998
sg7
S'329'
p1106
sg9
S'0'
sa(dp1107
g6
F2.292726
sg7
S'674'
p1108
sg9
S'0'
sa(dp1109
g6
F2.245066
sg7
S'47'
p1110
sg9
S'0'
sa(dp1111
g6
F2.1987109999999999
sg7
S'664'
p1112
sg9
S'0'
sa(dp1113
g6
F2.166023
sg7
S'679'
p1114
sg9
S'0'
sa(dp1115
g6
F2.1254140000000001
sg7
S'75'
p1116
sg9
S'0'
sa(dp1117
g6
F2.0261290000000001
sg7
S'811'
p1118
sg9
S'0'
sasg7
S'82'
p1119
sg9
S'0'
sa(dp1120
g3
(lp1121
(dp1122
g6
F8.0126720000000002
sg7
S'11'
p1123
sg9
S'0'
sa(dp1124
g6
F6.3893339999999998
sg7
S'335'
p1125
sg9
S'0'
sa(dp1126
g6
F6.1336630000000003
sg7
S'196'
p1127
sg9
S'0'
sa(dp1128
g6
F5.2661059999999997
sg7
S'160'
p1129
sg9
S'0'
sa(dp1130
g6
F4.1197530000000002
sg7
S'467'
p1131
sg9
S'0'
sa(dp1132
g6
F3.6401919999999999
sg7
S'351'
p1133
sg9
S'0'
sa(dp1134
g6
F3.2834509999999999
sg7
S'42'
p1135
sg9
S'0'
sa(dp1136
g6
F3.2231200000000002
sg7
S'340'
p1137
sg9
S'0'
sa(dp1138
g6
F3.1788919999999998
sg7
S'80'
p1139
sg9
S'0'
sa(dp1140
g6
F3.1290529999999999
sg7
S'860'
p1141
sg9
S'0'
sa(dp1142
g6
F3.0675110000000001
sg7
S'930'
p1143
sg9
S'0'
sa(dp1144
g6
F3.0427879999999998
sg7
S'264'
p1145
sg9
S'0'
sa(dp1146
g6
F2.985271
sg7
S'436'
p1147
sg9
S'0'
sa(dp1148
g6
F2.9526620000000001
sg7
S'322'
p1149
sg9
S'0'
sa(dp1150
g6
F2.9394650000000002
sg7
S'477'
p1151
sg9
S'0'
sa(dp1152
g6
F2.916477
sg7
S'656'
p1153
sg9
S'0'
sa(dp1154
g6
F2.912598
sg7
S'798'
p1155
sg9
S'0'
sa(dp1156
g6
F2.9037130000000002
sg7
S'894'
p1157
sg9
S'0'
sa(dp1158
g6
F2.886358
sg7
S'935'
p1159
sg9
S'0'
sa(dp1160
g6
F2.8004989999999998
sg7
S'20'
p1161
sg9
S'0'
sasg7
S'11'
p1162
sg9
S'0'
sa(dp1163
g3
(lp1164
(dp1165
g6
F2.3692739999999999
sg7
S'223'
p1166
sg9
S'0'
sa(dp1167
g6
F2.104374
sg7
S'647'
p1168
sg9
S'0'
sa(dp1169
g6
F1.997862
sg7
S'840'
p1170
sg9
S'0'
sa(dp1171
g6
F1.5674920000000001
sg7
S'179'
p1172
sg9
S'0'
sa(dp1173
g6
F1.5339929999999999
sg7
S'824'
p1174
sg9
S'0'
sa(dp1175
g6
F1.4520820000000001
sg7
S'464'
p1176
sg9
S'0'
sa(dp1177
g6
F1.4112009999999999
sg7
S'47'
p1178
sg9
S'0'
sa(dp1179
g6
F1.33934
sg7
S'275'
p1180
sg9
S'0'
sa(dp1181
g6
F1.3351150000000001
sg7
S'257'
p1182
sg9
S'0'
sa(dp1183
g6
F1.1674610000000001
sg7
S'298'
p1184
sg9
S'0'
sa(dp1185
g6
F1.009134
sg7
S'143'
p1186
sg9
S'0'
sa(dp1187
g6
F0.98362700000000003
sg7
S'568'
p1188
sg9
S'0'
sa(dp1189
g6
F0.95180900000000002
sg7
S'256'
p1190
sg9
S'0'
sa(dp1191
g6
F0.85058999999999996
sg7
S'717'
p1192
sg9
S'0'
sa(dp1193
g6
F0.84435499999999997
sg7
S'922'
p1194
sg9
S'0'
sa(dp1195
g6
F0.73697999999999997
sg7
S'981'
p1196
sg9
S'0'
sa(dp1197
g6
F0.71056799999999998
sg7
S'119'
p1198
sg9
S'0'
sa(dp1199
g6
F0.66430999999999996
sg7
S'449'
p1200
sg9
S'0'
sa(dp1201
g6
F0.64155600000000002
sg7
S'844'
p1202
sg9
S'0'
sa(dp1203
g6
F0.63428300000000004
sg7
S'528'
p1204
sg9
S'0'
sasg7
S'30'
p1205
sg9
S'0'
sa(dp1206
g3
(lp1207
(dp1208
g6
F6.1801849999999998
sg7
S'812'
p1209
sg9
S'0'
sa(dp1210
g6
F3.2426170000000001
sg7
S'201'
p1211
sg9
S'0'
sa(dp1212
g6
F3.220596
sg7
S'711'
p1213
sg9
S'0'
sa(dp1214
g6
F3.0360830000000001
sg7
S'107'
p1215
sg9
S'0'
sa(dp1216
g6
F2.5720559999999999
sg7
S'674'
p1217
sg9
S'0'
sa(dp1218
g6
F2.559231
sg7
S'522'
p1219
sg9
S'0'
sa(dp1220
g6
F2.484299
sg7
S'625'
p1221
sg9
S'0'
sa(dp1222
g6
F2.351334
sg7
S'571'
p1223
sg9
S'0'
sa(dp1224
g6
F2.186874
sg7
S'409'
p1225
sg9
S'0'
sa(dp1226
g6
F2.1647400000000001
sg7
S'260'
p1227
sg9
S'0'
sa(dp1228
g6
F2.0620859999999999
sg7
S'1'
sg9
S'0'
sa(dp1229
g6
F2.0265029999999999
sg7
S'276'
p1230
sg9
S'0'
sa(dp1231
g6
F1.914013
sg7
S'285'
p1232
sg9
S'0'
sa(dp1233
g6
F1.8256969999999999
sg7
S'149'
p1234
sg9
S'0'
sa(dp1235
g6
F1.780958
sg7
S'269'
p1236
sg9
S'0'
sa(dp1237
g6
F1.7606409999999999
sg7
S'608'
p1238
sg9
S'0'
sa(dp1239
g6
F1.7011719999999999
sg7
S'923'
p1240
sg9
S'0'
sa(dp1241
g6
F1.6946049999999999
sg7
S'940'
p1242
sg9
S'0'
sa(dp1243
g6
F1.691397
sg7
S'375'
p1244
sg9
S'0'
sa(dp1245
g6
F1.6692180000000001
sg7
S'696'
p1246
sg9
S'0'
sasg7
S'1'
sg9
S'0'
sa(dp1247
g3
(lp1248
(dp1249
g6
F4.4948040000000002
sg7
S'612'
p1250
sg9
S'0'
sa(dp1251
g6
F4.3601020000000004
sg7
S'238'
p1252
sg9
S'0'
sa(dp1253
g6
F4.237762
sg7
S'35'
p1254
sg9
S'0'
sa(dp1255
g6
F3.7959459999999998
sg7
S'245'
p1256
sg9
S'0'
sa(dp1257
g6
F3.26762
sg7
S'803'
p1258
sg9
S'0'
sa(dp1259
g6
F3.1361159999999999
sg7
S'328'
p1260
sg9
S'0'
sa(dp1261
g6
F3.030338
sg7
S'12'
p1262
sg9
S'0'
sa(dp1263
g6
F2.8750420000000001
sg7
S'285'
p1264
sg9
S'0'
sa(dp1265
g6
F2.8737810000000001
sg7
S'569'
p1266
sg9
S'0'
sa(dp1267
g6
F2.8257599999999998
sg7
S'735'
p1268
sg9
S'0'
sa(dp1269
g6
F2.7505739999999999
sg7
S'354'
p1270
sg9
S'0'
sa(dp1271
g6
F2.7346149999999998
sg7
S'242'
p1272
sg9
S'0'
sa(dp1273
g6
F2.7223280000000001
sg7
S'824'
p1274
sg9
S'0'
sa(dp1275
g6
F2.5837289999999999
sg7
S'662'
p1276
sg9
S'0'
sa(dp1277
g6
F2.5337540000000001
sg7
S'674'
p1278
sg9
S'0'
sa(dp1279
g6
F2.5209869999999999
sg7
S'725'
p1280
sg9
S'0'
sa(dp1281
g6
F2.4395889999999998
sg7
S'751'
p1282
sg9
S'0'
sa(dp1283
g6
F2.2389579999999998
sg7
S'655'
p1284
sg9
S'0'
sa(dp1285
g6
F2.213028
sg7
S'364'
p1286
sg9
S'0'
sa(dp1287
g6
F2.1850589999999999
sg7
S'767'
p1288
sg9
S'0'
sasg7
S'12'
p1289
sg9
S'0'
sa(dp1290
g3
(lp1291
(dp1292
g6
F6.8235929999999998
sg7
S'644'
p1293
sg9
S'0'
sa(dp1294
g6
F5.231363
sg7
S'239'
p1295
sg9
S'0'
sa(dp1296
g6
F5.0930650000000002
sg7
S'421'
p1297
sg9
S'0'
sa(dp1298
g6
F4.7101800000000003
sg7
S'971'
p1299
sg9
S'0'
sa(dp1300
g6
F4.3591350000000002
sg7
S'558'
p1301
sg9
S'0'
sa(dp1302
g6
F4.2892739999999998
sg7
S'461'
p1303
sg9
S'0'
sa(dp1304
g6
F4.2187419999999998
sg7
S'894'
p1305
sg9
S'0'
sa(dp1306
g6
F4.0559770000000004
sg7
S'338'
p1307
sg9
S'0'
sa(dp1308
g6
F3.9978220000000002
sg7
S'516'
p1309
sg9
S'0'
sa(dp1310
g6
F3.954447
sg7
S'345'
p1311
sg9
S'0'
sa(dp1312
g6
F3.880468
sg7
S'196'
p1313
sg9
S'0'
sa(dp1314
g6
F3.8093620000000001
sg7
S'457'
p1315
sg9
S'0'
sa(dp1316
g6
F3.7910590000000002
sg7
S'20'
p1317
sg9
S'0'
sa(dp1318
g6
F3.5239600000000002
sg7
S'641'
p1319
sg9
S'0'
sa(dp1320
g6
F3.4807049999999999
sg7
S'351'
p1321
sg9
S'0'
sa(dp1322
g6
F3.4288599999999998
sg7
S'467'
p1323
sg9
S'0'
sa(dp1324
g6
F3.407705
sg7
S'921'
p1325
sg9
S'0'
sa(dp1326
g6
F3.390266
sg7
S'314'
p1327
sg9
S'0'
sa(dp1328
g6
F3.1893769999999999
sg7
S'261'
p1329
sg9
S'0'
sa(dp1330
g6
F3.1617769999999998
sg7
S'629'
p1331
sg9
S'0'
sasg7
S'87'
p1332
sg9
S'0'
sa(dp1333
g3
(lp1334
(dp1335
g6
F7.7750209999999997
sg7
S'950'
p1336
sg9
S'0'
sa(dp1337
g6
F7.556273
sg7
S'726'
p1338
sg9
S'0'
sa(dp1339
g6
F6.9856410000000002
sg7
S'14'
p1340
sg9
S'0'
sa(dp1341
g6
F6.6845230000000004
sg7
S'652'
p1342
sg9
S'0'
sa(dp1343
g6
F6.5952320000000002
sg7
S'135'
p1344
sg9
S'0'
sa(dp1345
g6
F6.5067769999999996
sg7
S'962'
p1346
sg9
S'0'
sa(dp1347
g6
F5.9932629999999998
sg7
S'28'
p1348
sg9
S'0'
sa(dp1349
g6
F5.9647579999999998
sg7
S'595'
p1350
sg9
S'0'
sa(dp1351
g6
F5.8470149999999999
sg7
S'823'
p1352
sg9
S'0'
sa(dp1353
g6
F5.7524509999999998
sg7
S'721'
p1354
sg9
S'0'
sa(dp1355
g6
F5.7121320000000004
sg7
S'534'
p1356
sg9
S'0'
sa(dp1357
g6
F5.3364729999999998
sg7
S'67'
p1358
sg9
S'0'
sa(dp1359
g6
F5.2746240000000002
sg7
S'805'
p1360
sg9
S'0'
sa(dp1361
g6
F4.9565260000000002
sg7
S'689'
p1362
sg9
S'0'
sa(dp1363
g6
F4.783817
sg7
S'960'
p1364
sg9
S'0'
sa(dp1365
g6
F4.6231689999999999
sg7
S'969'
p1366
sg9
S'0'
sa(dp1367
g6
F4.6151280000000003
sg7
S'808'
p1368
sg9
S'0'
sa(dp1369
g6
F4.61083
sg7
S'878'
p1370
sg9
S'0'
sa(dp1371
g6
F4.1582780000000001
sg7
S'804'
p1372
sg9
S'0'
sa(dp1373
g6
F4.0258269999999996
sg7
S'959'
p1374
sg9
S'0'
sasg7
S'28'
p1375
sg9
S'0'
sa(dp1376
g3
(lp1377
(dp1378
g6
F5.8748529999999999
sg7
S'801'
p1379
sg9
S'0'
sa(dp1380
g6
F5.6153300000000002
sg7
S'0'
sg9
S'0'
sa(dp1381
g6
F5.057207
sg7
S'170'
p1382
sg9
S'0'
sa(dp1383
g6
F4.9391559999999997
sg7
S'631'
p1384
sg9
S'0'
sa(dp1385
g6
F4.6593299999999997
sg7
S'902'
p1386
sg9
S'0'
sa(dp1387
g6
F4.6360609999999998
sg7
S'944'
p1388
sg9
S'0'
sa(dp1389
g6
F4.45838
sg7
S'829'
p1390
sg9
S'0'
sa(dp1391
g6
F4.3221360000000004
sg7
S'262'
p1392
sg9
S'0'
sa(dp1393
g6
F4.2087960000000004
sg7
S'53'
p1394
sg9
S'0'
sa(dp1395
g6
F4.1523209999999997
sg7
S'279'
p1396
sg9
S'0'
sa(dp1397
g6
F4.0688250000000004
sg7
S'90'
p1398
sg9
S'0'
sa(dp1399
g6
F3.7397629999999999
sg7
S'140'
p1400
sg9
S'0'
sa(dp1401
g6
F3.6751520000000002
sg7
S'167'
p1402
sg9
S'0'
sa(dp1403
g6
F3.6708150000000002
sg7
S'942'
p1404
sg9
S'0'
sa(dp1405
g6
F3.4322050000000002
sg7
S'256'
p1406
sg9
S'0'
sa(dp1407
g6
F3.3575189999999999
sg7
S'220'
p1408
sg9
S'0'
sa(dp1409
g6
F3.1800060000000001
sg7
S'602'
p1410
sg9
S'0'
sa(dp1411
g6
F3.1618439999999999
sg7
S'498'
p1412
sg9
S'0'
sa(dp1413
g6
F2.9565139999999999
sg7
S'672'
p1414
sg9
S'0'
sa(dp1415
g6
F2.8858679999999999
sg7
S'570'
p1416
sg9
S'0'
sasg7
S'90'
p1417
sg9
S'0'
sa(dp1418
g3
(lp1419
(dp1420
g6
F5.2343289999999998
sg7
S'806'
p1421
sg9
S'0'
sa(dp1422
g6
F5.0763340000000001
sg7
S'615'
p1423
sg9
S'0'
sa(dp1424
g6
F4.6224439999999998
sg7
S'841'
p1425
sg9
S'0'
sa(dp1426
g6
F4.5563399999999996
sg7
S'34'
p1427
sg9
S'0'
sa(dp1428
g6
F4.5174390000000004
sg7
S'908'
p1429
sg9
S'0'
sa(dp1430
g6
F4.4493099999999997
sg7
S'451'
p1431
sg9
S'0'
sa(dp1432
g6
F3.5881419999999999
sg7
S'118'
p1433
sg9
S'0'
sa(dp1434
g6
F3.3349440000000001
sg7
S'605'
p1435
sg9
S'0'
sa(dp1436
g6
F3.3097400000000001
sg7
S'970'
p1437
sg9
S'0'
sa(dp1438
g6
F3.2068289999999999
sg7
S'116'
p1439
sg9
S'0'
sa(dp1440
g6
F3.1956880000000001
sg7
S'957'
p1441
sg9
S'0'
sa(dp1442
g6
F3.1556850000000001
sg7
S'591'
p1443
sg9
S'0'
sa(dp1444
g6
F3.118938
sg7
S'764'
p1445
sg9
S'0'
sa(dp1446
g6
F3.0224440000000001
sg7
S'879'
p1447
sg9
S'0'
sa(dp1448
g6
F3.0207389999999998
sg7
S'98'
p1449
sg9
S'0'
sa(dp1450
g6
F2.8575780000000002
sg7
S'258'
p1451
sg9
S'0'
sa(dp1452
g6
F2.8183560000000001
sg7
S'23'
p1453
sg9
S'0'
sa(dp1454
g6
F2.7670940000000002
sg7
S'654'
p1455
sg9
S'0'
sa(dp1456
g6
F2.7587380000000001
sg7
S'97'
p1457
sg9
S'0'
sa(dp1458
g6
F2.74424
sg7
S'259'
p1459
sg9
S'0'
sasg7
S'7'
sg9
S'0'
sa(dp1460
g3
(lp1461
(dp1462
g6
F4.4409559999999999
sg7
S'794'
p1463
sg9
S'0'
sa(dp1464
g6
F4.2961349999999996
sg7
S'696'
p1465
sg9
S'0'
sa(dp1466
g6
F4.0358919999999996
sg7
S'279'
p1467
sg9
S'0'
sa(dp1468
g6
F3.9892289999999999
sg7
S'19'
p1469
sg9
S'0'
sa(dp1470
g6
F3.8723529999999999
sg7
S'126'
p1471
sg9
S'0'
sa(dp1472
g6
F3.8242419999999999
sg7
S'720'
p1473
sg9
S'0'
sa(dp1474
g6
F3.8039260000000001
sg7
S'139'
p1475
sg9
S'0'
sa(dp1476
g6
F3.7678929999999999
sg7
S'105'
p1477
sg9
S'0'
sa(dp1478
g6
F3.7537060000000002
sg7
S'905'
p1479
sg9
S'0'
sa(dp1480
g6
F3.52128
sg7
S'220'
p1481
sg9
S'0'
sa(dp1482
g6
F3.5173109999999999
sg7
S'58'
p1483
sg9
S'0'
sa(dp1484
g6
F3.3471510000000002
sg7
S'396'
p1485
sg9
S'0'
sa(dp1486
g6
F3.331528
sg7
S'869'
p1487
sg9
S'0'
sa(dp1488
g6
F3.3228580000000001
sg7
S'811'
p1489
sg9
S'0'
sa(dp1490
g6
F3.2815110000000001
sg7
S'309'
p1491
sg9
S'0'
sa(dp1492
g6
F3.2761719999999999
sg7
S'436'
p1493
sg9
S'0'
sa(dp1494
g6
F3.1956250000000002
sg7
S'426'
p1495
sg9
S'0'
sa(dp1496
g6
F3.0654840000000001
sg7
S'393'
p1497
sg9
S'0'
sa(dp1498
g6
F3.0062220000000002
sg7
S'934'
p1499
sg9
S'0'
sa(dp1500
g6
F2.9376329999999999
sg7
S'214'
p1501
sg9
S'0'
sasg7
S'19'
p1502
sg9
S'0'
sa(dp1503
g3
(lp1504
(dp1505
g6
F7.876595
sg7
S'361'
p1506
sg9
S'0'
sa(dp1507
g6
F6.399248
sg7
S'242'
p1508
sg9
S'0'
sa(dp1509
g6
F6.1740250000000003
sg7
S'95'
p1510
sg9
S'0'
sa(dp1511
g6
F6.0001030000000002
sg7
S'711'
p1512
sg9
S'0'
sa(dp1513
g6
F5.5950949999999997
sg7
S'205'
p1514
sg9
S'0'
sa(dp1515
g6
F5.4939169999999997
sg7
S'695'
p1516
sg9
S'0'
sa(dp1517
g6
F4.9867039999999996
sg7
S'285'
p1518
sg9
S'0'
sa(dp1519
g6
F4.7149369999999999
sg7
S'987'
p1520
sg9
S'0'
sa(dp1521
g6
F4.4095649999999997
sg7
S'47'
p1522
sg9
S'0'
sa(dp1523
g6
F4.2752860000000004
sg7
S'746'
p1524
sg9
S'0'
sa(dp1525
g6
F3.836052
sg7
S'2'
sg9
S'0'
sa(dp1526
g6
F3.6160999999999999
sg7
S'910'
p1527
sg9
S'0'
sa(dp1528
g6
F3.5124740000000001
sg7
S'658'
p1529
sg9
S'0'
sa(dp1530
g6
F3.4531540000000001
sg7
S'492'
p1531
sg9
S'0'
sa(dp1532
g6
F3.4110619999999998
sg7
S'312'
p1533
sg9
S'0'
sa(dp1534
g6
F3.3766349999999998
sg7
S'324'
p1535
sg9
S'0'
sa(dp1536
g6
F3.3122539999999998
sg7
S'887'
p1537
sg9
S'0'
sa(dp1538
g6
F3.3016589999999999
sg7
S'258'
p1539
sg9
S'0'
sa(dp1540
g6
F3.2237089999999999
sg7
S'401'
p1541
sg9
S'0'
sa(dp1542
g6
F3.217533
sg7
S'920'
p1543
sg9
S'0'
sasg7
S'59'
p1544
sg9
S'0'
sa(dp1545
g3
(lp1546
(dp1547
g6
F7.2017170000000004
sg7
S'923'
p1548
sg9
S'0'
sa(dp1549
g6
F6.4345699999999999
sg7
S'502'
p1550
sg9
S'0'
sa(dp1551
g6
F6.2967399999999998
sg7
S'171'
p1552
sg9
S'0'
sa(dp1553
g6
F6.100079
sg7
S'625'
p1554
sg9
S'0'
sa(dp1555
g6
F5.768389
sg7
S'83'
p1556
sg9
S'0'
sa(dp1557
g6
F5.4266449999999997
sg7
S'269'
p1558
sg9
S'0'
sa(dp1559
g6
F5.0852550000000001
sg7
S'552'
p1560
sg9
S'0'
sa(dp1561
g6
F5.0333690000000004
sg7
S'138'
p1562
sg9
S'0'
sa(dp1563
g6
F4.6619070000000002
sg7
S'667'
p1564
sg9
S'0'
sa(dp1565
g6
F4.6363219999999998
sg7
S'953'
p1566
sg9
S'0'
sa(dp1567
g6
F4.437284
sg7
S'409'
p1568
sg9
S'0'
sa(dp1569
g6
F4.0557400000000001
sg7
S'727'
p1570
sg9
S'0'
sa(dp1571
g6
F4.0410880000000002
sg7
S'17'
p1572
sg9
S'0'
sa(dp1573
g6
F3.9993590000000001
sg7
S'361'
p1574
sg9
S'0'
sa(dp1575
g6
F3.8806129999999999
sg7
S'632'
p1576
sg9
S'0'
sa(dp1577
g6
F3.8323230000000001
sg7
S'649'
p1578
sg9
S'0'
sa(dp1579
g6
F3.8140489999999998
sg7
S'1'
sg9
S'0'
sa(dp1580
g6
F3.7781009999999999
sg7
S'365'
p1581
sg9
S'0'
sa(dp1582
g6
F3.6075759999999999
sg7
S'549'
p1583
sg9
S'0'
sa(dp1584
g6
F3.5976300000000001
sg7
S'285'
p1585
sg9
S'0'
sasg7
S'83'
p1586
sg9
S'0'
sa(dp1587
g3
(lp1588
(dp1589
g6
F7.8189250000000001
sg7
S'39'
p1590
sg9
S'0'
sa(dp1591
g6
F4.4314900000000002
sg7
S'465'
p1592
sg9
S'0'
sa(dp1593
g6
F4.0107520000000001
sg7
S'803'
p1594
sg9
S'0'
sa(dp1595
g6
F4.006392
sg7
S'245'
p1596
sg9
S'0'
sa(dp1597
g6
F3.8296359999999998
sg7
S'285'
p1598
sg9
S'0'
sa(dp1599
g6
F3.7829329999999999
sg7
S'674'
p1600
sg9
S'0'
sa(dp1601
g6
F3.5890580000000001
sg7
S'258'
p1602
sg9
S'0'
sa(dp1603
g6
F3.5086819999999999
sg7
S'242'
p1604
sg9
S'0'
sa(dp1605
g6
F3.3938920000000001
sg7
S'586'
p1606
sg9
S'0'
sa(dp1607
g6
F3.1130559999999998
sg7
S'662'
p1608
sg9
S'0'
sa(dp1609
g6
F3.0582180000000001
sg7
S'9'
sg9
S'0'
sa(dp1610
g6
F3.0095420000000002
sg7
S'525'
p1611
sg9
S'0'
sa(dp1612
g6
F2.77088
sg7
S'94'
p1613
sg9
S'0'
sa(dp1614
g6
F2.7293889999999998
sg7
S'49'
p1615
sg9
S'0'
sa(dp1616
g6
F2.720825
sg7
S'85'
p1617
sg9
S'0'
sa(dp1618
g6
F2.695173
sg7
S'569'
p1619
sg9
S'0'
sa(dp1620
g6
F2.687675
sg7
S'241'
p1621
sg9
S'0'
sa(dp1622
g6
F2.6870859999999999
sg7
S'961'
p1623
sg9
S'0'
sa(dp1624
g6
F2.6255649999999999
sg7
S'682'
p1625
sg9
S'0'
sa(dp1626
g6
F2.5654680000000001
sg7
S'489'
p1627
sg9
S'0'
sasg7
S'39'
p1628
sg9
S'0'
sa(dp1629
g3
(lp1630
(dp1631
g6
F5.4204119999999998
sg7
S'490'
p1632
sg9
S'0'
sa(dp1633
g6
F5.344023
sg7
S'9'
sg9
S'0'
sa(dp1634
g6
F5.2490410000000001
sg7
S'476'
p1635
sg9
S'0'
sa(dp1636
g6
F4.9402689999999998
sg7
S'903'
p1637
sg9
S'0'
sa(dp1638
g6
F4.8377879999999998
sg7
S'987'
p1639
sg9
S'0'
sa(dp1640
g6
F4.7964130000000003
sg7
S'244'
p1641
sg9
S'0'
sa(dp1642
g6
F4.6618649999999997
sg7
S'849'
p1643
sg9
S'0'
sa(dp1644
g6
F4.6240079999999999
sg7
S'882'
p1645
sg9
S'0'
sa(dp1646
g6
F4.5341839999999998
sg7
S'632'
p1647
sg9
S'0'
sa(dp1648
g6
F4.3940469999999996
sg7
S'826'
p1649
sg9
S'0'
sa(dp1650
g6
F4.0690860000000004
sg7
S'822'
p1651
sg9
S'0'
sa(dp1652
g6
F3.7686769999999998
sg7
S'994'
p1653
sg9
S'0'
sa(dp1654
g6
F3.5616819999999998
sg7
S'470'
p1655
sg9
S'0'
sa(dp1656
g6
F3.5534690000000002
sg7
S'618'
p1657
sg9
S'0'
sa(dp1658
g6
F3.534071
sg7
S'816'
p1659
sg9
S'0'
sa(dp1660
g6
F3.530046
sg7
S'499'
p1661
sg9
S'0'
sa(dp1662
g6
F3.46855
sg7
S'4'
sg9
S'0'
sa(dp1663
g6
F3.4481320000000002
sg7
S'579'
p1664
sg9
S'0'
sa(dp1665
g6
F3.4160900000000001
sg7
S'769'
p1666
sg9
S'0'
sa(dp1667
g6
F3.3826749999999999
sg7
S'85'
p1668
sg9
S'0'
sasg7
S'4'
sg9
S'0'
sa(dp1669
g3
(lp1670
(dp1671
g6
F6.2240580000000003
sg7
S'5'
sg9
S'0'
sa(dp1672
g6
F5.2057270000000004
sg7
S'906'
p1673
sg9
S'0'
sa(dp1674
g6
F4.2199330000000002
sg7
S'796'
p1675
sg9
S'0'
sa(dp1676
g6
F3.9313699999999998
sg7
S'303'
p1677
sg9
S'0'
sa(dp1678
g6
F3.9022770000000002
sg7
S'409'
p1679
sg9
S'0'
sa(dp1680
g6
F3.6985890000000001
sg7
S'659'
p1681
sg9
S'0'
sa(dp1682
g6
F3.4107059999999998
sg7
S'549'
p1683
sg9
S'0'
sa(dp1684
g6
F3.2252860000000001
sg7
S'916'
p1685
sg9
S'0'
sa(dp1686
g6
F2.928566
sg7
S'402'
p1687
sg9
S'0'
sa(dp1688
g6
F2.739401
sg7
S'357'
p1689
sg9
S'0'
sa(dp1690
g6
F2.6662979999999998
sg7
S'365'
p1691
sg9
S'0'
sa(dp1692
g6
F2.6401270000000001
sg7
S'890'
p1693
sg9
S'0'
sa(dp1694
g6
F2.5110990000000002
sg7
S'985'
p1695
sg9
S'0'
sa(dp1696
g6
F2.3836040000000001
sg7
S'903'
p1697
sg9
S'0'
sa(dp1698
g6
F2.275763
sg7
S'803'
p1699
sg9
S'0'
sa(dp1700
g6
F2.2589049999999999
sg7
S'171'
p1701
sg9
S'0'
sa(dp1702
g6
F2.168777
sg7
S'748'
p1703
sg9
S'0'
sa(dp1704
g6
F2.1371519999999999
sg7
S'847'
p1705
sg9
S'0'
sa(dp1706
g6
F2.1338810000000001
sg7
S'201'
p1707
sg9
S'0'
sa(dp1708
g6
F2.1204700000000001
sg7
S'73'
p1709
sg9
S'0'
sasg7
S'5'
sg9
S'0'
sa(dp1710
g3
(lp1711
(dp1712
g6
F6.3656249999999996
sg7
S'743'
p1713
sg9
S'0'
sa(dp1714
g6
F5.4499449999999996
sg7
S'405'
p1715
sg9
S'0'
sa(dp1716
g6
F5.1083030000000003
sg7
S'696'
p1717
sg9
S'0'
sa(dp1718
g6
F3.9304579999999998
sg7
S'412'
p1719
sg9
S'0'
sa(dp1720
g6
F3.8778359999999998
sg7
S'115'
p1721
sg9
S'0'
sa(dp1722
g6
F3.5772840000000001
sg7
S'541'
p1723
sg9
S'0'
sa(dp1724
g6
F2.8543280000000002
sg7
S'931'
p1725
sg9
S'0'
sa(dp1726
g6
F2.7418079999999998
sg7
S'79'
p1727
sg9
S'0'
sa(dp1728
g6
F2.7202109999999999
sg7
S'735'
p1729
sg9
S'0'
sa(dp1730
g6
F2.6360869999999998
sg7
S'674'
p1731
sg9
S'0'
sa(dp1732
g6
F2.5725150000000001
sg7
S'152'
p1733
sg9
S'0'
sa(dp1734
g6
F2.5427650000000002
sg7
S'276'
p1735
sg9
S'0'
sa(dp1736
g6
F2.4866329999999999
sg7
S'270'
p1737
sg9
S'0'
sa(dp1738
g6
F2.451057
sg7
S'309'
p1739
sg9
S'0'
sa(dp1740
g6
F2.4038580000000001
sg7
S'85'
p1741
sg9
S'0'
sa(dp1742
g6
F2.383896
sg7
S'812'
p1743
sg9
S'0'
sa(dp1744
g6
F2.310953
sg7
S'762'
p1745
sg9
S'0'
sa(dp1746
g6
F2.2973080000000001
sg7
S'955'
p1747
sg9
S'0'
sa(dp1748
g6
F2.2687840000000001
sg7
S'571'
p1749
sg9
S'0'
sa(dp1750
g6
F2.2665790000000001
sg7
S'266'
p1751
sg9
S'0'
sasg7
S'65'
p1752
sg9
S'0'
sa(dp1753
g3
(lp1754
(dp1755
g6
F5.2484710000000003
sg7
S'203'
p1756
sg9
S'0'
sa(dp1757
g6
F4.1382599999999998
sg7
S'26'
p1758
sg9
S'0'
sa(dp1759
g6
F4.1021650000000003
sg7
S'322'
p1760
sg9
S'0'
sa(dp1761
g6
F4.0090050000000002
sg7
S'20'
p1762
sg9
S'0'
sa(dp1763
g6
F3.938072
sg7
S'556'
p1764
sg9
S'0'
sa(dp1765
g6
F3.9150070000000001
sg7
S'825'
p1766
sg9
S'0'
sa(dp1767
g6
F3.8375400000000002
sg7
S'672'
p1768
sg9
S'0'
sa(dp1769
g6
F3.7168459999999999
sg7
S'997'
p1770
sg9
S'0'
sa(dp1771
g6
F3.6913870000000002
sg7
S'80'
p1772
sg9
S'0'
sa(dp1773
g6
F3.6818909999999998
sg7
S'723'
p1774
sg9
S'0'
sa(dp1775
g6
F3.6333389999999999
sg7
S'809'
p1776
sg9
S'0'
sa(dp1777
g6
F3.6060750000000001
sg7
S'855'
p1778
sg9
S'0'
sa(dp1779
g6
F3.5385430000000002
sg7
S'340'
p1780
sg9
S'0'
sa(dp1781
g6
F3.5066850000000001
sg7
S'638'
p1782
sg9
S'0'
sa(dp1783
g6
F3.4282650000000001
sg7
S'843'
p1784
sg9
S'0'
sa(dp1785
g6
F3.4206150000000002
sg7
S'377'
p1786
sg9
S'0'
sa(dp1787
g6
F3.4023720000000002
sg7
S'562'
p1788
sg9
S'0'
sa(dp1789
g6
F3.2250749999999999
sg7
S'188'
p1790
sg9
S'0'
sa(dp1791
g6
F3.1882109999999999
sg7
S'319'
p1792
sg9
S'0'
sa(dp1793
g6
F3.1788880000000002
sg7
S'813'
p1794
sg9
S'0'
sasg7
S'26'
p1795
sg9
S'0'
sa(dp1796
g3
(lp1797
(dp1798
g6
F6.0809369999999996
sg7
S'3'
sg9
S'0'
sa(dp1799
g6
F5.7020770000000001
sg7
S'29'
p1800
sg9
S'0'
sa(dp1801
g6
F2.9315530000000001
sg7
S'228'
p1802
sg9
S'0'
sa(dp1803
g6
F1.327904
sg7
S'874'
p1804
sg9
S'0'
sa(dp1805
g6
F1.304071
sg7
S'25'
p1806
sg9
S'0'
sa(dp1807
g6
F0.50387999999999999
sg7
S'859'
p1808
sg9
S'0'
sa(dp1809
g6
F0.441357
sg7
S'713'
p1810
sg9
S'0'
sa(dp1811
g6
F0.28407500000000002
sg7
S'793'
p1812
sg9
S'0'
sa(dp1813
g6
F0.224409
sg7
S'905'
p1814
sg9
S'0'
sa(dp1815
g6
F0.13031999999999999
sg7
S'393'
p1816
sg9
S'0'
sa(dp1817
g6
F0.11985
sg7
S'44'
p1818
sg9
S'0'
sa(dp1819
g6
F0.041611000000000002
sg7
S'990'
p1820
sg9
S'0'
sa(dp1821
g6
F0.031836999999999997
sg7
S'794'
p1822
sg9
S'0'
sa(dp1823
g6
F-0.094097
sg7
S'447'
p1824
sg9
S'0'
sa(dp1825
g6
F-0.16302900000000001
sg7
S'347'
p1826
sg9
S'0'
sa(dp1827
g6
F-0.233482
sg7
S'268'
p1828
sg9
S'0'
sa(dp1829
g6
F-0.23386399999999999
sg7
S'396'
p1830
sg9
S'0'
sa(dp1831
g6
F-0.27206399999999997
sg7
S'663'
p1832
sg9
S'0'
sa(dp1833
g6
F-0.30361700000000003
sg7
S'811'
p1834
sg9
S'0'
sa(dp1835
g6
F-0.30885899999999999
sg7
S'495'
p1836
sg9
S'0'
sasg7
S'29'
p1837
sg9
S'0'
sa(dp1838
g3
(lp1839
(dp1840
g6
F8.2618279999999995
sg7
S'31'
p1841
sg9
S'0'
sa(dp1842
g6
F5.5720980000000004
sg7
S'370'
p1843
sg9
S'0'
sa(dp1844
g6
F4.6675700000000004
sg7
S'200'
p1845
sg9
S'0'
sa(dp1846
g6
F4.5460260000000003
sg7
S'699'
p1847
sg9
S'0'
sa(dp1848
g6
F4.3693749999999998
sg7
S'644'
p1849
sg9
S'0'
sa(dp1850
g6
F4.3195290000000002
sg7
S'641'
p1851
sg9
S'0'
sa(dp1852
g6
F4.182302
sg7
S'342'
p1853
sg9
S'0'
sa(dp1854
g6
F3.8404669999999999
sg7
S'380'
p1855
sg9
S'0'
sa(dp1856
g6
F3.7865350000000002
sg7
S'7'
sg9
S'0'
sa(dp1857
g6
F3.5552169999999998
sg7
S'198'
p1858
sg9
S'0'
sa(dp1859
g6
F3.4910130000000001
sg7
S'239'
p1860
sg9
S'0'
sa(dp1861
g6
F3.39249
sg7
S'540'
p1862
sg9
S'0'
sa(dp1863
g6
F3.3829549999999999
sg7
S'974'
p1864
sg9
S'0'
sa(dp1865
g6
F3.3308770000000001
sg7
S'758'
p1866
sg9
S'0'
sa(dp1867
g6
F3.2597860000000001
sg7
S'885'
p1868
sg9
S'0'
sa(dp1869
g6
F3.2273809999999998
sg7
S'935'
p1870
sg9
S'0'
sa(dp1871
g6
F3.139662
sg7
S'821'
p1872
sg9
S'0'
sa(dp1873
g6
F3.0954419999999998
sg7
S'463'
p1874
sg9
S'0'
sa(dp1875
g6
F3.0931329999999999
sg7
S'477'
p1876
sg9
S'0'
sa(dp1877
g6
F3.0767519999999999
sg7
S'494'
p1878
sg9
S'0'
sasg7
S'31'
p1879
sg9
S'0'
sa(dp1880
g3
(lp1881
(dp1882
g6
F8.9029399999999992
sg7
S'841'
p1883
sg9
S'0'
sa(dp1884
g6
F8.1269559999999998
sg7
S'34'
p1885
sg9
S'0'
sa(dp1886
g6
F6.2361329999999997
sg7
S'451'
p1887
sg9
S'0'
sa(dp1888
g6
F5.6574330000000002
sg7
S'795'
p1889
sg9
S'0'
sa(dp1890
g6
F5.3082310000000001
sg7
S'61'
p1891
sg9
S'0'
sa(dp1892
g6
F5.0517310000000002
sg7
S'98'
p1893
sg9
S'0'
sa(dp1894
g6
F4.9026639999999997
sg7
S'375'
p1895
sg9
S'0'
sa(dp1896
g6
F4.7852550000000003
sg7
S'984'
p1897
sg9
S'0'
sa(dp1898
g6
F4.6123260000000004
sg7
S'101'
p1899
sg9
S'0'
sa(dp1900
g6
F4.5093040000000002
sg7
S'623'
p1901
sg9
S'0'
sa(dp1902
g6
F4.1708220000000003
sg7
S'908'
p1903
sg9
S'0'
sa(dp1904
g6
F3.9722390000000001
sg7
S'806'
p1905
sg9
S'0'
sa(dp1906
g6
F3.6765500000000002
sg7
S'830'
p1907
sg9
S'0'
sa(dp1908
g6
F3.5347689999999998
sg7
S'615'
p1909
sg9
S'0'
sa(dp1910
g6
F3.501369
sg7
S'73'
p1911
sg9
S'0'
sa(dp1912
g6
F3.3114699999999999
sg7
S'957'
p1913
sg9
S'0'
sa(dp1914
g6
F3.0877880000000002
sg7
S'743'
p1915
sg9
S'0'
sa(dp1916
g6
F2.9952369999999999
sg7
S'230'
p1917
sg9
S'0'
sa(dp1918
g6
F2.8849469999999999
sg7
S'258'
p1919
sg9
S'0'
sa(dp1920
g6
F2.6935980000000002
sg7
S'113'
p1921
sg9
S'0'
sasg7
S'34'
p1922
sg9
S'0'
sa(dp1923
g3
(lp1924
(dp1925
g6
F4.9324000000000003
sg7
S'809'
p1926
sg9
S'0'
sa(dp1927
g6
F4.6433229999999996
sg7
S'852'
p1928
sg9
S'0'
sa(dp1929
g6
F4.5215360000000002
sg7
S'467'
p1930
sg9
S'0'
sa(dp1931
g6
F4.2939809999999996
sg7
S'723'
p1932
sg9
S'0'
sa(dp1933
g6
F4.2060899999999997
sg7
S'250'
p1934
sg9
S'0'
sa(dp1935
g6
F4.04908
sg7
S'26'
p1936
sg9
S'0'
sa(dp1937
g6
F3.955587
sg7
S'322'
p1938
sg9
S'0'
sa(dp1939
g6
F3.8784010000000002
sg7
S'188'
p1940
sg9
S'0'
sa(dp1941
g6
F3.83786
sg7
S'414'
p1942
sg9
S'0'
sa(dp1943
g6
F3.818927
sg7
S'387'
p1944
sg9
S'0'
sa(dp1945
g6
F3.8163640000000001
sg7
S'644'
p1946
sg9
S'0'
sa(dp1947
g6
F3.7875770000000002
sg7
S'108'
p1948
sg9
S'0'
sa(dp1949
g6
F3.7016239999999998
sg7
S'174'
p1950
sg9
S'0'
sa(dp1951
g6
F3.5770420000000001
sg7
S'958'
p1952
sg9
S'0'
sa(dp1953
g6
F3.430504
sg7
S'556'
p1954
sg9
S'0'
sa(dp1955
g6
F3.4173550000000001
sg7
S'759'
p1956
sg9
S'0'
sa(dp1957
g6
F3.3875449999999998
sg7
S'264'
p1958
sg9
S'0'
sa(dp1959
g6
F3.3700239999999999
sg7
S'340'
p1960
sg9
S'0'
sa(dp1961
g6
F3.2967029999999999
sg7
S'203'
p1962
sg9
S'0'
sa(dp1963
g6
F3.2672620000000001
sg7
S'45'
p1964
sg9
S'0'
sasg7
S'80'
p1965
sg9
S'0'
sa(dp1966
g3
(lp1967
(dp1968
g6
F9.3403759999999991
sg7
S'2'
sg9
S'0'
sa(dp1969
g6
F4.7299059999999997
sg7
S'664'
p1970
sg9
S'0'
sa(dp1971
g6
F3.160034
sg7
S'465'
p1972
sg9
S'0'
sa(dp1973
g6
F3.0520990000000001
sg7
S'598'
p1974
sg9
S'0'
sa(dp1975
g6
F2.9270610000000001
sg7
S'285'
p1976
sg9
S'0'
sa(dp1977
g6
F2.87059
sg7
S'258'
p1978
sg9
S'0'
sa(dp1979
g6
F2.4811740000000002
sg7
S'910'
p1980
sg9
S'0'
sa(dp1981
g6
F2.4281830000000002
sg7
S'920'
p1982
sg9
S'0'
sa(dp1983
g6
F2.0883409999999998
sg7
S'208'
p1984
sg9
S'0'
sa(dp1985
g6
F1.7896099999999999
sg7
S'241'
p1986
sg9
S'0'
sa(dp1987
g6
F1.7492430000000001
sg7
S'936'
p1988
sg9
S'0'
sa(dp1989
g6
F1.734119
sg7
S'687'
p1990
sg9
S'0'
sa(dp1991
g6
F1.719673
sg7
S'94'
p1992
sg9
S'0'
sa(dp1993
g6
F1.613237
sg7
S'569'
p1994
sg9
S'0'
sa(dp1995
g6
F1.5665039999999999
sg7
S'873'
p1996
sg9
S'0'
sa(dp1997
g6
F1.463228
sg7
S'722'
p1998
sg9
S'0'
sa(dp1999
g6
F1.3829400000000001
sg7
S'496'
p2000
sg9
S'0'
sa(dp2001
g6
F1.3742239999999999
sg7
S'221'
p2002
sg9
S'0'
sa(dp2003
g6
F1.361969
sg7
S'674'
p2004
sg9
S'0'
sa(dp2005
g6
F1.3478239999999999
sg7
S'877'
p2006
sg9
S'0'
sasg7
S'2'
sg9
S'0'
sa(dp2007
g3
(lp2008
(dp2009
g6
F7.5878199999999998
sg7
S'997'
p2010
sg9
S'0'
sa(dp2011
g6
F5.5197620000000001
sg7
S'966'
p2012
sg9
S'0'
sa(dp2013
g6
F4.2671089999999996
sg7
S'397'
p2014
sg9
S'0'
sa(dp2015
g6
F4.0708070000000003
sg7
S'484'
p2016
sg9
S'0'
sa(dp2017
g6
F3.2577590000000001
sg7
S'855'
p2018
sg9
S'0'
sa(dp2019
g6
F2.9935969999999998
sg7
S'704'
p2020
sg9
S'0'
sa(dp2021
g6
F2.9774250000000002
sg7
S'694'
p2022
sg9
S'0'
sa(dp2023
g6
F2.6336330000000001
sg7
S'759'
p2024
sg9
S'0'
sa(dp2025
g6
F2.5844499999999999
sg7
S'935'
p2026
sg9
S'0'
sa(dp2027
g6
F2.5133209999999999
sg7
S'575'
p2028
sg9
S'0'
sa(dp2029
g6
F2.2270150000000002
sg7
S'494'
p2030
sg9
S'0'
sa(dp2031
g6
F2.1873740000000002
sg7
S'978'
p2032
sg9
S'0'
sa(dp2033
g6
F2.0120930000000001
sg7
S'671'
p2034
sg9
S'0'
sa(dp2035
g6
F1.98061
sg7
S'921'
p2036
sg9
S'0'
sa(dp2037
g6
F1.889967
sg7
S'460'
p2038
sg9
S'0'
sa(dp2039
g6
F1.859253
sg7
S'20'
p2040
sg9
S'0'
sa(dp2041
g6
F1.6390480000000001
sg7
S'479'
p2042
sg9
S'0'
sa(dp2043
g6
F1.627516
sg7
S'723'
p2044
sg9
S'0'
sa(dp2045
g6
F1.5955619999999999
sg7
S'211'
p2046
sg9
S'0'
sa(dp2047
g6
F1.563993
sg7
S'641'
p2048
sg9
S'0'
sasg7
S'45'
p2049
sg9
S'0'
sa(dp2050
g3
(lp2051
(dp2052
g6
F6.6104830000000003
sg7
S'980'
p2053
sg9
S'0'
sa(dp2054
g6
F1.848169
sg7
S'97'
p2055
sg9
S'0'
sa(dp2056
g6
F1.4474899999999999
sg7
S'213'
p2057
sg9
S'0'
sa(dp2058
g6
F1.4283349999999999
sg7
S'23'
p2059
sg9
S'0'
sa(dp2060
g6
F0.91691999999999996
sg7
S'416'
p2061
sg9
S'0'
sa(dp2062
g6
F0.51852600000000004
sg7
S'164'
p2063
sg9
S'0'
sa(dp2064
g6
F0.50056800000000001
sg7
S'339'
p2065
sg9
S'0'
sa(dp2066
g6
F0.40844900000000001
sg7
S'73'
p2067
sg9
S'0'
sa(dp2068
g6
F0.28436899999999998
sg7
S'662'
p2069
sg9
S'0'
sa(dp2070
g6
F0.26261499999999999
sg7
S'478'
p2071
sg9
S'0'
sa(dp2072
g6
F0.236098
sg7
S'483'
p2073
sg9
S'0'
sa(dp2074
g6
F0.11713800000000001
sg7
S'664'
p2075
sg9
S'0'
sa(dp2076
g6
F0.079575999999999994
sg7
S'47'
p2077
sg9
S'0'
sa(dp2078
g6
F0.077848000000000001
sg7
S'569'
p2079
sg9
S'0'
sa(dp2080
g6
F0.054344000000000003
sg7
S'292'
p2081
sg9
S'0'
sa(dp2082
g6
F-0.029028000000000002
sg7
S'440'
p2083
sg9
S'0'
sa(dp2084
g6
F-0.193692
sg7
S'994'
p2085
sg9
S'0'
sa(dp2086
g6
F-0.194248
sg7
S'258'
p2087
sg9
S'0'
sa(dp2088
g6
F-0.23120299999999999
sg7
S'999'
p2089
sg9
S'0'
sa(dp2090
g6
F-0.233044
sg7
S'655'
p2091
sg9
S'0'
sasg7
S'97'
p2092
sg9
S'0'
sa(dp2093
g3
(lp2094
(dp2095
g6
F6.3237180000000004
sg7
S'60'
p2096
sg9
S'0'
sa(dp2097
g6
F5.7854190000000001
sg7
S'373'
p2098
sg9
S'0'
sa(dp2099
g6
F5.1507670000000001
sg7
S'794'
p2100
sg9
S'0'
sa(dp2101
g6
F4.9169539999999996
sg7
S'105'
p2102
sg9
S'0'
sa(dp2103
g6
F4.5623069999999997
sg7
S'170'
p2104
sg9
S'0'
sa(dp2105
g6
F4.4147850000000002
sg7
S'85'
p2106
sg9
S'0'
sa(dp2107
g6
F4.3536089999999996
sg7
S'356'
p2108
sg9
S'0'
sa(dp2109
g6
F4.3265459999999996
sg7
S'287'
p2110
sg9
S'0'
sa(dp2111
g6
F4.2346500000000002
sg7
S'942'
p2112
sg9
S'0'
sa(dp2113
g6
F4.0633699999999999
sg7
S'436'
p2114
sg9
S'0'
sa(dp2115
g6
F4.017792
sg7
S'396'
p2116
sg9
S'0'
sa(dp2117
g6
F3.9862820000000001
sg7
S'497'
p2118
sg9
S'0'
sa(dp2119
g6
F3.953119
sg7
S'800'
p2120
sg9
S'0'
sa(dp2121
g6
F3.9002509999999999
sg7
S'71'
p2122
sg9
S'0'
sa(dp2123
g6
F3.8198409999999998
sg7
S'581'
p2124
sg9
S'0'
sa(dp2125
g6
F3.7468379999999999
sg7
S'262'
p2126
sg9
S'0'
sa(dp2127
g6
F3.7416610000000001
sg7
S'90'
p2128
sg9
S'0'
sa(dp2129
g6
F3.7026159999999999
sg7
S'139'
p2130
sg9
S'0'
sa(dp2131
g6
F3.6465339999999999
sg7
S'220'
p2132
sg9
S'0'
sa(dp2133
g6
F3.4233169999999999
sg7
S'869'
p2134
sg9
S'0'
sasg7
S'60'
p2135
sg9
S'0'
sa(dp2136
g3
(lp2137
(dp2138
g6
F9.3347420000000003
sg7
S'257'
p2139
sg9
S'0'
sa(dp2140
g6
F7.4095589999999998
sg7
S'24'
p2141
sg9
S'0'
sa(dp2142
g6
F5.2938479999999997
sg7
S'696'
p2143
sg9
S'0'
sa(dp2144
g6
F4.2032090000000002
sg7
S'288'
p2145
sg9
S'0'
sa(dp2146
g6
F3.6879559999999998
sg7
S'424'
p2147
sg9
S'0'
sa(dp2148
g6
F3.622967
sg7
S'19'
p2149
sg9
S'0'
sa(dp2150
g6
F3.5289760000000001
sg7
S'58'
p2151
sg9
S'0'
sa(dp2152
g6
F3.5237560000000001
sg7
S'472'
p2153
sg9
S'0'
sa(dp2154
g6
F3.4283600000000001
sg7
S'735'
p2155
sg9
S'0'
sa(dp2156
g6
F3.2924159999999998
sg7
S'85'
p2157
sg9
S'0'
sa(dp2158
g6
F3.2746979999999999
sg7
S'464'
p2159
sg9
S'0'
sa(dp2160
g6
F3.0330300000000001
sg7
S'105'
p2161
sg9
S'0'
sa(dp2162
g6
F2.9947659999999998
sg7
S'364'
p2163
sg9
S'0'
sa(dp2164
g6
F2.7741340000000001
sg7
S'124'
p2165
sg9
S'0'
sa(dp2166
g6
F2.7012
sg7
S'405'
p2167
sg9
S'0'
sa(dp2168
g6
F2.6314679999999999
sg7
S'762'
p2169
sg9
S'0'
sa(dp2170
g6
F2.6293090000000001
sg7
S'743'
p2171
sg9
S'0'
sa(dp2172
g6
F2.4946120000000001
sg7
S'720'
p2173
sg9
S'0'
sa(dp2174
g6
F2.3911570000000002
sg7
S'368'
p2175
sg9
S'0'
sa(dp2176
g6
F2.3353459999999999
sg7
S'569'
p2177
sg9
S'0'
sasg7
S'24'
p2178
sg9
S'0'
sa(dp2179
g3
(lp2180
(dp2181
g6
F6.3088899999999999
sg7
S'880'
p2182
sg9
S'0'
sa(dp2183
g6
F6.0733930000000003
sg7
S'510'
p2184
sg9
S'0'
sa(dp2185
g6
F6.0721639999999999
sg7
S'948'
p2186
sg9
S'0'
sa(dp2187
g6
F5.0265959999999996
sg7
S'330'
p2188
sg9
S'0'
sa(dp2189
g6
F4.7961609999999997
sg7
S'388'
p2190
sg9
S'0'
sa(dp2191
g6
F4.6652430000000003
sg7
S'379'
p2192
sg9
S'0'
sa(dp2193
g6
F4.609038
sg7
S'260'
p2194
sg9
S'0'
sa(dp2195
g6
F4.5209099999999998
sg7
S'561'
p2196
sg9
S'0'
sa(dp2197
g6
F4.4661609999999996
sg7
S'297'
p2198
sg9
S'0'
sa(dp2199
g6
F4.4097790000000003
sg7
S'585'
p2200
sg9
S'0'
sa(dp2201
g6
F4.282864
sg7
S'152'
p2202
sg9
S'0'
sa(dp2203
g6
F4.2617399999999996
sg7
S'875'
p2204
sg9
S'0'
sa(dp2205
g6
F4.1246999999999998
sg7
S'738'
p2206
sg9
S'0'
sa(dp2207
g6
F3.9269599999999998
sg7
S'244'
p2208
sg9
S'0'
sa(dp2209
g6
F3.8982619999999999
sg7
S'171'
p2210
sg9
S'0'
sa(dp2211
g6
F3.88015
sg7
S'614'
p2212
sg9
S'0'
sa(dp2213
g6
F3.8317999999999999
sg7
S'739'
p2214
sg9
S'0'
sa(dp2215
g6
F3.7726989999999998
sg7
S'635'
p2216
sg9
S'0'
sa(dp2217
g6
F3.7193860000000001
sg7
S'408'
p2218
sg9
S'0'
sa(dp2219
g6
F3.644053
sg7
S'367'
p2220
sg9
S'0'
sasg7
S'40'
p2221
sg9
S'0'
sa(dp2222
g3
(lp2223
(dp2224
g6
F3.420858
sg7
S'62'
p2225
sg9
S'0'
sa(dp2226
g6
F2.6595010000000001
sg7
S'298'
p2227
sg9
S'0'
sa(dp2228
g6
F2.4694389999999999
sg7
S'551'
p2229
sg9
S'0'
sa(dp2230
g6
F2.4393410000000002
sg7
S'440'
p2231
sg9
S'0'
sa(dp2232
g6
F2.2457639999999999
sg7
S'756'
p2233
sg9
S'0'
sa(dp2234
g6
F2.2243629999999999
sg7
S'647'
p2235
sg9
S'0'
sa(dp2236
g6
F2.0570170000000001
sg7
S'808'
p2237
sg9
S'0'
sa(dp2238
g6
F1.9694389999999999
sg7
S'842'
p2239
sg9
S'0'
sa(dp2240
g6
F1.902218
sg7
S'845'
p2241
sg9
S'0'
sa(dp2242
g6
F1.8615969999999999
sg7
S'805'
p2243
sg9
S'0'
sa(dp2244
g6
F1.8420650000000001
sg7
S'70'
p2245
sg9
S'0'
sa(dp2246
g6
F1.794152
sg7
S'112'
p2247
sg9
S'0'
sa(dp2248
g6
F1.694383
sg7
S'177'
p2249
sg9
S'0'
sa(dp2250
g6
F1.6581079999999999
sg7
S'868'
p2251
sg9
S'0'
sa(dp2252
g6
F1.5662309999999999
sg7
S'784'
p2253
sg9
S'0'
sa(dp2254
g6
F1.533909
sg7
S'47'
p2255
sg9
S'0'
sa(dp2256
g6
F1.5186630000000001
sg7
S'819'
p2257
sg9
S'0'
sa(dp2258
g6
F1.486626
sg7
S'719'
p2259
sg9
S'0'
sa(dp2260
g6
F1.360312
sg7
S'125'
p2261
sg9
S'0'
sa(dp2262
g6
F1.3081199999999999
sg7
S'853'
p2263
sg9
S'0'
sasg7
S'47'
p2264
sg9
S'0'
sa(dp2265
g3
(lp2266
(dp2267
g6
F4.5927230000000003
sg7
S'212'
p2268
sg9
S'0'
sa(dp2269
g6
F4.2939259999999999
sg7
S'842'
p2270
sg9
S'0'
sa(dp2271
g6
F3.9955430000000001
sg7
S'177'
p2272
sg9
S'0'
sa(dp2273
g6
F3.9151359999999999
sg7
S'855'
p2274
sg9
S'0'
sa(dp2275
g6
F3.8170799999999998
sg7
S'868'
p2276
sg9
S'0'
sa(dp2277
g6
F3.6421230000000002
sg7
S'592'
p2278
sg9
S'0'
sa(dp2279
g6
F3.418202
sg7
S'673'
p2280
sg9
S'0'
sa(dp2281
g6
F3.2400410000000002
sg7
S'918'
p2282
sg9
S'0'
sa(dp2283
g6
F3.179821
sg7
S'62'
p2284
sg9
S'0'
sa(dp2285
g6
F3.1525110000000001
sg7
S'436'
p2286
sg9
S'0'
sa(dp2287
g6
F3.1443569999999998
sg7
S'935'
p2288
sg9
S'0'
sa(dp2289
g6
F3.1127009999999999
sg7
S'597'
p2290
sg9
S'0'
sa(dp2291
g6
F3.049153
sg7
S'377'
p2292
sg9
S'0'
sa(dp2293
g6
F3.0022950000000002
sg7
S'477'
p2294
sg9
S'0'
sa(dp2295
g6
F2.9674700000000001
sg7
S'551'
p2296
sg9
S'0'
sa(dp2297
g6
F2.951241
sg7
S'203'
p2298
sg9
S'0'
sa(dp2299
g6
F2.940814
sg7
S'137'
p2300
sg9
S'0'
sa(dp2301
g6
F2.9403760000000001
sg7
S'958'
p2302
sg9
S'0'
sa(dp2303
g6
F2.91011
sg7
S'773'
p2304
sg9
S'0'
sa(dp2305
g6
F2.907311
sg7
S'398'
p2306
sg9
S'0'
sasg7
S'93'
p2307
sg9
S'0'
sa(dp2308
g3
(lp2309
(dp2310
g6
F9.4891850000000009
sg7
S'366'
p2311
sg9
S'0'
sa(dp2312
g6
F8.1641639999999995
sg7
S'79'
p2313
sg9
S'0'
sa(dp2314
g6
F7.4977070000000001
sg7
S'404'
p2315
sg9
S'0'
sa(dp2316
g6
F6.7088380000000001
sg7
S'628'
p2317
sg9
S'0'
sa(dp2318
g6
F5.6756799999999998
sg7
S'430'
p2319
sg9
S'0'
sa(dp2320
g6
F5.671564
sg7
S'405'
p2321
sg9
S'0'
sa(dp2322
g6
F5.4253270000000002
sg7
S'931'
p2323
sg9
S'0'
sa(dp2324
g6
F5.3004110000000004
sg7
S'857'
p2325
sg9
S'0'
sa(dp2326
g6
F4.599653
sg7
S'566'
p2327
sg9
S'0'
sa(dp2328
g6
F3.8391820000000001
sg7
S'711'
p2329
sg9
S'0'
sa(dp2330
g6
F3.642347
sg7
S'687'
p2331
sg9
S'0'
sa(dp2332
g6
F3.1851430000000001
sg7
S'83'
p2333
sg9
S'0'
sa(dp2334
g6
F3.1275390000000001
sg7
S'961'
p2335
sg9
S'0'
sa(dp2336
g6
F2.8236050000000001
sg7
S'138'
p2337
sg9
S'0'
sa(dp2338
g6
F2.7613829999999999
sg7
S'506'
p2339
sg9
S'0'
sa(dp2340
g6
F2.7596210000000001
sg7
S'88'
p2341
sg9
S'0'
sa(dp2342
g6
F2.5634749999999999
sg7
S'751'
p2343
sg9
S'0'
sa(dp2344
g6
F2.5611039999999998
sg7
S'674'
p2345
sg9
S'0'
sa(dp2346
g6
F2.5607150000000001
sg7
S'276'
p2347
sg9
S'0'
sa(dp2348
g6
F2.4709850000000002
sg7
S'903'
p2349
sg9
S'0'
sasg7
S'76'
p2350
sg9
S'0'
sa(dp2351
g3
(lp2352
(dp2353
g6
F7.0637270000000001
sg7
S'99'
p2354
sg9
S'0'
sa(dp2355
g6
F5.8603129999999997
sg7
S'10'
p2356
sg9
S'0'
sa(dp2357
g6
F5.5253699999999997
sg7
S'420'
p2358
sg9
S'0'
sa(dp2359
g6
F5.0213469999999996
sg7
S'481'
p2360
sg9
S'0'
sa(dp2361
g6
F4.7804679999999999
sg7
S'855'
p2362
sg9
S'0'
sa(dp2363
g6
F4.5994659999999996
sg7
S'484'
p2364
sg9
S'0'
sa(dp2365
g6
F4.264526
sg7
S'160'
p2366
sg9
S'0'
sa(dp2367
g6
F4.2545029999999997
sg7
S'921'
p2368
sg9
S'0'
sa(dp2369
g6
F4.2161920000000004
sg7
S'779'
p2370
sg9
S'0'
sa(dp2371
g6
F4.147964
sg7
S'685'
p2372
sg9
S'0'
sa(dp2373
g6
F3.8985859999999999
sg7
S'958'
p2374
sg9
S'0'
sa(dp2375
g6
F3.8490030000000002
sg7
S'80'
p2376
sg9
S'0'
sa(dp2377
g6
F3.8092860000000002
sg7
S'694'
p2378
sg9
S'0'
sa(dp2379
g6
F3.6374759999999999
sg7
S'473'
p2380
sg9
S'0'
sa(dp2381
g6
F3.425945
sg7
S'701'
p2382
sg9
S'0'
sa(dp2383
g6
F3.3458290000000002
sg7
S'997'
p2384
sg9
S'0'
sa(dp2385
g6
F3.277739
sg7
S'930'
p2386
sg9
S'0'
sa(dp2387
g6
F3.2172529999999999
sg7
S'174'
p2388
sg9
S'0'
sa(dp2389
g6
F3.1708660000000002
sg7
S'644'
p2390
sg9
S'0'
sa(dp2391
g6
F3.051866
sg7
S'198'
p2392
sg9
S'0'
sasg7
S'99'
p2393
sg9
S'0'
sa(dp2394
g3
(lp2395
(dp2396
g6
F8.4173620000000007
sg7
S'61'
p2397
sg9
S'0'
sa(dp2398
g6
F6.3718830000000004
sg7
S'623'
p2399
sg9
S'0'
sa(dp2400
g6
F5.9829920000000003
sg7
S'34'
p2401
sg9
S'0'
sa(dp2402
g6
F5.9783189999999999
sg7
S'451'
p2403
sg9
S'0'
sa(dp2404
g6
F5.8173029999999999
sg7
S'98'
p2405
sg9
S'0'
sa(dp2406
g6
F4.9460670000000002
sg7
S'795'
p2407
sg9
S'0'
sa(dp2408
g6
F4.8592620000000002
sg7
S'73'
p2409
sg9
S'0'
sa(dp2410
g6
F4.8037929999999998
sg7
S'101'
p2411
sg9
S'0'
sa(dp2412
g6
F4.79467
sg7
S'743'
p2413
sg9
S'0'
sa(dp2414
g6
F4.6109710000000002
sg7
S'984'
p2415
sg9
S'0'
sa(dp2416
g6
F4.369078
sg7
S'841'
p2417
sg9
S'0'
sa(dp2418
g6
F4.0879440000000002
sg7
S'375'
p2419
sg9
S'0'
sa(dp2420
g6
F3.614811
sg7
S'109'
p2421
sg9
S'0'
sa(dp2422
g6
F3.4491499999999999
sg7
S'908'
p2423
sg9
S'0'
sa(dp2424
g6
F3.271112
sg7
S'848'
p2425
sg9
S'0'
sa(dp2426
g6
F3.1583709999999998
sg7
S'230'
p2427
sg9
S'0'
sa(dp2428
g6
F2.9783270000000002
sg7
S'566'
p2429
sg9
S'0'
sa(dp2430
g6
F2.9220999999999999
sg7
S'404'
p2431
sg9
S'0'
sa(dp2432
g6
F2.8377129999999999
sg7
S'266'
p2433
sg9
S'0'
sa(dp2434
g6
F2.7472590000000001
sg7
S'368'
p2435
sg9
S'0'
sasg7
S'61'
p2436
sg9
S'0'
sa(dp2437
g3
(lp2438
(dp2439
g6
F10.765103
sg7
S'27'
p2440
sg9
S'0'
sa(dp2441
g6
F4.8715020000000004
sg7
S'979'
p2442
sg9
S'0'
sa(dp2443
g6
F4.8349209999999996
sg7
S'724'
p2444
sg9
S'0'
sa(dp2445
g6
F4.0361880000000001
sg7
S'731'
p2446
sg9
S'0'
sa(dp2447
g6
F4.0354599999999996
sg7
S'930'
p2448
sg9
S'0'
sa(dp2449
g6
F3.6429960000000001
sg7
S'23'
p2450
sg9
S'0'
sa(dp2451
g6
F3.5571269999999999
sg7
S'892'
p2452
sg9
S'0'
sa(dp2453
g6
F3.3104170000000002
sg7
S'877'
p2454
sg9
S'0'
sa(dp2455
g6
F3.2400890000000002
sg7
S'259'
p2456
sg9
S'0'
sa(dp2457
g6
F3.224072
sg7
S'663'
p2458
sg9
S'0'
sa(dp2459
g6
F3.1422310000000002
sg7
S'766'
p2460
sg9
S'0'
sa(dp2461
g6
F3.0413060000000001
sg7
S'523'
p2462
sg9
S'0'
sa(dp2463
g6
F3.0211239999999999
sg7
S'646'
p2464
sg9
S'0'
sa(dp2465
g6
F2.9692210000000001
sg7
S'455'
p2466
sg9
S'0'
sa(dp2467
g6
F2.8818630000000001
sg7
S'179'
p2468
sg9
S'0'
sa(dp2469
g6
F2.7658160000000001
sg7
S'854'
p2470
sg9
S'0'
sa(dp2471
g6
F2.7333430000000001
sg7
S'710'
p2472
sg9
S'0'
sa(dp2473
g6
F2.6993390000000002
sg7
S'618'
p2474
sg9
S'0'
sa(dp2475
g6
F2.6766670000000001
sg7
S'195'
p2476
sg9
S'0'
sa(dp2477
g6
F2.5339160000000001
sg7
S'616'
p2478
sg9
S'0'
sasg7
S'27'
p2479
sg9
S'0'
sa(dp2480
g3
(lp2481
(dp2482
g6
F6.3484959999999999
sg7
S'167'
p2483
sg9
S'0'
sa(dp2484
g6
F6.0602
sg7
S'170'
p2485
sg9
S'0'
sa(dp2486
g6
F5.1192299999999999
sg7
S'53'
p2487
sg9
S'0'
sa(dp2488
g6
F4.6963689999999998
sg7
S'90'
p2489
sg9
S'0'
sa(dp2490
g6
F4.1555569999999999
sg7
S'868'
p2491
sg9
S'0'
sa(dp2492
g6
F4.0471300000000001
sg7
S'198'
p2493
sg9
S'0'
sa(dp2494
g6
F3.9675720000000001
sg7
S'794'
p2495
sg9
S'0'
sa(dp2496
g6
F3.8339530000000002
sg7
S'195'
p2497
sg9
S'0'
sa(dp2498
g6
F3.7810459999999999
sg7
S'0'
sg9
S'0'
sa(dp2499
g6
F3.7493569999999998
sg7
S'42'
p2500
sg9
S'0'
sa(dp2501
g6
F3.7400289999999998
sg7
S'436'
p2502
sg9
S'0'
sa(dp2503
g6
F3.5565609999999999
sg7
S'397'
p2504
sg9
S'0'
sa(dp2505
g6
F3.5445250000000001
sg7
S'829'
p2506
sg9
S'0'
sa(dp2507
g6
F3.5046810000000002
sg7
S'477'
p2508
sg9
S'0'
sa(dp2509
g6
F3.4906229999999998
sg7
S'597'
p2510
sg9
S'0'
sa(dp2511
g6
F3.462183
sg7
S'174'
p2512
sg9
S'0'
sa(dp2513
g6
F3.3711739999999999
sg7
S'885'
p2514
sg9
S'0'
sa(dp2515
g6
F3.3631250000000001
sg7
S'935'
p2516
sg9
S'0'
sa(dp2517
g6
F3.3057729999999999
sg7
S'666'
p2518
sg9
S'0'
sa(dp2519
g6
F3.2717000000000001
sg7
S'256'
p2520
sg9
S'0'
sasg7
S'0'
sg9
S'0'
sa(dp2521
g3
(lp2522
(dp2523
g6
F5.5466119999999997
sg7
S'150'
p2524
sg9
S'0'
sa(dp2525
g6
F4.9041649999999999
sg7
S'811'
p2526
sg9
S'0'
sa(dp2527
g6
F4.7906719999999998
sg7
S'268'
p2528
sg9
S'0'
sa(dp2529
g6
F4.7780240000000003
sg7
S'578'
p2530
sg9
S'0'
sa(dp2531
g6
F4.6555720000000003
sg7
S'495'
p2532
sg9
S'0'
sa(dp2533
g6
F4.4778279999999997
sg7
S'283'
p2534
sg9
S'0'
sa(dp2535
g6
F4.2649879999999998
sg7
S'244'
p2536
sg9
S'0'
sa(dp2537
g6
F4.1740029999999999
sg7
S'585'
p2538
sg9
S'0'
sa(dp2539
g6
F4.1423670000000001
sg7
S'147'
p2540
sg9
S'0'
sa(dp2541
g6
F4.0503340000000003
sg7
S'137'
p2542
sg9
S'0'
sa(dp2543
g6
F3.9919669999999998
sg7
S'308'
p2544
sg9
S'0'
sa(dp2545
g6
F3.9858750000000001
sg7
S'657'
p2546
sg9
S'0'
sa(dp2547
g6
F3.882406
sg7
S'738'
p2548
sg9
S'0'
sa(dp2549
g6
F3.8526729999999998
sg7
S'934'
p2550
sg9
S'0'
sa(dp2551
g6
F3.8471839999999999
sg7
S'87'
p2552
sg9
S'0'
sa(dp2553
g6
F3.784424
sg7
S'393'
p2554
sg9
S'0'
sa(dp2555
g6
F3.767776
sg7
S'868'
p2556
sg9
S'0'
sa(dp2557
g6
F3.607192
sg7
S'487'
p2558
sg9
S'0'
sa(dp2559
g6
F3.5377529999999999
sg7
S'842'
p2560
sg9
S'0'
sa(dp2561
g6
F3.494745
sg7
S'885'
p2562
sg9
S'0'
sasg7
S'9'
sg9
S'0'
sa(dp2563
g3
(lp2564
(dp2565
g6
F5.8331169999999997
sg7
S'113'
p2566
sg9
S'0'
sa(dp2567
g6
F5.7054
sg7
S'725'
p2568
sg9
S'0'
sa(dp2569
g6
F5.5448829999999996
sg7
S'238'
p2570
sg9
S'0'
sa(dp2571
g6
F5.1369150000000001
sg7
S'68'
p2572
sg9
S'0'
sa(dp2573
g6
F5.0942460000000001
sg7
S'6'
sg9
S'0'
sa(dp2574
g6
F4.9801099999999998
sg7
S'658'
p2575
sg9
S'0'
sa(dp2576
g6
F4.9405669999999997
sg7
S'281'
p2577
sg9
S'0'
sa(dp2578
g6
F4.8983939999999997
sg7
S'241'
p2579
sg9
S'0'
sa(dp2580
g6
F4.8839490000000003
sg7
S'94'
p2581
sg9
S'0'
sa(dp2582
g6
F4.843235
sg7
S'767'
p2583
sg9
S'0'
sa(dp2584
g6
F4.8393379999999997
sg7
S'489'
p2585
sg9
S'0'
sa(dp2586
g6
F4.7305489999999999
sg7
S'940'
p2587
sg9
S'0'
sa(dp2588
g6
F4.5785600000000004
sg7
S'408'
p2589
sg9
S'0'
sa(dp2590
g6
F4.5375439999999996
sg7
S'492'
p2591
sg9
S'0'
sa(dp2592
g6
F4.500216
sg7
S'737'
p2593
sg9
S'0'
sa(dp2594
g6
F4.3828950000000004
sg7
S'983'
p2595
sg9
S'0'
sa(dp2596
g6
F4.3825000000000003
sg7
S'818'
p2597
sg9
S'0'
sa(dp2598
g6
F4.378628
sg7
S'662'
p2599
sg9
S'0'
sa(dp2600
g6
F4.3744160000000001
sg7
S'258'
p2601
sg9
S'0'
sa(dp2602
g6
F4.355715
sg7
S'9'
sg9
S'0'
sasg7
S'6'
sg9
S'0'
sa(dp2603
g3
(lp2604
(dp2605
g6
F7.1972259999999997
sg7
S'903'
p2606
sg9
S'0'
sa(dp2607
g6
F6.2077049999999998
sg7
S'651'
p2608
sg9
S'0'
sa(dp2609
g6
F4.7191200000000002
sg7
S'408'
p2610
sg9
S'0'
sa(dp2611
g6
F4.4797500000000001
sg7
S'305'
p2612
sg9
S'0'
sa(dp2613
g6
F4.3538880000000004
sg7
S'967'
p2614
sg9
S'0'
sa(dp2615
g6
F3.4567619999999999
sg7
S'700'
p2616
sg9
S'0'
sa(dp2617
g6
F3.3813719999999998
sg7
S'658'
p2618
sg9
S'0'
sa(dp2619
g6
F3.3708399999999998
sg7
S'880'
p2620
sg9
S'0'
sa(dp2621
g6
F3.1737280000000001
sg7
S'510'
p2622
sg9
S'0'
sa(dp2623
g6
F3.0555590000000001
sg7
S'949'
p2624
sg9
S'0'
sa(dp2625
g6
F2.989576
sg7
S'530'
p2626
sg9
S'0'
sa(dp2627
g6
F2.5359569999999998
sg7
S'766'
p2628
sg9
S'0'
sa(dp2629
g6
F2.5280339999999999
sg7
S'307'
p2630
sg9
S'0'
sa(dp2631
g6
F2.515574
sg7
S'147'
p2632
sg9
S'0'
sa(dp2633
g6
F2.507517
sg7
S'296'
p2634
sg9
S'0'
sa(dp2635
g6
F2.4777360000000002
sg7
S'838'
p2636
sg9
S'0'
sa(dp2637
g6
F2.4670369999999999
sg7
S'388'
p2638
sg9
S'0'
sa(dp2639
g6
F2.4618869999999999
sg7
S'646'
p2640
sg9
S'0'
sa(dp2641
g6
F2.4572530000000001
sg7
S'415'
p2642
sg9
S'0'
sa(dp2643
g6
F2.3875350000000002
sg7
S'667'
p2644
sg9
S'0'
sasg7
S'75'
p2645
sg9
S'0'
sa(dp2646
g3
(lp2647
(dp2648
g6
F4.8496689999999996
sg7
S'85'
p2649
sg9
S'0'
sa(dp2650
g6
F4.437424
sg7
S'58'
p2651
sg9
S'0'
sa(dp2652
g6
F3.526716
sg7
S'19'
p2653
sg9
S'0'
sa(dp2654
g6
F3.049404
sg7
S'262'
p2655
sg9
S'0'
sa(dp2656
g6
F2.5741100000000001
sg7
S'105'
p2657
sg9
S'0'
sa(dp2658
g6
F2.5310920000000001
sg7
S'2'
sg9
S'0'
sa(dp2659
g6
F2.2584249999999999
sg7
S'465'
p2660
sg9
S'0'
sa(dp2661
g6
F2.250067
sg7
S'288'
p2662
sg9
S'0'
sa(dp2663
g6
F2.2244160000000002
sg7
S'139'
p2664
sg9
S'0'
sa(dp2665
g6
F2.1811099999999999
sg7
S'47'
p2666
sg9
S'0'
sa(dp2667
g6
F2.0296669999999999
sg7
S'696'
p2668
sg9
S'0'
sa(dp2669
g6
F1.942172
sg7
S'756'
p2670
sg9
S'0'
sa(dp2671
g6
F1.900793
sg7
S'462'
p2672
sg9
S'0'
sa(dp2673
g6
F1.876495
sg7
S'794'
p2674
sg9
S'0'
sa(dp2675
g6
F1.819885
sg7
S'221'
p2676
sg9
S'0'
sa(dp2677
g6
F1.7068270000000001
sg7
S'220'
p2678
sg9
S'0'
sa(dp2679
g6
F1.70058
sg7
S'418'
p2680
sg9
S'0'
sa(dp2681
g6
F1.684574
sg7
S'800'
p2682
sg9
S'0'
sa(dp2683
g6
F1.6843379999999999
sg7
S'426'
p2684
sg9
S'0'
sa(dp2685
g6
F1.646568
sg7
S'356'
p2686
sg9
S'0'
sasg7
S'58'
p2687
sg9
S'0'
sa(dp2688
g3
(lp2689
(dp2690
g6
F5.2484890000000002
sg7
S'196'
p2691
sg9
S'0'
sa(dp2692
g6
F5.2287850000000002
sg7
S'64'
p2693
sg9
S'0'
sa(dp2694
g6
F5.0846349999999996
sg7
S'742'
p2695
sg9
S'0'
sa(dp2696
g6
F4.2136990000000001
sg7
S'714'
p2697
sg9
S'0'
sa(dp2698
g6
F4.0715830000000004
sg7
S'325'
p2699
sg9
S'0'
sa(dp2700
g6
F3.8069320000000002
sg7
S'37'
p2701
sg9
S'0'
sa(dp2702
g6
F3.6579169999999999
sg7
S'685'
p2703
sg9
S'0'
sa(dp2704
g6
F3.4714510000000001
sg7
S'215'
p2705
sg9
S'0'
sa(dp2706
g6
F3.4092859999999998
sg7
S'332'
p2707
sg9
S'0'
sa(dp2708
g6
F3.2807599999999999
sg7
S'494'
p2709
sg9
S'0'
sa(dp2710
g6
F3.1722809999999999
sg7
S'219'
p2711
sg9
S'0'
sa(dp2712
g6
F3.14432
sg7
S'427'
p2713
sg9
S'0'
sa(dp2714
g6
F3.0986980000000002
sg7
S'785'
p2715
sg9
S'0'
sa(dp2716
g6
F3.092638
sg7
S'200'
p2717
sg9
S'0'
sa(dp2718
g6
F3.0685560000000001
sg7
S'31'
p2719
sg9
S'0'
sa(dp2720
g6
F3.0526010000000001
sg7
S'211'
p2721
sg9
S'0'
sa(dp2722
g6
F3.0460950000000002
sg7
S'704'
p2723
sg9
S'0'
sa(dp2724
g6
F3.0413700000000001
sg7
S'460'
p2725
sg9
S'0'
sa(dp2726
g6
F2.9626830000000002
sg7
S'616'
p2727
sg9
S'0'
sa(dp2728
g6
F2.9317839999999999
sg7
S'821'
p2729
sg9
S'0'
sasg7
S'64'
p2730
sg9
S'0'
sa(dp2731
g3
(lp2732
(dp2733
g6
F5.5400390000000002
sg7
S'44'
p2734
sg9
S'0'
sa(dp2735
g6
F3.7496689999999999
sg7
S'495'
p2736
sg9
S'0'
sa(dp2737
g6
F3.645994
sg7
S'214'
p2738
sg9
S'0'
sa(dp2739
g6
F3.6410230000000001
sg7
S'393'
p2740
sg9
S'0'
sa(dp2741
g6
F3.5572430000000002
sg7
S'758'
p2742
sg9
S'0'
sa(dp2743
g6
F3.3837470000000001
sg7
S'436'
p2744
sg9
S'0'
sa(dp2745
g6
F3.3514140000000001
sg7
S'881'
p2746
sg9
S'0'
sa(dp2747
g6
F3.33677
sg7
S'885'
p2748
sg9
S'0'
sa(dp2749
g6
F3.3109999999999999
sg7
S'934'
p2750
sg9
S'0'
sa(dp2751
g6
F3.2641939999999998
sg7
S'278'
p2752
sg9
S'0'
sa(dp2753
g6
F3.211138
sg7
S'153'
p2754
sg9
S'0'
sa(dp2755
g6
F3.1364209999999999
sg7
S'663'
p2756
sg9
S'0'
sa(dp2757
g6
F3.1134270000000002
sg7
S'597'
p2758
sg9
S'0'
sa(dp2759
g6
F3.0643180000000001
sg7
S'811'
p2760
sg9
S'0'
sa(dp2761
g6
F3.045112
sg7
S'587'
p2762
sg9
S'0'
sa(dp2763
g6
F3.0416120000000002
sg7
S'268'
p2764
sg9
S'0'
sa(dp2765
g6
F3.0215800000000002
sg7
S'137'
p2766
sg9
S'0'
sa(dp2767
g6
F3.0066470000000001
sg7
S'794'
p2768
sg9
S'0'
sa(dp2769
g6
F2.9795820000000002
sg7
S'380'
p2770
sg9
S'0'
sa(dp2771
g6
F2.9559310000000001
sg7
S'699'
p2772
sg9
S'0'
sasg7
S'44'
p2773
sg9
S'0'
sa(dp2774
g3
(lp2775
(dp2776
g6
F10.406243999999999
sg7
S'621'
p2777
sg9
S'0'
sa(dp2778
g6
F9.5125899999999994
sg7
S'929'
p2779
sg9
S'0'
sa(dp2780
g6
F7.4627210000000002
sg7
S'835'
p2781
sg9
S'0'
sa(dp2782
g6
F7.3459380000000003
sg7
S'468'
p2783
sg9
S'0'
sa(dp2784
g6
F6.9407059999999996
sg7
S'180'
p2785
sg9
S'0'
sa(dp2786
g6
F6.9203029999999996
sg7
S'574'
p2787
sg9
S'0'
sa(dp2788
g6
F6.6511899999999997
sg7
S'81'
p2789
sg9
S'0'
sa(dp2790
g6
F6.1880930000000003
sg7
S'505'
p2791
sg9
S'0'
sa(dp2792
g6
F5.5909230000000001
sg7
S'485'
p2793
sg9
S'0'
sa(dp2794
g6
F5.5814440000000003
sg7
S'491'
p2795
sg9
S'0'
sa(dp2796
g6
F5.5320220000000004
sg7
S'223'
p2797
sg9
S'0'
sa(dp2798
g6
F5.382193
sg7
S'982'
p2799
sg9
S'0'
sa(dp2800
g6
F4.7880950000000002
sg7
S'950'
p2801
sg9
S'0'
sa(dp2802
g6
F4.6844159999999997
sg7
S'790'
p2803
sg9
S'0'
sa(dp2804
g6
F4.609629
sg7
S'371'
p2805
sg9
S'0'
sa(dp2806
g6
F4.2860259999999997
sg7
S'67'
p2807
sg9
S'0'
sa(dp2808
g6
F4.1381569999999996
sg7
S'18'
p2809
sg9
S'0'
sa(dp2810
g6
F4.0182479999999998
sg7
S'550'
p2811
sg9
S'0'
sa(dp2812
g6
F3.931549
sg7
S'135'
p2813
sg9
S'0'
sa(dp2814
g6
F3.7151260000000002
sg7
S'28'
p2815
sg9
S'0'
sasg7
S'81'
p2816
sg9
S'0'
sa(dp2817
g3
(lp2818
(dp2819
g6
F5.605944
sg7
S'687'
p2820
sg9
S'0'
sa(dp2821
g6
F5.1435339999999998
sg7
S'88'
p2822
sg9
S'0'
sa(dp2823
g6
F4.890263
sg7
S'612'
p2824
sg9
S'0'
sa(dp2825
g6
F4.7558749999999996
sg7
S'47'
p2826
sg9
S'0'
sa(dp2827
g6
F4.6556680000000004
sg7
S'4'
sg9
S'0'
sa(dp2828
g6
F4.3519059999999996
sg7
S'245'
p2829
sg9
S'0'
sa(dp2830
g6
F4.3405529999999999
sg7
S'949'
p2831
sg9
S'0'
sa(dp2832
g6
F4.3296640000000002
sg7
S'499'
p2833
sg9
S'0'
sa(dp2834
g6
F4.1962890000000002
sg7
S'614'
p2835
sg9
S'0'
sa(dp2836
g6
F4.1744880000000002
sg7
S'41'
p2837
sg9
S'0'
sa(dp2838
g6
F4.1477890000000004
sg7
S'492'
p2839
sg9
S'0'
sa(dp2840
g6
F4.1256009999999996
sg7
S'803'
p2841
sg9
S'0'
sa(dp2842
g6
F4.1252190000000004
sg7
S'725'
p2843
sg9
S'0'
sa(dp2844
g6
F4.0483739999999999
sg7
S'288'
p2845
sg9
S'0'
sa(dp2846
g6
F3.9752689999999999
sg7
S'138'
p2847
sg9
S'0'
sa(dp2848
g6
F3.941484
sg7
S'458'
p2849
sg9
S'0'
sa(dp2850
g6
F3.8969969999999998
sg7
S'729'
p2851
sg9
S'0'
sa(dp2852
g6
F3.8826689999999999
sg7
S'366'
p2853
sg9
S'0'
sa(dp2854
g6
F3.8649269999999998
sg7
S'818'
p2855
sg9
S'0'
sa(dp2856
g6
F3.848274
sg7
S'285'
p2857
sg9
S'0'
sasg7
S'88'
p2858
sg9
S'0'
sa(dp2859
g3
(lp2860
(dp2861
g6
F5.5524979999999999
sg7
S'327'
p2862
sg9
S'0'
sa(dp2863
g6
F5.5510479999999998
sg7
S'772'
p2864
sg9
S'0'
sa(dp2865
g6
F5.4521680000000003
sg7
S'688'
p2866
sg9
S'0'
sa(dp2867
g6
F4.9503649999999997
sg7
S'496'
p2868
sg9
S'0'
sa(dp2869
g6
F4.5365180000000001
sg7
S'56'
p2870
sg9
S'0'
sa(dp2871
g6
F4.4795930000000004
sg7
S'861'
p2872
sg9
S'0'
sa(dp2873
g6
F4.4600960000000001
sg7
S'447'
p2874
sg9
S'0'
sa(dp2875
g6
F4.39846
sg7
S'816'
p2876
sg9
S'0'
sa(dp2877
g6
F3.952734
sg7
S'702'
p2878
sg9
S'0'
sa(dp2879
g6
F3.5781329999999998
sg7
S'292'
p2880
sg9
S'0'
sa(dp2881
g6
F3.3322699999999998
sg7
S'512'
p2882
sg9
S'0'
sa(dp2883
g6
F3.2127819999999998
sg7
S'118'
p2884
sg9
S'0'
sa(dp2885
g6
F3.1561759999999999
sg7
S'509'
p2886
sg9
S'0'
sa(dp2887
g6
F3.1474609999999998
sg7
S'957'
p2888
sg9
S'0'
sa(dp2889
g6
F3.0473919999999999
sg7
S'670'
p2890
sg9
S'0'
sa(dp2891
g6
F2.9996930000000002
sg7
S'547'
p2892
sg9
S'0'
sa(dp2893
g6
F2.896299
sg7
S'192'
p2894
sg9
S'0'
sa(dp2895
g6
F2.849844
sg7
S'722'
p2896
sg9
S'0'
sa(dp2897
g6
F2.7534100000000001
sg7
S'304'
p2898
sg9
S'0'
sa(dp2899
g6
F2.7493780000000001
sg7
S'877'
p2900
sg9
S'0'
sasg7
S'56'
p2901
sg9
S'0'
sa(dp2902
g3
(lp2903
(dp2904
g6
F8.5077569999999998
sg7
S'35'
p2905
sg9
S'0'
sa(dp2906
g6
F6.6207330000000004
sg7
S'242'
p2907
sg9
S'0'
sa(dp2908
g6
F6.3977240000000002
sg7
S'658'
p2909
sg9
S'0'
sa(dp2910
g6
F5.4708480000000002
sg7
S'349'
p2911
sg9
S'0'
sa(dp2912
g6
F5.1681350000000004
sg7
S'886'
p2913
sg9
S'0'
sa(dp2914
g6
F5.139856
sg7
S'783'
p2915
sg9
S'0'
sa(dp2916
g6
F4.55138
sg7
S'943'
p2917
sg9
S'0'
sa(dp2918
g6
F4.3052599999999996
sg7
S'952'
p2919
sg9
S'0'
sa(dp2920
g6
F4.2784880000000003
sg7
S'173'
p2921
sg9
S'0'
sa(dp2922
g6
F4.190016
sg7
S'884'
p2923
sg9
S'0'
sa(dp2924
g6
F4.1621689999999996
sg7
S'185'
p2925
sg9
S'0'
sa(dp2926
g6
F3.5463369999999999
sg7
S'767'
p2927
sg9
S'0'
sa(dp2928
g6
F3.4172609999999999
sg7
S'612'
p2929
sg9
S'0'
sa(dp2930
g6
F3.4032900000000001
sg7
S'166'
p2931
sg9
S'0'
sa(dp2932
g6
F3.2647020000000002
sg7
S'273'
p2933
sg9
S'0'
sa(dp2934
g6
F3.2605230000000001
sg7
S'553'
p2935
sg9
S'0'
sa(dp2936
g6
F3.236713
sg7
S'201'
p2937
sg9
S'0'
sa(dp2938
g6
F3.1057070000000002
sg7
S'465'
p2939
sg9
S'0'
sa(dp2940
g6
F2.9917349999999998
sg7
S'887'
p2941
sg9
S'0'
sa(dp2942
g6
F2.9186230000000002
sg7
S'328'
p2943
sg9
S'0'
sasg7
S'35'
p2944
sg9
S'0'
sa(dp2945
g3
(lp2946
(dp2947
g6
F7.5729600000000001
sg7
S'961'
p2948
sg9
S'0'
sa(dp2949
g6
F5.8209020000000002
sg7
S'634'
p2950
sg9
S'0'
sa(dp2951
g6
F5.7112920000000003
sg7
S'138'
p2952
sg9
S'0'
sa(dp2953
g6
F5.4082129999999999
sg7
S'9'
sg9
S'0'
sa(dp2954
g6
F5.3150519999999997
sg7
S'466'
p2955
sg9
S'0'
sa(dp2956
g6
F5.1979730000000002
sg7
S'476'
p2957
sg9
S'0'
sa(dp2958
g6
F5.0706009999999999
sg7
S'346'
p2959
sg9
S'0'
sa(dp2960
g6
F4.9717900000000004
sg7
S'408'
p2961
sg9
S'0'
sa(dp2962
g6
F4.7452829999999997
sg7
S'987'
p2963
sg9
S'0'
sa(dp2964
g6
F4.6432719999999996
sg7
S'854'
p2965
sg9
S'0'
sa(dp2966
g6
F4.6337109999999999
sg7
S'95'
p2967
sg9
S'0'
sa(dp2968
g6
F4.6236990000000002
sg7
S'538'
p2969
sg9
S'0'
sa(dp2970
g6
F4.5686840000000002
sg7
S'415'
p2971
sg9
S'0'
sa(dp2972
g6
F4.4470770000000002
sg7
S'703'
p2973
sg9
S'0'
sa(dp2974
g6
F4.344309
sg7
S'903'
p2975
sg9
S'0'
sa(dp2976
g6
F4.3265609999999999
sg7
S'816'
p2977
sg9
S'0'
sa(dp2978
g6
F4.305758
sg7
S'312'
p2979
sg9
S'0'
sa(dp2980
g6
F4.2796969999999996
sg7
S'324'
p2981
sg9
S'0'
sa(dp2982
g6
F4.2302460000000002
sg7
S'649'
p2983
sg9
S'0'
sa(dp2984
g6
F4.2004239999999999
sg7
S'395'
p2985
sg9
S'0'
sasg7
S'95'
p2986
sg9
S'0'
sa(dp2987
g3
(lp2988
(dp2989
g6
F10.000468
sg7
S'8'
sg9
S'0'
sa(dp2990
g6
F7.6007100000000003
sg7
S'595'
p2991
sg9
S'0'
sa(dp2992
g6
F6.9358959999999996
sg7
S'702'
p2993
sg9
S'0'
sa(dp2994
g6
F5.3825149999999997
sg7
S'938'
p2995
sg9
S'0'
sa(dp2996
g6
F5.3787120000000002
sg7
S'118'
p2997
sg9
S'0'
sa(dp2998
g6
F4.8659819999999998
sg7
S'688'
p2999
sg9
S'0'
sa(dp3000
g6
F4.8391080000000004
sg7
S'50'
p3001
sg9
S'0'
sa(dp3002
g6
F4.7114729999999998
sg7
S'440'
p3003
sg9
S'0'
sa(dp3004
g6
F4.4765420000000002
sg7
S'689'
p3005
sg9
S'0'
sa(dp3006
g6
F4.4113689999999997
sg7
S'726'
p3007
sg9
S'0'
sa(dp3008
g6
F4.3531760000000004
sg7
S'591'
p3009
sg9
S'0'
sa(dp3010
g6
F4.3367959999999997
sg7
S'116'
p3011
sg9
S'0'
sa(dp3012
g6
F4.2752460000000001
sg7
S'962'
p3013
sg9
S'0'
sa(dp3014
g6
F4.2447280000000003
sg7
S'462'
p3015
sg9
S'0'
sa(dp3016
g6
F4.1996770000000003
sg7
S'22'
p3017
sg9
S'0'
sa(dp3018
g6
F4.1951729999999996
sg7
S'999'
p3019
sg9
S'0'
sa(dp3020
g6
F4.1085409999999998
sg7
S'957'
p3021
sg9
S'0'
sa(dp3022
g6
F3.994046
sg7
S'213'
p3023
sg9
S'0'
sa(dp3024
g6
F3.915842
sg7
S'14'
p3025
sg9
S'0'
sa(dp3026
g6
F3.8560919999999999
sg7
S'439'
p3027
sg9
S'0'
sasg7
S'8'
sg9
S'0'
sa(dp3028
g3
(lp3029
(dp3030
g6
F4.5301090000000004
sg7
S'138'
p3031
sg9
S'0'
sa(dp3032
g6
F3.8434599999999999
sg7
S'147'
p3033
sg9
S'0'
sa(dp3034
g6
F3.8398210000000002
sg7
S'409'
p3035
sg9
S'0'
sa(dp3036
g6
F3.6607319999999999
sg7
S'41'
p3037
sg9
S'0'
sa(dp3038
g6
F3.624552
sg7
S'285'
p3039
sg9
S'0'
sa(dp3040
g6
F3.5008949999999999
sg7
S'91'
p3041
sg9
S'0'
sa(dp3042
g6
F3.1136720000000002
sg7
S'757'
p3043
sg9
S'0'
sa(dp3044
g6
F2.9628700000000001
sg7
S'919'
p3045
sg9
S'0'
sa(dp3046
g6
F2.8624499999999999
sg7
S'269'
p3047
sg9
S'0'
sa(dp3048
g6
F2.7962669999999998
sg7
S'88'
p3049
sg9
S'0'
sa(dp3050
g6
F2.7648809999999999
sg7
S'296'
p3051
sg9
S'0'
sa(dp3052
g6
F2.6856800000000001
sg7
S'903'
p3053
sg9
S'0'
sa(dp3054
g6
F2.6441400000000002
sg7
S'258'
p3055
sg9
S'0'
sa(dp3056
g6
F2.642687
sg7
S'149'
p3057
sg9
S'0'
sa(dp3058
g6
F2.5801159999999999
sg7
S'695'
p3059
sg9
S'0'
sa(dp3060
g6
F2.5544449999999999
sg7
S'201'
p3061
sg9
S'0'
sa(dp3062
g6
F2.4999280000000002
sg7
S'952'
p3063
sg9
S'0'
sa(dp3064
g6
F2.4981620000000002
sg7
S'674'
p3065
sg9
S'0'
sa(dp3066
g6
F2.4679359999999999
sg7
S'608'
p3067
sg9
S'0'
sa(dp3068
g6
F2.3871630000000001
sg7
S'635'
p3069
sg9
S'0'
sasg7
S'41'
p3070
sg9
S'0'
sa(dp3071
g3
(lp3072
(dp3073
g6
F11.069807000000001
sg7
S'79'
p3074
sg9
S'0'
sa(dp3075
g6
F9.5402489999999993
sg7
S'628'
p3076
sg9
S'0'
sa(dp3077
g6
F6.3245639999999996
sg7
S'931'
p3078
sg9
S'0'
sa(dp3079
g6
F6.0855519999999999
sg7
S'366'
p3080
sg9
S'0'
sa(dp3081
g6
F5.8825649999999996
sg7
S'857'
p3082
sg9
S'0'
sa(dp3083
g6
F5.4731940000000003
sg7
S'955'
p3084
sg9
S'0'
sa(dp3085
g6
F5.0337100000000001
sg7
S'566'
p3086
sg9
S'0'
sa(dp3087
g6
F5.0236169999999998
sg7
S'404'
p3088
sg9
S'0'
sa(dp3089
g6
F3.1085780000000001
sg7
S'333'
p3090
sg9
S'0'
sa(dp3091
g6
F3.00149
sg7
S'405'
p3092
sg9
S'0'
sa(dp3093
g6
F2.9032209999999998
sg7
S'291'
p3094
sg9
S'0'
sa(dp3095
g6
F2.7703039999999999
sg7
S'632'
p3096
sg9
S'0'
sa(dp3097
g6
F2.7285940000000002
sg7
S'85'
p3098
sg9
S'0'
sa(dp3099
g6
F2.5374110000000001
sg7
S'674'
p3100
sg9
S'0'
sa(dp3101
g6
F2.36591
sg7
S'276'
p3102
sg9
S'0'
sa(dp3103
g6
F2.2389830000000002
sg7
S'696'
p3104
sg9
S'0'
sa(dp3105
g6
F2.181597
sg7
S'492'
p3106
sg9
S'0'
sa(dp3107
g6
F2.1068419999999999
sg7
S'653'
p3108
sg9
S'0'
sa(dp3109
g6
F1.925154
sg7
S'728'
p3110
sg9
S'0'
sa(dp3111
g6
F1.82036
sg7
S'506'
p3112
sg9
S'0'
sasg7
S'79'
p3113
sg9
S'0'
sa(dp3114
g3
(lp3115
(dp3116
g6
F5.1598680000000003
sg7
S'692'
p3117
sg9
S'0'
sa(dp3118
g6
F5.1011030000000002
sg7
S'538'
p3119
sg9
S'0'
sa(dp3120
g6
F4.6209259999999999
sg7
S'9'
sg9
S'0'
sa(dp3121
g6
F4.5976910000000002
sg7
S'856'
p3122
sg9
S'0'
sa(dp3123
g6
F4.4511510000000003
sg7
S'272'
p3124
sg9
S'0'
sa(dp3125
g6
F4.384449
sg7
S'817'
p3126
sg9
S'0'
sa(dp3127
g6
F4.2910839999999997
sg7
S'854'
p3128
sg9
S'0'
sa(dp3129
g6
F4.1562270000000003
sg7
S'512'
p3130
sg9
S'0'
sa(dp3131
g6
F3.9643709999999999
sg7
S'949'
p3132
sg9
S'0'
sa(dp3133
g6
F3.7797420000000002
sg7
S'994'
p3134
sg9
S'0'
sa(dp3135
g6
F3.7481800000000001
sg7
S'802'
p3136
sg9
S'0'
sa(dp3137
g6
F3.5973929999999998
sg7
S'903'
p3138
sg9
S'0'
sa(dp3139
g6
F3.570681
sg7
S'476'
p3140
sg9
S'0'
sa(dp3141
g6
F3.526789
sg7
S'703'
p3142
sg9
S'0'
sa(dp3143
g6
F3.4702989999999998
sg7
S'664'
p3144
sg9
S'0'
sa(dp3145
g6
F3.241304
sg7
S'688'
p3146
sg9
S'0'
sa(dp3147
g6
F3.2169629999999998
sg7
S'702'
p3148
sg9
S'0'
sa(dp3149
g6
F3.2165720000000002
sg7
S'970'
p3150
sg9
S'0'
sa(dp3151
g6
F3.1402359999999998
sg7
S'761'
p3152
sg9
S'0'
sa(dp3153
g6
F3.1367509999999998
sg7
S'735'
p3154
sg9
S'0'
sasg7
S'46'
p3155
sg9
S'0'
sa(dp3156
g3
(lp3157
(dp3158
g6
F7.2861919999999998
sg7
S'426'
p3159
sg9
S'0'
sa(dp3160
g6
F6.785965
sg7
S'720'
p3161
sg9
S'0'
sa(dp3162
g6
F6.6198220000000001
sg7
S'71'
p3163
sg9
S'0'
sa(dp3164
g6
F6.3937109999999997
sg7
S'905'
p3165
sg9
S'0'
sa(dp3166
g6
F6.1852400000000003
sg7
S'373'
p3167
sg9
S'0'
sa(dp3168
g6
F5.9055859999999996
sg7
S'869'
p3169
sg9
S'0'
sa(dp3170
g6
F5.5853039999999998
sg7
S'139'
p3171
sg9
S'0'
sa(dp3172
g6
F5.4627480000000004
sg7
S'279'
p3173
sg9
S'0'
sa(dp3174
g6
F5.2781560000000001
sg7
S'58'
p3175
sg9
S'0'
sa(dp3176
g6
F5.1910439999999998
sg7
S'497'
p3177
sg9
S'0'
sa(dp3178
g6
F5.1642799999999998
sg7
S'19'
p3179
sg9
S'0'
sa(dp3180
g6
F5.1578920000000004
sg7
S'846'
p3181
sg9
S'0'
sa(dp3182
g6
F5.1426109999999996
sg7
S'111'
p3183
sg9
S'0'
sa(dp3184
g6
F4.9378200000000003
sg7
S'944'
p3185
sg9
S'0'
sa(dp3186
g6
F4.8389449999999998
sg7
S'124'
p3187
sg9
S'0'
sa(dp3188
g6
F4.816916
sg7
S'105'
p3189
sg9
S'0'
sa(dp3190
g6
F4.7768759999999997
sg7
S'807'
p3191
sg9
S'0'
sa(dp3192
g6
F4.7291359999999996
sg7
S'115'
p3193
sg9
S'0'
sa(dp3194
g6
F4.579853
sg7
S'546'
p3195
sg9
S'0'
sa(dp3196
g6
F4.4892219999999998
sg7
S'220'
p3197
sg9
S'0'
sasg7
S'71'
p3198
sg9
S'0'
sa(dp3199
g3
(lp3200
(dp3201
g6
F6.2714819999999998
sg7
S'47'
p3202
sg9
S'0'
sa(dp3203
g6
F5.6088680000000002
sg7
S'725'
p3204
sg9
S'0'
sa(dp3205
g6
F5.3628999999999998
sg7
S'435'
p3206
sg9
S'0'
sa(dp3207
g6
F4.7329559999999997
sg7
S'6'
sg9
S'0'
sa(dp3208
g6
F4.7021050000000004
sg7
S'2'
sg9
S'0'
sa(dp3209
g6
F4.6879790000000003
sg7
S'68'
p3210
sg9
S'0'
sa(dp3211
g6
F4.5243929999999999
sg7
S'737'
p3212
sg9
S'0'
sa(dp3213
g6
F4.3304650000000002
sg7
S'238'
p3214
sg9
S'0'
sa(dp3215
g6
F4.3250979999999997
sg7
S'824'
p3216
sg9
S'0'
sa(dp3217
g6
F4.1862339999999998
sg7
S'85'
p3218
sg9
S'0'
sa(dp3219
g6
F4.1090200000000001
sg7
S'702'
p3220
sg9
S'0'
sa(dp3221
g6
F4.0477749999999997
sg7
S'324'
p3222
sg9
S'0'
sa(dp3223
g6
F3.9657480000000001
sg7
S'444'
p3224
sg9
S'0'
sa(dp3225
g6
F3.8751509999999998
sg7
S'113'
p3226
sg9
S'0'
sa(dp3227
g6
F3.858641
sg7
S'176'
p3228
sg9
S'0'
sa(dp3229
g6
F3.749752
sg7
S'987'
p3230
sg9
S'0'
sa(dp3231
g6
F3.659491
sg7
S'735'
p3232
sg9
S'0'
sa(dp3233
g6
F3.6473620000000002
sg7
S'662'
p3234
sg9
S'0'
sa(dp3235
g6
F3.6472150000000001
sg7
S'818'
p3236
sg9
S'0'
sa(dp3237
g6
F3.6183429999999999
sg7
S'682'
p3238
sg9
S'0'
sasg7
S'85'
p3239
sg9
S'0'
sa(dp3240
g3
(lp3241
(dp3242
g6
F5.2160099999999998
sg7
S'885'
p3243
sg9
S'0'
sa(dp3244
g6
F5.1362120000000004
sg7
S'842'
p3245
sg9
S'0'
sa(dp3246
g6
F4.4425759999999999
sg7
S'587'
p3247
sg9
S'0'
sa(dp3248
g6
F4.3741469999999998
sg7
S'487'
p3249
sg9
S'0'
sa(dp3250
g6
F4.3725699999999996
sg7
S'214'
p3251
sg9
S'0'
sa(dp3252
g6
F4.332973
sg7
S'868'
p3253
sg9
S'0'
sa(dp3254
g6
F4.3051300000000001
sg7
S'436'
p3255
sg9
S'0'
sa(dp3256
g6
F4.2862660000000004
sg7
S'974'
p3257
sg9
S'0'
sa(dp3258
g6
F3.8241700000000001
sg7
S'855'
p3259
sg9
S'0'
sa(dp3260
g6
F3.784713
sg7
S'551'
p3261
sg9
S'0'
sa(dp3262
g6
F3.7846959999999998
sg7
S'137'
p3263
sg9
S'0'
sa(dp3264
g6
F3.7755930000000002
sg7
S'87'
p3265
sg9
S'0'
sa(dp3266
g6
F3.762715
sg7
S'62'
p3267
sg9
S'0'
sa(dp3268
g6
F3.7150850000000002
sg7
S'719'
p3269
sg9
S'0'
sa(dp3270
g6
F3.70635
sg7
S'934'
p3271
sg9
S'0'
sa(dp3272
g6
F3.6102910000000001
sg7
S'43'
p3273
sg9
S'0'
sa(dp3274
g6
F3.589089
sg7
S'811'
p3275
sg9
S'0'
sa(dp3276
g6
F3.497722
sg7
S'495'
p3277
sg9
S'0'
sa(dp3278
g6
F3.4785889999999999
sg7
S'918'
p3279
sg9
S'0'
sa(dp3280
g6
F3.3983669999999999
sg7
S'198'
p3281
sg9
S'0'
sasg7
S'55'
p3282
sg9
S'0'
sa(dp3283
g3
(lp3284
(dp3285
g6
F5.3811359999999997
sg7
S'33'
p3286
sg9
S'0'
sa(dp3287
g6
F2.944302
sg7
S'808'
p3288
sg9
S'0'
sa(dp3289
g6
F1.9437599999999999
sg7
S'548'
p3290
sg9
S'0'
sa(dp3291
g6
F1.006691
sg7
S'804'
p3292
sg9
S'0'
sa(dp3293
g6
F0.958735
sg7
S'962'
p3294
sg9
S'0'
sa(dp3295
g6
F0.79842900000000006
sg7
S'28'
p3296
sg9
S'0'
sa(dp3297
g6
F0.55430800000000002
sg7
S'960'
p3298
sg9
S'0'
sa(dp3299
g6
F0.49895299999999998
sg7
S'805'
p3300
sg9
S'0'
sa(dp3301
g6
F0.41826600000000003
sg7
S'652'
p3302
sg9
S'0'
sa(dp3303
g6
F0.31312600000000002
sg7
S'23'
p3304
sg9
S'0'
sa(dp3305
g6
F0.30083300000000002
sg7
S'650'
p3306
sg9
S'0'
sa(dp3307
g6
F0.269675
sg7
S'369'
p3308
sg9
S'0'
sa(dp3309
g6
F0.226879
sg7
S'52'
p3310
sg9
S'0'
sa(dp3311
g6
F0.21201700000000001
sg7
S'583'
p3312
sg9
S'0'
sa(dp3313
g6
F0.065572000000000005
sg7
S'235'
p3314
sg9
S'0'
sa(dp3315
g6
F0.017878999999999999
sg7
S'726'
p3316
sg9
S'0'
sa(dp3317
g6
F0.00092100000000000005
sg7
S'823'
p3318
sg9
S'0'
sa(dp3319
g6
F-0.029101999999999999
sg7
S'202'
p3320
sg9
S'0'
sa(dp3321
g6
F-0.076678999999999997
sg7
S'680'
p3322
sg9
S'0'
sa(dp3323
g6
F-0.20152999999999999
sg7
S'999'
p3324
sg9
S'0'
sasg7
S'33'
p3325
sg9
S'0'
sa(dp3326
g3
(lp3327
(dp3328
g6
F5.7717590000000003
sg7
S'877'
p3329
sg9
S'0'
sa(dp3330
g6
F5.2746560000000002
sg7
S'335'
p3331
sg9
S'0'
sa(dp3332
g6
F5.0126949999999999
sg7
S'196'
p3333
sg9
S'0'
sa(dp3334
g6
F4.9788680000000003
sg7
S'465'
p3335
sg9
S'0'
sa(dp3336
g6
F4.2177579999999999
sg7
S'598'
p3337
sg9
S'0'
sa(dp3338
g6
F4.1763690000000002
sg7
S'930'
p3339
sg9
S'0'
sa(dp3340
g6
F3.8821129999999999
sg7
S'920'
p3341
sg9
S'0'
sa(dp3342
g6
F3.8308770000000001
sg7
S'207'
p3343
sg9
S'0'
sa(dp3344
g6
F3.753908
sg7
S'600'
p3345
sg9
S'0'
sa(dp3346
g6
F3.6763340000000002
sg7
S'232'
p3347
sg9
S'0'
sa(dp3348
g6
F3.6671849999999999
sg7
S'539'
p3349
sg9
S'0'
sa(dp3350
g6
F3.6537060000000001
sg7
S'645'
p3351
sg9
S'0'
sa(dp3352
g6
F3.623243
sg7
S'829'
p3353
sg9
S'0'
sa(dp3354
g6
F3.4557509999999998
sg7
S'160'
p3355
sg9
S'0'
sa(dp3356
g6
F3.4113120000000001
sg7
S'705'
p3357
sg9
S'0'
sa(dp3358
g6
F3.4080789999999999
sg7
S'656'
p3359
sg9
S'0'
sa(dp3360
g6
F3.3283290000000001
sg7
S'11'
p3361
sg9
S'0'
sa(dp3362
g6
F3.2996729999999999
sg7
S'624'
p3363
sg9
S'0'
sa(dp3364
g6
F3.1504989999999999
sg7
S'347'
p3365
sg9
S'0'
sa(dp3366
g6
F3.1052439999999999
sg7
S'529'
p3367
sg9
S'0'
sasg7
S'62'
p3368
sg9
S'0'
sa(dp3369
g3
(lp3370
(dp3371
g6
F11.751734000000001
sg7
S'68'
p3372
sg9
S'0'
sa(dp3373
g6
F11.198886999999999
sg7
S'243'
p3374
sg9
S'0'
sa(dp3375
g6
F7.5013540000000001
sg7
S'435'
p3376
sg9
S'0'
sa(dp3377
g6
F5.0630569999999997
sg7
S'736'
p3378
sg9
S'0'
sa(dp3379
g6
F4.6840570000000001
sg7
S'553'
p3380
sg9
S'0'
sa(dp3381
g6
F4.2712000000000003
sg7
S'767'
p3382
sg9
S'0'
sa(dp3383
g6
F3.9135909999999998
sg7
S'585'
p3384
sg9
S'0'
sa(dp3385
g6
F3.8979339999999998
sg7
S'658'
p3386
sg9
S'0'
sa(dp3387
g6
F3.7623980000000001
sg7
S'359'
p3388
sg9
S'0'
sa(dp3389
g6
F3.7074470000000002
sg7
S'395'
p3390
sg9
S'0'
sa(dp3391
g6
F3.7055799999999999
sg7
S'492'
p3392
sg9
S'0'
sa(dp3393
g6
F3.6658379999999999
sg7
S'571'
p3394
sg9
S'0'
sa(dp3395
g6
F3.5734270000000001
sg7
S'517'
p3396
sg9
S'0'
sa(dp3397
g6
F3.4888379999999999
sg7
S'333'
p3398
sg9
S'0'
sa(dp3399
g6
F3.467327
sg7
S'940'
p3400
sg9
S'0'
sa(dp3401
g6
F3.4205679999999998
sg7
S'961'
p3402
sg9
S'0'
sa(dp3403
g6
F3.261536
sg7
S'238'
p3404
sg9
S'0'
sa(dp3405
g6
F3.0547499999999999
sg7
S'218'
p3406
sg9
S'0'
sa(dp3407
g6
F2.9596439999999999
sg7
S'913'
p3408
sg9
S'0'
sa(dp3409
g6
F2.929554
sg7
S'362'
p3410
sg9
S'0'
sasg7
S'68'
p3411
sg9
S'0'
sa(dp3412
g3
(lp3413
(dp3414
g6
F7.7375639999999999
sg7
S'206'
p3415
sg9
S'0'
sa(dp3416
g6
F5.3015100000000004
sg7
S'48'
p3417
sg9
S'0'
sa(dp3418
g6
F3.7287849999999998
sg7
S'598'
p3419
sg9
S'0'
sa(dp3420
g6
F3.2746789999999999
sg7
S'710'
p3421
sg9
S'0'
sa(dp3422
g6
F3.1938080000000002
sg7
S'586'
p3423
sg9
S'0'
sa(dp3424
g6
F3.1653190000000002
sg7
S'910'
p3425
sg9
S'0'
sa(dp3426
g6
F2.8348979999999999
sg7
S'285'
p3427
sg9
S'0'
sa(dp3428
g6
F2.719198
sg7
S'330'
p3429
sg9
S'0'
sa(dp3430
g6
F2.710245
sg7
S'737'
p3431
sg9
S'0'
sa(dp3432
g6
F2.5072990000000002
sg7
S'465'
p3433
sg9
S'0'
sa(dp3434
g6
F2.469608
sg7
S'258'
p3435
sg9
S'0'
sa(dp3436
g6
F2.4633349999999998
sg7
S'132'
p3437
sg9
S'0'
sa(dp3438
g6
F2.3852690000000001
sg7
S'68'
p3439
sg9
S'0'
sa(dp3440
g6
F2.361094
sg7
S'242'
p3441
sg9
S'0'
sa(dp3442
g6
F2.3229389999999999
sg7
S'100'
p3443
sg9
S'0'
sa(dp3444
g6
F2.2723620000000002
sg7
S'703'
p3445
sg9
S'0'
sa(dp3446
g6
F2.2424029999999999
sg7
S'658'
p3447
sg9
S'0'
sa(dp3448
g6
F2.241276
sg7
S'691'
p3449
sg9
S'0'
sa(dp3450
g6
F2.2137699999999998
sg7
S'185'
p3451
sg9
S'0'
sa(dp3452
g6
F2.1810339999999999
sg7
S'201'
p3453
sg9
S'0'
sasg7
S'48'
p3454
sg9
S'0'
sa(dp3455
g3
(lp3456
(dp3457
g6
F4.9163699999999997
sg7
S'508'
p3458
sg9
S'0'
sa(dp3459
g6
F4.723433
sg7
S'57'
p3460
sg9
S'0'
sa(dp3461
g6
F4.2621520000000004
sg7
S'907'
p3462
sg9
S'0'
sa(dp3463
g6
F4.0026820000000001
sg7
S'884'
p3464
sg9
S'0'
sa(dp3465
g6
F3.9121269999999999
sg7
S'344'
p3466
sg9
S'0'
sa(dp3467
g6
F3.7808769999999998
sg7
S'893'
p3468
sg9
S'0'
sa(dp3469
g6
F3.7647529999999998
sg7
S'952'
p3470
sg9
S'0'
sa(dp3471
g6
F3.5635910000000002
sg7
S'973'
p3472
sg9
S'0'
sa(dp3473
g6
F3.4039329999999999
sg7
S'133'
p3474
sg9
S'0'
sa(dp3475
g6
F3.3763749999999999
sg7
S'792'
p3476
sg9
S'0'
sa(dp3477
g6
F3.3549229999999999
sg7
S'537'
p3478
sg9
S'0'
sa(dp3479
g6
F3.3527809999999998
sg7
S'943'
p3480
sg9
S'0'
sa(dp3481
g6
F3.2861600000000002
sg7
S'471'
p3482
sg9
S'0'
sa(dp3483
g6
F3.0822929999999999
sg7
S'349'
p3484
sg9
S'0'
sa(dp3485
g6
F3.0808469999999999
sg7
S'748'
p3486
sg9
S'0'
sa(dp3487
g6
F3.073509
sg7
S'821'
p3488
sg9
S'0'
sa(dp3489
g6
F3.04792
sg7
S'367'
p3490
sg9
S'0'
sa(dp3491
g6
F2.9899309999999999
sg7
S'395'
p3492
sg9
S'0'
sa(dp3493
g6
F2.928423
sg7
S'886'
p3494
sg9
S'0'
sa(dp3495
g6
F2.8981249999999998
sg7
S'326'
p3496
sg9
S'0'
sasg7
S'57'
p3497
sg9
S'0'
sa(dp3498
g3
(lp3499
(dp3500
g6
F3.7903310000000001
sg7
S'465'
p3501
sg9
S'0'
sa(dp3502
g6
F3.546189
sg7
S'674'
p3503
sg9
S'0'
sa(dp3504
g6
F3.2760199999999999
sg7
S'635'
p3505
sg9
S'0'
sa(dp3506
g6
F3.2507480000000002
sg7
S'258'
p3507
sg9
S'0'
sa(dp3508
g6
F3.1775799999999998
sg7
S'255'
p3509
sg9
S'0'
sa(dp3510
g6
F3.1535839999999999
sg7
S'100'
p3511
sg9
S'0'
sa(dp3512
g6
F3.1310539999999998
sg7
S'994'
p3513
sg9
S'0'
sa(dp3514
g6
F3.1105019999999999
sg7
S'238'
p3515
sg9
S'0'
sa(dp3516
g6
F3.0502530000000001
sg7
S'586'
p3517
sg9
S'0'
sa(dp3518
g6
F3.0273840000000001
sg7
S'9'
sg9
S'0'
sa(dp3519
g6
F2.9619849999999999
sg7
S'598'
p3520
sg9
S'0'
sa(dp3521
g6
F2.8783400000000001
sg7
S'306'
p3522
sg9
S'0'
sa(dp3523
g6
F2.807312
sg7
S'803'
p3524
sg9
S'0'
sa(dp3525
g6
F2.7722259999999999
sg7
S'159'
p3526
sg9
S'0'
sa(dp3527
g6
F2.7673320000000001
sg7
S'910'
p3528
sg9
S'0'
sa(dp3529
g6
F2.6844160000000001
sg7
S'181'
p3530
sg9
S'0'
sa(dp3531
g6
F2.647446
sg7
S'914'
p3532
sg9
S'0'
sa(dp3533
g6
F2.627888
sg7
S'285'
p3534
sg9
S'0'
sa(dp3535
g6
F2.62487
sg7
S'748'
p3536
sg9
S'0'
sa(dp3537
g6
F2.5744530000000001
sg7
S'889'
p3538
sg9
S'0'
sasg7
S'49'
p3539
sg9
S'0'
sa(dp3540
g3
(lp3541
(dp3542
g6
F4.1736259999999996
sg7
S'255'
p3543
sg9
S'0'
sa(dp3544
g6
F2.7525819999999999
sg7
S'429'
p3545
sg9
S'0'
sa(dp3546
g6
F2.7077200000000001
sg7
S'793'
p3547
sg9
S'0'
sa(dp3548
g6
F2.359531
sg7
S'25'
p3549
sg9
S'0'
sa(dp3550
g6
F2.2057060000000002
sg7
S'586'
p3551
sg9
S'0'
sa(dp3552
g6
F2.1677740000000001
sg7
S'407'
p3553
sg9
S'0'
sa(dp3554
g6
F2.1350769999999999
sg7
S'748'
p3555
sg9
S'0'
sa(dp3556
g6
F2.1239840000000001
sg7
S'100'
p3557
sg9
S'0'
sa(dp3558
g6
F1.942089
sg7
S'32'
p3559
sg9
S'0'
sa(dp3560
g6
F1.8565290000000001
sg7
S'364'
p3561
sg9
S'0'
sa(dp3562
g6
F1.8043480000000001
sg7
S'272'
p3563
sg9
S'0'
sa(dp3564
g6
F1.7916620000000001
sg7
S'743'
p3565
sg9
S'0'
sa(dp3566
g6
F1.7901320000000001
sg7
S'598'
p3567
sg9
S'0'
sa(dp3568
g6
F1.7518959999999999
sg7
S'356'
p3569
sg9
S'0'
sa(dp3570
g6
F1.5302640000000001
sg7
S'918'
p3571
sg9
S'0'
sa(dp3572
g6
F1.528791
sg7
S'881'
p3573
sg9
S'0'
sa(dp3574
g6
F1.5212330000000001
sg7
S'73'
p3575
sg9
S'0'
sa(dp3576
g6
F1.3874979999999999
sg7
S'873'
p3577
sg9
S'0'
sa(dp3578
g6
F1.348184
sg7
S'258'
p3579
sg9
S'0'
sa(dp3580
g6
F1.3312090000000001
sg7
S'408'
p3581
sg9
S'0'
sasg7
S'67'
p3582
sg9
S'0'
sa(dp3583
g3
(lp3584
(dp3585
g6
F10.439228999999999
sg7
S'98'
p3586
sg9
S'0'
sa(dp3587
g6
F6.3595379999999997
sg7
S'61'
p3588
sg9
S'0'
sa(dp3589
g6
F5.2671919999999997
sg7
S'451'
p3590
sg9
S'0'
sa(dp3591
g6
F5.225606
sg7
S'795'
p3592
sg9
S'0'
sa(dp3593
g6
F5.00021
sg7
S'101'
p3594
sg9
S'0'
sa(dp3595
g6
F4.2400549999999999
sg7
S'841'
p3596
sg9
S'0'
sa(dp3597
g6
F3.3192970000000002
sg7
S'34'
p3598
sg9
S'0'
sa(dp3599
g6
F3.0874079999999999
sg7
S'73'
p3600
sg9
S'0'
sa(dp3601
g6
F2.980928
sg7
S'908'
p3602
sg9
S'0'
sa(dp3603
g6
F2.8434370000000002
sg7
S'827'
p3604
sg9
S'0'
sa(dp3605
g6
F2.6767310000000002
sg7
S'984'
p3606
sg9
S'0'
sa(dp3607
g6
F2.6578460000000002
sg7
S'399'
p3608
sg9
S'0'
sa(dp3609
g6
F2.4778799999999999
sg7
S'623'
p3610
sg9
S'0'
sa(dp3611
g6
F2.4409730000000001
sg7
S'848'
p3612
sg9
S'0'
sa(dp3613
g6
F2.3285900000000002
sg7
S'375'
p3614
sg9
S'0'
sa(dp3615
g6
F2.1707519999999998
sg7
S'615'
p3616
sg9
S'0'
sa(dp3617
g6
F1.948423
sg7
S'743'
p3618
sg9
S'0'
sa(dp3619
g6
F1.9280489999999999
sg7
S'806'
p3620
sg9
S'0'
sa(dp3621
g6
F1.642104
sg7
S'510'
p3622
sg9
S'0'
sa(dp3623
g6
F1.608196
sg7
S'830'
p3624
sg9
S'0'
sasg7
S'98'
p3625
sg9
S'0'
sa(dp3626
g3
(lp3627
(dp3628
g6
F4.0592980000000001
sg7
S'422'
p3629
sg9
S'0'
sa(dp3630
g6
F3.9825650000000001
sg7
S'247'
p3631
sg9
S'0'
sa(dp3632
g6
F3.9092669999999998
sg7
S'305'
p3633
sg9
S'0'
sa(dp3634
g6
F3.836382
sg7
S'438'
p3635
sg9
S'0'
sa(dp3636
g6
F3.7529680000000001
sg7
S'303'
p3637
sg9
S'0'
sa(dp3638
g6
F3.2084030000000001
sg7
S'538'
p3639
sg9
S'0'
sa(dp3640
g6
F3.1985589999999999
sg7
S'654'
p3641
sg9
S'0'
sa(dp3642
g6
F3.1361870000000001
sg7
S'659'
p3643
sg9
S'0'
sa(dp3644
g6
F2.8490220000000002
sg7
S'204'
p3645
sg9
S'0'
sa(dp3646
g6
F2.8399999999999999
sg7
S'651'
p3647
sg9
S'0'
sa(dp3648
g6
F2.7671450000000002
sg7
S'233'
p3649
sg9
S'0'
sa(dp3650
g6
F2.594074
sg7
S'249'
p3651
sg9
S'0'
sa(dp3652
g6
F2.2524009999999999
sg7
S'236'
p3653
sg9
S'0'
sa(dp3654
g6
F2.2269230000000002
sg7
S'679'
p3655
sg9
S'0'
sa(dp3656
g6
F2.095507
sg7
S'906'
p3657
sg9
S'0'
sa(dp3658
g6
F2.0899510000000001
sg7
S'353'
p3659
sg9
S'0'
sa(dp3660
g6
F2.0423640000000001
sg7
S'975'
p3661
sg9
S'0'
sa(dp3662
g6
F1.9575709999999999
sg7
S'873'
p3663
sg9
S'0'
sa(dp3664
g6
F1.8855459999999999
sg7
S'301'
p3665
sg9
S'0'
sa(dp3666
g6
F1.6200619999999999
sg7
S'916'
p3667
sg9
S'0'
sasg7
S'13'
p3668
sg9
S'0'
sa(dp3669
g3
(lp3670
(dp3671
g6
F7.3439329999999998
sg7
S'18'
p3672
sg9
S'0'
sa(dp3673
g6
F6.6763589999999997
sg7
S'223'
p3674
sg9
S'0'
sa(dp3675
g6
F6.4031469999999997
sg7
S'835'
p3676
sg9
S'0'
sa(dp3677
g6
F5.3382589999999999
sg7
S'929'
p3678
sg9
S'0'
sa(dp3679
g6
F5.1432669999999998
sg7
S'505'
p3680
sg9
S'0'
sa(dp3681
g6
F4.9764710000000001
sg7
S'491'
p3682
sg9
S'0'
sa(dp3683
g6
F4.8706300000000002
sg7
S'180'
p3684
sg9
S'0'
sa(dp3685
g6
F4.8399999999999999
sg7
S'468'
p3686
sg9
S'0'
sa(dp3687
g6
F4.6457439999999997
sg7
S'371'
p3688
sg9
S'0'
sa(dp3689
g6
F4.5376820000000002
sg7
S'568'
p3690
sg9
S'0'
sa(dp3691
g6
F4.3383450000000003
sg7
S'982'
p3692
sg9
S'0'
sa(dp3693
g6
F4.0976470000000003
sg7
S'621'
p3694
sg9
S'0'
sa(dp3695
g6
F4.004162
sg7
S'81'
p3696
sg9
S'0'
sa(dp3697
g6
F3.9071920000000002
sg7
S'799'
p3698
sg9
S'0'
sa(dp3699
g6
F3.5570219999999999
sg7
S'28'
p3700
sg9
S'0'
sa(dp3701
g6
F3.4094959999999999
sg7
S'574'
p3702
sg9
S'0'
sa(dp3703
g6
F3.388992
sg7
S'922'
p3704
sg9
S'0'
sa(dp3705
g6
F3.3479160000000001
sg7
S'550'
p3706
sg9
S'0'
sa(dp3707
g6
F2.9677220000000002
sg7
S'534'
p3708
sg9
S'0'
sa(dp3709
g6
F2.9213710000000002
sg7
S'275'
p3710
sg9
S'0'
sasg7
S'18'
p3711
sg9
S'0'
sa(dp3712
g3
(lp3713
(dp3714
g6
F3.4111069999999999
sg7
S'13'
p3715
sg9
S'0'
sa(dp3716
g6
F3.3617530000000002
sg7
S'920'
p3717
sg9
S'0'
sa(dp3718
g6
F3.3126009999999999
sg7
S'93'
p3719
sg9
S'0'
sa(dp3720
g6
F3.2041740000000001
sg7
S'976'
p3721
sg9
S'0'
sa(dp3722
g6
F3.1577380000000002
sg7
S'47'
p3723
sg9
S'0'
sa(dp3724
g6
F3.0297990000000001
sg7
S'465'
p3725
sg9
S'0'
sa(dp3726
g6
F2.9087939999999999
sg7
S'72'
p3727
sg9
S'0'
sa(dp3728
g6
F2.7837209999999999
sg7
S'524'
p3729
sg9
S'0'
sa(dp3730
g6
F2.6953290000000001
sg7
S'100'
p3731
sg9
S'0'
sa(dp3732
g6
F2.6544279999999998
sg7
S'536'
p3733
sg9
S'0'
sa(dp3734
g6
F2.645645
sg7
S'569'
p3735
sg9
S'0'
sa(dp3736
g6
F2.3437269999999999
sg7
S'49'
p3737
sg9
S'0'
sa(dp3738
g6
F2.3221400000000001
sg7
S'910'
p3739
sg9
S'0'
sa(dp3740
g6
F2.1932589999999998
sg7
S'844'
p3741
sg9
S'0'
sa(dp3742
g6
F2.1363750000000001
sg7
S'608'
p3743
sg9
S'0'
sa(dp3744
g6
F2.0684629999999999
sg7
S'272'
p3745
sg9
S'0'
sa(dp3746
g6
F2.0668549999999999
sg7
S'221'
p3747
sg9
S'0'
sa(dp3748
g6
F2.0341130000000001
sg7
S'586'
p3749
sg9
S'0'
sa(dp3750
g6
F2.0274740000000002
sg7
S'873'
p3751
sg9
S'0'
sa(dp3752
g6
F2.0136259999999999
sg7
S'446'
p3753
sg9
S'0'
sasg7
S'72'
p3754
sg9
S'0'
sa(dp3755
g3
(lp3756
(dp3757
g6
F3.13097
sg7
S'383'
p3758
sg9
S'0'
sa(dp3759
g6
F2.769514
sg7
S'942'
p3760
sg9
S'0'
sa(dp3761
g6
F2.6074449999999998
sg7
S'256'
p3762
sg9
S'0'
sa(dp3763
g6
F2.5942150000000002
sg7
S'672'
p3764
sg9
S'0'
sa(dp3765
g6
F2.5374479999999999
sg7
S'436'
p3766
sg9
S'0'
sa(dp3767
g6
F2.3079200000000002
sg7
S'813'
p3768
sg9
S'0'
sa(dp3769
g6
F2.0555949999999998
sg7
S'786'
p3770
sg9
S'0'
sa(dp3771
g6
F2.0415100000000002
sg7
S'843'
p3772
sg9
S'0'
sa(dp3773
g6
F2.0190049999999999
sg7
S'562'
p3774
sg9
S'0'
sa(dp3775
g6
F2.0107689999999998
sg7
S'607'
p3776
sg9
S'0'
sa(dp3777
g6
F2.0054120000000002
sg7
S'794'
p3778
sg9
S'0'
sa(dp3779
g6
F1.959214
sg7
S'935'
p3780
sg9
S'0'
sa(dp3781
g6
F1.8900170000000001
sg7
S'829'
p3782
sg9
S'0'
sa(dp3783
g6
F1.861
sg7
S'690'
p3784
sg9
S'0'
sa(dp3785
g6
F1.79684
sg7
S'592'
p3786
sg9
S'0'
sa(dp3787
g6
F1.7741279999999999
sg7
S'167'
p3788
sg9
S'0'
sa(dp3789
g6
F1.7306790000000001
sg7
S'287'
p3790
sg9
S'0'
sa(dp3791
g6
F1.7057359999999999
sg7
S'874'
p3792
sg9
S'0'
sa(dp3793
g6
F1.6872229999999999
sg7
S'885'
p3794
sg9
S'0'
sa(dp3795
g6
F1.6404620000000001
sg7
S'587'
p3796
sg9
S'0'
sasg7
S'77'
p3797
sg9
S'0'
sa(dp3798
g3
(lp3799
(dp3800
g6
F5.2857529999999997
sg7
S'37'
p3801
sg9
S'0'
sa(dp3802
g6
F4.3940700000000001
sg7
S'153'
p3803
sg9
S'0'
sa(dp3804
g6
F3.6178669999999999
sg7
S'99'
p3805
sg9
S'0'
sa(dp3806
g6
F3.4591059999999998
sg7
S'694'
p3807
sg9
S'0'
sa(dp3808
g6
F3.0387550000000001
sg7
S'742'
p3809
sg9
S'0'
sa(dp3810
g6
F2.3757510000000002
sg7
S'473'
p3811
sg9
S'0'
sa(dp3812
g6
F2.3658260000000002
sg7
S'420'
p3813
sg9
S'0'
sa(dp3814
g6
F2.1889669999999999
sg7
S'64'
p3815
sg9
S'0'
sa(dp3816
g6
F2.0043139999999999
sg7
S'504'
p3817
sg9
S'0'
sa(dp3818
g6
F1.93137
sg7
S'380'
p3819
sg9
S'0'
sa(dp3820
g6
F1.913246
sg7
S'685'
p3821
sg9
S'0'
sa(dp3822
g6
F1.9065209999999999
sg7
S'709'
p3823
sg9
S'0'
sa(dp3824
g6
F1.7781070000000001
sg7
S'597'
p3825
sg9
S'0'
sa(dp3826
g6
F1.7755890000000001
sg7
S'648'
p3827
sg9
S'0'
sa(dp3828
g6
F1.7476499999999999
sg7
S'146'
p3829
sg9
S'0'
sa(dp3830
g6
F1.683262
sg7
S'958'
p3831
sg9
S'0'
sa(dp3832
g6
F1.474159
sg7
S'370'
p3833
sg9
S'0'
sa(dp3834
g6
F1.4364760000000001
sg7
S'174'
p3835
sg9
S'0'
sa(dp3836
g6
F1.4224619999999999
sg7
S'671'
p3837
sg9
S'0'
sa(dp3838
g6
F1.416317
sg7
S'494'
p3839
sg9
S'0'
sasg7
S'37'
p3840
sg9
S'0'
sa(dp3841
g3
(lp3842
(dp3843
g6
F7.2286960000000002
sg7
S'285'
p3844
sg9
S'0'
sa(dp3845
g6
F6.9165970000000003
sg7
S'361'
p3846
sg9
S'0'
sa(dp3847
g6
F6.0621489999999998
sg7
S'446'
p3848
sg9
S'0'
sa(dp3849
g6
F5.9405520000000003
sg7
S'201'
p3850
sg9
S'0'
sa(dp3851
g6
F5.9005910000000004
sg7
S'192'
p3852
sg9
S'0'
sa(dp3853
g6
F5.5015260000000001
sg7
S'608'
p3854
sg9
S'0'
sa(dp3855
g6
F5.4556870000000002
sg7
S'923'
p3856
sg9
S'0'
sa(dp3857
g6
F5.4301589999999997
sg7
S'489'
p3858
sg9
S'0'
sa(dp3859
g6
F5.4164430000000001
sg7
S'354'
p3860
sg9
S'0'
sa(dp3861
g6
F5.0903850000000004
sg7
S'2'
sg9
S'0'
sa(dp3862
g6
F4.9370630000000002
sg7
S'138'
p3863
sg9
S'0'
sa(dp3864
g6
F4.853497
sg7
S'88'
p3865
sg9
S'0'
sa(dp3866
g6
F4.8474329999999997
sg7
S'628'
p3867
sg9
S'0'
sa(dp3868
g6
F4.8453039999999996
sg7
S'662'
p3869
sg9
S'0'
sa(dp3870
g6
F4.7066730000000003
sg7
S'409'
p3871
sg9
S'0'
sa(dp3872
g6
F4.6152879999999996
sg7
S'834'
p3873
sg9
S'0'
sa(dp3874
g6
F4.5906260000000003
sg7
S'258'
p3875
sg9
S'0'
sa(dp3876
g6
F4.5035129999999999
sg7
S'171'
p3877
sg9
S'0'
sa(dp3878
g6
F4.4996809999999998
sg7
S'737'
p3879
sg9
S'0'
sa(dp3880
g6
F4.4957349999999998
sg7
S'658'
p3881
sg9
S'0'
sasg7
S'17'
p3882
sg9
S'0'
sa(dp3883
g3
(lp3884
(dp3885
g6
F4.2069549999999998
sg7
S'897'
p3886
sg9
S'0'
sa(dp3887
g6
F4.1264419999999999
sg7
S'962'
p3888
sg9
S'0'
sa(dp3889
g6
F3.339585
sg7
S'732'
p3890
sg9
S'0'
sa(dp3891
g6
F3.1971280000000002
sg7
S'90'
p3892
sg9
S'0'
sa(dp3893
g6
F3.1427559999999999
sg7
S'352'
p3894
sg9
S'0'
sa(dp3895
g6
F3.0330180000000002
sg7
S'801'
p3896
sg9
S'0'
sa(dp3897
g6
F3.0275500000000002
sg7
S'813'
p3898
sg9
S'0'
sa(dp3899
g6
F2.9153799999999999
sg7
S'145'
p3900
sg9
S'0'
sa(dp3901
g6
F2.8788339999999999
sg7
S'293'
p3902
sg9
S'0'
sa(dp3903
g6
F2.8091529999999998
sg7
S'944'
p3904
sg9
S'0'
sa(dp3905
g6
F2.7439399999999998
sg7
S'714'
p3906
sg9
S'0'
sa(dp3907
g6
F2.7210480000000001
sg7
S'428'
p3908
sg9
S'0'
sa(dp3909
g6
F2.6965979999999998
sg7
S'668'
p3910
sg9
S'0'
sa(dp3911
g6
F2.5546470000000001
sg7
S'252'
p3912
sg9
S'0'
sa(dp3913
g6
F2.5415670000000001
sg7
S'528'
p3914
sg9
S'0'
sa(dp3915
g6
F2.4685190000000001
sg7
S'779'
p3916
sg9
S'0'
sa(dp3917
g6
F2.4580169999999999
sg7
S'256'
p3918
sg9
S'0'
sa(dp3919
g6
F2.2880129999999999
sg7
S'170'
p3920
sg9
S'0'
sa(dp3921
g6
F2.2776740000000002
sg7
S'946'
p3922
sg9
S'0'
sa(dp3923
g6
F2.2759360000000002
sg7
S'477'
p3924
sg9
S'0'
sasg7
S'52'
p3925
sg9
S'0'
sa(dp3926
g3
(lp3927
(dp3928
g6
F5.4644510000000004
sg7
S'670'
p3929
sg9
S'0'
sa(dp3930
g6
F4.9473229999999999
sg7
S'635'
p3931
sg9
S'0'
sa(dp3932
g6
F4.7092970000000003
sg7
S'530'
p3933
sg9
S'0'
sa(dp3934
g6
F4.5910169999999999
sg7
S'159'
p3935
sg9
S'0'
sa(dp3936
g6
F4.2314340000000001
sg7
S'296'
p3937
sg9
S'0'
sa(dp3938
g6
F3.9302290000000002
sg7
S'95'
p3939
sg9
S'0'
sa(dp3940
g6
F3.815893
sg7
S'658'
p3941
sg9
S'0'
sa(dp3942
g6
F3.740402
sg7
S'996'
p3943
sg9
S'0'
sa(dp3944
g6
F3.4326690000000002
sg7
S'192'
p3945
sg9
S'0'
sa(dp3946
g6
F3.3662930000000002
sg7
S'943'
p3947
sg9
S'0'
sa(dp3948
g6
F3.3320810000000001
sg7
S'687'
p3949
sg9
S'0'
sa(dp3950
g6
F3.157686
sg7
S'737'
p3951
sg9
S'0'
sa(dp3952
g6
F3.1383719999999999
sg7
S'306'
p3953
sg9
S'0'
sa(dp3954
g6
F3.102303
sg7
S'234'
p3955
sg9
S'0'
sa(dp3956
g6
F3.1014900000000001
sg7
S'703'
p3957
sg9
S'0'
sa(dp3958
g6
F2.8782670000000001
sg7
S'872'
p3959
sg9
S'0'
sa(dp3960
g6
F2.762184
sg7
S'307'
p3961
sg9
S'0'
sa(dp3962
g6
F2.6616249999999999
sg7
S'886'
p3963
sg9
S'0'
sa(dp3964
g6
F2.6543459999999999
sg7
S'227'
p3965
sg9
S'0'
sa(dp3966
g6
F2.5918329999999998
sg7
S'700'
p3967
sg9
S'0'
sasg7
S'73'
p3968
sg9
S'0'
sa(dp3969
g3
(lp3970
(dp3971
g6
F5.3694439999999997
sg7
S'287'
p3972
sg9
S'0'
sa(dp3973
g6
F4.371372
sg7
S'855'
p3974
sg9
S'0'
sa(dp3975
g6
F4.2918979999999998
sg7
S'99'
p3976
sg9
S'0'
sa(dp3977
g6
F4.0736129999999999
sg7
S'216'
p3978
sg9
S'0'
sa(dp3979
g6
F3.9277519999999999
sg7
S'942'
p3980
sg9
S'0'
sa(dp3981
g6
F3.8462679999999998
sg7
S'683'
p3982
sg9
S'0'
sa(dp3983
g6
F3.759172
sg7
S'562'
p3984
sg9
S'0'
sa(dp3985
g6
F3.6001979999999998
sg7
S'170'
p3986
sg9
S'0'
sa(dp3987
g6
F3.4405160000000001
sg7
S'377'
p3988
sg9
S'0'
sa(dp3989
g6
F3.4354710000000002
sg7
S'813'
p3990
sg9
S'0'
sa(dp3991
g6
F3.4031319999999998
sg7
S'690'
p3992
sg9
S'0'
sa(dp3993
g6
F3.354759
sg7
S'891'
p3994
sg9
S'0'
sa(dp3995
g6
F3.187452
sg7
S'182'
p3996
sg9
S'0'
sa(dp3997
g6
F3.166121
sg7
S'321'
p3998
sg9
S'0'
sa(dp3999
g6
F3.1489280000000002
sg7
S'256'
p4000
sg9
S'0'
sa(dp4001
g6
F3.1101070000000002
sg7
S'211'
p4002
sg9
S'0'
sa(dp4003
g6
F3.0958600000000001
sg7
S'756'
p4004
sg9
S'0'
sa(dp4005
g6
F3.0762149999999999
sg7
S'90'
p4006
sg9
S'0'
sa(dp4007
g6
F2.9647549999999998
sg7
S'798'
p4008
sg9
S'0'
sa(dp4009
g6
F2.9320979999999999
sg7
S'199'
p4010
sg9
S'0'
sasg7
S'43'
p4011
sg9
S'0'
sa(dp4012
g3
(lp4013
(dp4014
g6
F8.9622689999999992
sg7
S'962'
p4015
sg9
S'0'
sa(dp4016
g6
F8.4300519999999999
sg7
S'721'
p4017
sg9
S'0'
sa(dp4018
g6
F8.4122939999999993
sg7
S'689'
p4019
sg9
S'0'
sa(dp4020
g6
F7.6598050000000004
sg7
S'960'
p4021
sg9
S'0'
sa(dp4022
g6
F7.2643620000000002
sg7
S'252'
p4023
sg9
S'0'
sa(dp4024
g6
F7.0998590000000004
sg7
S'823'
p4025
sg9
S'0'
sa(dp4026
g6
F5.9341720000000002
sg7
S'805'
p4027
sg9
S'0'
sa(dp4028
g6
F5.4595719999999996
sg7
S'548'
p4029
sg9
S'0'
sa(dp4030
g6
F5.1187129999999996
sg7
S'14'
p4031
sg9
S'0'
sa(dp4032
g6
F4.8155039999999998
sg7
S'878'
p4033
sg9
S'0'
sa(dp4034
g6
F4.8141189999999998
sg7
S'979'
p4035
sg9
S'0'
sa(dp4036
g6
F4.7554860000000003
sg7
S'969'
p4037
sg9
S'0'
sa(dp4038
g6
F4.5959760000000003
sg7
S'652'
p4039
sg9
S'0'
sa(dp4040
g6
F4.3148780000000002
sg7
S'688'
p4041
sg9
S'0'
sa(dp4042
g6
F4.3020610000000001
sg7
S'74'
p4043
sg9
S'0'
sa(dp4044
g6
F3.9182969999999999
sg7
S'534'
p4045
sg9
S'0'
sa(dp4046
g6
F3.898701
sg7
S'293'
p4047
sg9
S'0'
sa(dp4048
g6
F3.555771
sg7
S'28'
p4049
sg9
S'0'
sa(dp4050
g6
F3.4546389999999998
sg7
S'804'
p4051
sg9
S'0'
sa(dp4052
g6
F3.4454570000000002
sg7
S'605'
p4053
sg9
S'0'
sasg7
S'10'
p4054
sg9
S'0'
sa(dp4055
g3
(lp4056
(dp4057
g6
F4.8613039999999996
sg7
S'510'
p4058
sg9
S'0'
sa(dp4059
g6
F4.2779090000000002
sg7
S'76'
p4060
sg9
S'0'
sa(dp4061
g6
F4.1570999999999998
sg7
S'367'
p4062
sg9
S'0'
sa(dp4063
g6
F3.8841700000000001
sg7
S'379'
p4064
sg9
S'0'
sa(dp4065
g6
F3.75671
sg7
S'515'
p4066
sg9
S'0'
sa(dp4067
g6
F3.650541
sg7
S'40'
p4068
sg9
S'0'
sa(dp4069
g6
F3.6292260000000001
sg7
S'864'
p4070
sg9
S'0'
sa(dp4071
g6
F3.6017730000000001
sg7
S'308'
p4072
sg9
S'0'
sa(dp4073
g6
F3.5999349999999999
sg7
S'674'
p4074
sg9
S'0'
sa(dp4075
g6
F3.5982669999999999
sg7
S'635'
p4076
sg9
S'0'
sa(dp4077
g6
F3.484953
sg7
S'948'
p4078
sg9
S'0'
sa(dp4079
g6
F3.319553
sg7
S'297'
p4080
sg9
S'0'
sa(dp4081
g6
F3.2808069999999998
sg7
S'408'
p4082
sg9
S'0'
sa(dp4083
g6
F3.1891609999999999
sg7
S'614'
p4084
sg9
S'0'
sa(dp4085
g6
F3.1611189999999998
sg7
S'734'
p4086
sg9
S'0'
sa(dp4087
g6
F3.098668
sg7
S'260'
p4088
sg9
S'0'
sa(dp4089
g6
F3.0890179999999998
sg7
S'389'
p4090
sg9
S'0'
sa(dp4091
g6
F3.0818099999999999
sg7
S'898'
p4092
sg9
S'0'
sa(dp4093
g6
F3.0804130000000001
sg7
S'627'
p4094
sg9
S'0'
sa(dp4095
g6
F3.0574650000000001
sg7
S'388'
p4096
sg9
S'0'
sasg7
S'23'
p4097
sg9
S'0'
sa(dp4098
g3
(lp4099
(dp4100
g6
F3.500645
sg7
S'477'
p4101
sg9
S'0'
sa(dp4102
g6
F3.480089
sg7
S'868'
p4103
sg9
S'0'
sa(dp4104
g6
F3.2919679999999998
sg7
S'935'
p4105
sg9
S'0'
sa(dp4106
g6
F3.2539940000000001
sg7
S'760'
p4107
sg9
S'0'
sa(dp4108
g6
F3.1900520000000001
sg7
S'90'
p4109
sg9
S'0'
sa(dp4110
g6
F3.0553699999999999
sg7
S'527'
p4111
sg9
S'0'
sa(dp4112
g6
F2.9856129999999999
sg7
S'170'
p4113
sg9
S'0'
sa(dp4114
g6
F2.9515609999999999
sg7
S'42'
p4115
sg9
S'0'
sa(dp4116
g6
F2.9407640000000002
sg7
S'195'
p4117
sg9
S'0'
sa(dp4118
g6
F2.9342980000000001
sg7
S'484'
p4119
sg9
S'0'
sa(dp4120
g6
F2.9249580000000002
sg7
S'918'
p4121
sg9
S'0'
sa(dp4122
g6
F2.889904
sg7
S'966'
p4123
sg9
S'0'
sa(dp4124
g6
F2.8755139999999999
sg7
S'77'
p4125
sg9
S'0'
sa(dp4126
g6
F2.849024
sg7
S'891'
p4127
sg9
S'0'
sa(dp4128
g6
F2.7793770000000002
sg7
S'709'
p4129
sg9
S'0'
sa(dp4130
g6
F2.768561
sg7
S'321'
p4131
sg9
S'0'
sa(dp4132
g6
F2.75596
sg7
S'377'
p4133
sg9
S'0'
sa(dp4134
g6
F2.7224659999999998
sg7
S'813'
p4135
sg9
S'0'
sa(dp4136
g6
F2.7188500000000002
sg7
S'719'
p4137
sg9
S'0'
sa(dp4138
g6
F2.6100310000000002
sg7
S'828'
p4139
sg9
S'0'
sasg7
S'15'
p4140
sg9
S'0'
sa(dp4141
g3
(lp4142
(dp4143
g6
F4.3233420000000002
sg7
S'990'
p4144
sg9
S'0'
sa(dp4145
g6
F3.7361559999999998
sg7
S'63'
p4146
sg9
S'0'
sa(dp4147
g6
F3.7343310000000001
sg7
S'859'
p4148
sg9
S'0'
sa(dp4149
g6
F2.6456930000000001
sg7
S'47'
p4150
sg9
S'0'
sa(dp4151
g6
F2.462561
sg7
S'356'
p4152
sg9
S'0'
sa(dp4153
g6
F2.2785419999999998
sg7
S'29'
p4154
sg9
S'0'
sa(dp4155
g6
F1.9751449999999999
sg7
S'756'
p4156
sg9
S'0'
sa(dp4157
g6
F1.9513780000000001
sg7
S'938'
p4158
sg9
S'0'
sa(dp4159
g6
F1.6531199999999999
sg7
S'569'
p4160
sg9
S'0'
sa(dp4161
g6
F1.5932249999999999
sg7
S'465'
p4162
sg9
S'0'
sa(dp4163
g6
F1.5874200000000001
sg7
S'209'
p4164
sg9
S'0'
sa(dp4165
g6
F1.5581259999999999
sg7
S'455'
p4166
sg9
S'0'
sa(dp4167
g6
F1.468853
sg7
S'100'
p4168
sg9
S'0'
sa(dp4169
g6
F1.4328650000000001
sg7
S'256'
p4170
sg9
S'0'
sa(dp4171
g6
F1.365164
sg7
S'221'
p4172
sg9
S'0'
sa(dp4173
g6
F1.3557300000000001
sg7
S'85'
p4174
sg9
S'0'
sa(dp4175
g6
F1.3548180000000001
sg7
S'631'
p4176
sg9
S'0'
sa(dp4177
g6
F1.3378559999999999
sg7
S'509'
p4178
sg9
S'0'
sa(dp4179
g6
F1.3207340000000001
sg7
S'30'
p4180
sg9
S'0'
sa(dp4181
g6
F1.291245
sg7
S'207'
p4182
sg9
S'0'
sasg7
S'63'
p4183
sg9
S'0'
sa(dp4184
g3
(lp4185
(dp4186
g6
F4.9384589999999999
sg7
S'595'
p4187
sg9
S'0'
sa(dp4188
g6
F4.7266919999999999
sg7
S'938'
p4189
sg9
S'0'
sa(dp4190
g6
F4.6736680000000002
sg7
S'8'
sg9
S'0'
sa(dp4191
g6
F4.0509570000000004
sg7
S'548'
p4192
sg9
S'0'
sa(dp4193
g6
F3.6910919999999998
sg7
S'962'
p4194
sg9
S'0'
sa(dp4195
g6
F3.6248339999999999
sg7
S'689'
p4196
sg9
S'0'
sa(dp4197
g6
F3.616673
sg7
S'298'
p4198
sg9
S'0'
sa(dp4199
g6
F3.5366080000000002
sg7
S'808'
p4200
sg9
S'0'
sa(dp4201
g6
F3.5161880000000001
sg7
S'112'
p4202
sg9
S'0'
sa(dp4203
g6
F3.495476
sg7
S'726'
p4204
sg9
S'0'
sa(dp4205
g6
F3.4443039999999998
sg7
S'22'
p4206
sg9
S'0'
sa(dp4207
g6
F3.4385340000000002
sg7
S'440'
p4208
sg9
S'0'
sa(dp4209
g6
F3.1487240000000001
sg7
S'462'
p4210
sg9
S'0'
sa(dp4211
g6
F2.8052429999999999
sg7
S'117'
p4212
sg9
S'0'
sa(dp4213
g6
F2.7496550000000002
sg7
S'819'
p4214
sg9
S'0'
sa(dp4215
g6
F2.6761439999999999
sg7
S'74'
p4216
sg9
S'0'
sa(dp4217
g6
F2.6504379999999998
sg7
S'688'
p4218
sg9
S'0'
sa(dp4219
g6
F2.5222259999999999
sg7
S'878'
p4220
sg9
S'0'
sa(dp4221
g6
F2.4312459999999998
sg7
S'293'
p4222
sg9
S'0'
sa(dp4223
g6
F2.4271129999999999
sg7
S'721'
p4224
sg9
S'0'
sasg7
S'70'
p4225
sg9
S'0'
sa(dp4226
g3
(lp4227
(dp4228
g6
F9.8635730000000006
sg7
S'84'
p4229
sg9
S'0'
sa(dp4230
g6
F6.6117879999999998
sg7
S'422'
p4231
sg9
S'0'
sa(dp4232
g6
F3.7083889999999999
sg7
S'163'
p4233
sg9
S'0'
sa(dp4234
g6
F3.1698059999999999
sg7
S'722'
p4235
sg9
S'0'
sa(dp4236
g6
F2.89852
sg7
S'654'
p4237
sg9
S'0'
sa(dp4238
g6
F2.5593720000000002
sg7
S'916'
p4239
sg9
S'0'
sa(dp4240
g6
F2.4036010000000001
sg7
S'92'
p4241
sg9
S'0'
sa(dp4242
g6
F2.104759
sg7
S'512'
p4243
sg9
S'0'
sa(dp4244
g6
F1.9665790000000001
sg7
S'447'
p4245
sg9
S'0'
sa(dp4246
g6
F1.7528250000000001
sg7
S'699'
p4247
sg9
S'0'
sa(dp4248
g6
F1.662766
sg7
S'320'
p4249
sg9
S'0'
sa(dp4250
g6
F1.6406099999999999
sg7
S'538'
p4251
sg9
S'0'
sa(dp4252
g6
F1.38619
sg7
S'659'
p4253
sg9
S'0'
sa(dp4254
g6
F1.3458749999999999
sg7
S'664'
p4255
sg9
S'0'
sa(dp4256
g6
F1.3412230000000001
sg7
S'856'
p4257
sg9
S'0'
sa(dp4258
g6
F1.3181339999999999
sg7
S'301'
p4259
sg9
S'0'
sa(dp4260
g6
F0.95671700000000004
sg7
S'730'
p4261
sg9
S'0'
sa(dp4262
g6
F0.71845800000000004
sg7
S'496'
p4263
sg9
S'0'
sa(dp4264
g6
F0.66658399999999995
sg7
S'591'
p4265
sg9
S'0'
sa(dp4266
g6
F0.56620199999999998
sg7
S'688'
p4267
sg9
S'0'
sasg7
S'84'
p4268
sg9
S'0'
sa.