(lp1
(dp2
S'data'
p3
(lp4
(dp5
S'score'
p6
F6.0217479999999997
sS'id'
p7
S'6073'
p8
sS'name'
p9
S'1.jpg.bin'
p10
sa(dp11
g6
F5.5774819999999998
sg7
S'5679'
p12
sg9
S'2_noplate.jpg.bin'
p13
sa(dp14
g6
F5.0637150000000002
sg7
S'6009'
p15
sg9
S'4_noplate.jpg.bin'
p16
sa(dp17
g6
F4.9457839999999997
sg7
S'3983'
p18
sg9
S'1_noplate.jpg.bin'
p19
sa(dp20
g6
F4.9215929999999997
sg7
S'3656'
p21
sg9
S'5.jpg.bin'
p22
sa(dp23
g6
F4.7884789999999997
sg7
S'2113'
p24
sg9
S'5.jpg.bin'
p25
sa(dp26
g6
F4.5126569999999999
sg7
S'6032'
p27
sg9
S'11.jpg.bin'
p28
sa(dp29
g6
F4.3270460000000002
sg7
S'6587'
p30
sg9
S'2_noplate.jpg.bin'
p31
sa(dp32
g6
F4.3264310000000004
sg7
S'6541'
p33
sg9
S'6.jpg.bin'
p34
sa(dp35
g6
F4.0020959999999999
sg7
S'8091'
p36
sg9
S'4.jpg.bin'
p37
sa(dp38
g6
F3.9131490000000002
sg7
S'73'
p39
sg9
S'1.jpg.bin'
p40
sa(dp41
g6
F3.8694039999999998
sg7
S'2514'
p42
sg9
S'5.jpg.bin'
p43
sa(dp44
g6
F3.7036039999999999
sg7
S'5216'
p45
sg9
S'7_noplate.jpg.bin'
p46
sa(dp47
g6
F3.6024569999999998
sg7
S'8603'
p48
sg9
S'3_noplate.jpg.bin'
p49
sa(dp50
g6
F3.5250759999999999
sg7
S'4175'
p51
sg9
S'3.jpg.bin'
p52
sa(dp53
g6
F3.4724729999999999
sg7
S'5909'
p54
sg9
S'0.jpg.bin'
p55
sa(dp56
g6
F3.4331
sg7
S'3756'
p57
sg9
S'4_noplate.jpg.bin'
p58
sa(dp59
g6
F3.4102700000000001
sg7
S'6316'
p60
sg9
S'15_noplate.jpg.bin'
p61
sa(dp62
g6
F3.4002530000000002
sg7
S'1548'
p63
sg9
S'1_noplate.jpg.bin'
p64
sa(dp65
g6
F3.3167759999999999
sg7
S'3030'
p66
sg9
S'1.jpg.bin'
p67
sasg7
S'73'
p68
sg9
S'2.jpg.bin'
p69
sa(dp70
g3
(lp71
(dp72
g6
F6.2648720000000004
sg7
S'1718'
p73
sg9
S'3.jpg.bin'
p74
sa(dp75
g6
F4.6040010000000002
sg7
S'5659'
p76
sg9
S'11_noplate.jpg.bin'
p77
sa(dp78
g6
F3.7804679999999999
sg7
S'37'
p79
sg9
S'4.jpg.bin'
p80
sa(dp81
g6
F3.4276119999999999
sg7
S'1881'
p82
sg9
S'1_noplate.jpg.bin'
p83
sa(dp84
g6
F3.3609420000000001
sg7
S'9555'
p85
sg9
S'3_noplate.jpg.bin'
p86
sa(dp87
g6
F3.3049219999999999
sg7
S'1430'
p88
sg9
S'0_noplate.jpg.bin'
p89
sa(dp90
g6
F3.2826819999999999
sg7
S'4728'
p91
sg9
S'2.jpg.bin'
p92
sa(dp93
g6
F2.8992439999999999
sg7
S'6859'
p94
sg9
S'1.jpg.bin'
p95
sa(dp96
g6
F2.5194350000000001
sg7
S'4209'
p97
sg9
S'9.jpg.bin'
p98
sa(dp99
g6
F2.3314460000000001
sg7
S'4659'
p100
sg9
S'5_noplate.jpg.bin'
p101
sa(dp102
g6
F2.0569500000000001
sg7
S'6271'
p103
sg9
S'2_noplate.jpg.bin'
p104
sa(dp105
g6
F1.9953190000000001
sg7
S'4999'
p106
sg9
S'4_noplate.jpg.bin'
p107
sa(dp108
g6
F1.9177169999999999
sg7
S'2877'
p109
sg9
S'5_noplate.jpg.bin'
p110
sa(dp111
g6
F1.865013
sg7
S'4175'
p112
sg9
S'3.jpg.bin'
p113
sa(dp114
g6
F1.7195819999999999
sg7
S'9786'
p115
sg9
S'7.jpg.bin'
p116
sa(dp117
g6
F1.6412599999999999
sg7
S'639'
p118
sg9
S'3.jpg.bin'
p119
sa(dp120
g6
F1.4943580000000001
sg7
S'1125'
p121
sg9
S'6_noplate.jpg.bin'
p122
sa(dp123
g6
F1.458046
sg7
S'1644'
p124
sg9
S'0_noplate.jpg.bin'
p125
sa(dp126
g6
F1.3519859999999999
sg7
S'7260'
p127
sg9
S'5_noplate.jpg.bin'
p128
sa(dp129
g6
F1.339094
sg7
S'891'
p130
sg9
S'3.jpg.bin'
p131
sasg7
S'37'
p132
sg9
S'2_noplate.jpg.bin'
p133
sa(dp134
g3
(lp135
(dp136
g6
F11.508075
sg7
S'5515'
p137
sg9
S'5_noplate.jpg.bin'
p138
sa(dp139
g6
F11.460645
sg7
S'7505'
p140
sg9
S'5_noplate.jpg.bin'
p141
sa(dp142
g6
F10.473715
sg7
S'5915'
p143
sg9
S'3.jpg.bin'
p144
sa(dp145
g6
F10.032124
sg7
S'8823'
p146
sg9
S'11_noplate.jpg.bin'
p147
sa(dp148
g6
F9.7580380000000009
sg7
S'1700'
p149
sg9
S'1.jpg.bin'
p150
sa(dp151
g6
F9.4490130000000008
sg7
S'7623'
p152
sg9
S'2_noplate.jpg.bin'
p153
sa(dp154
g6
F9.3832000000000004
sg7
S'8101'
p155
sg9
S'9.jpg.bin'
p156
sa(dp157
g6
F9.3684899999999995
sg7
S'9101'
p158
sg9
S'4_noplate.jpg.bin'
p159
sa(dp160
g6
F9.0418090000000007
sg7
S'5864'
p161
sg9
S'10_noplate.jpg.bin'
p162
sa(dp163
g6
F8.8950999999999993
sg7
S'1970'
p164
sg9
S'4_noplate.jpg.bin'
p165
sa(dp166
g6
F8.8892969999999991
sg7
S'283'
p167
sg9
S'7_noplate.jpg.bin'
p168
sa(dp169
g6
F8.6603680000000001
sg7
S'9076'
p170
sg9
S'4_noplate.jpg.bin'
p171
sa(dp172
g6
F8.614725
sg7
S'1074'
p173
sg9
S'2.jpg.bin'
p174
sa(dp175
g6
F8.5361750000000001
sg7
S'5931'
p176
sg9
S'10_noplate.jpg.bin'
p177
sa(dp178
g6
F8.4629440000000002
sg7
S'9950'
p179
sg9
S'1_noplate.jpg.bin'
p180
sa(dp181
g6
F8.2776049999999994
sg7
S'5608'
p182
sg9
S'0_noplate.jpg.bin'
p183
sa(dp184
g6
F8.2195509999999992
sg7
S'4467'
p185
sg9
S'0_noplate.jpg.bin'
p186
sa(dp187
g6
F8.0734619999999993
sg7
S'9276'
p188
sg9
S'1_noplate.jpg.bin'
p189
sa(dp190
g6
F8.0627019999999998
sg7
S'4936'
p191
sg9
S'1.jpg.bin'
p192
sa(dp193
g6
F7.888414
sg7
S'8000'
p194
sg9
S'0_noplate.jpg.bin'
p195
sasg7
S'10'
p196
sg9
S'18.jpg.bin'
p197
sa(dp198
g3
(lp199
(dp200
g6
F9.2667710000000003
sg7
S'72'
p201
sg9
S'2_noplate.jpg.bin'
p202
sa(dp203
g6
F5.7260059999999999
sg7
S'4811'
p204
sg9
S'8_noplate.jpg.bin'
p205
sa(dp206
g6
F5.202871
sg7
S'5486'
p207
sg9
S'5_noplate.jpg.bin'
p208
sa(dp209
g6
F4.7944930000000001
sg7
S'6377'
p210
sg9
S'1_noplate.jpg.bin'
p211
sa(dp212
g6
F3.5959819999999998
sg7
S'9437'
p213
sg9
S'3_noplate.jpg.bin'
p214
sa(dp215
g6
F3.5769199999999999
sg7
S'3527'
p216
sg9
S'6_noplate.jpg.bin'
p217
sa(dp218
g6
F3.5212690000000002
sg7
S'2502'
p219
sg9
S'0.jpg.bin'
p220
sa(dp221
g6
F3.3238029999999998
sg7
S'5309'
p222
sg9
S'4_noplate.jpg.bin'
p223
sa(dp224
g6
F3.157991
sg7
S'8422'
p225
sg9
S'1_noplate.jpg.bin'
p226
sa(dp227
g6
F3.1501410000000001
sg7
S'4501'
p228
sg9
S'2_noplate.jpg.bin'
p229
sa(dp230
g6
F3.0537550000000002
sg7
S'1894'
p231
sg9
S'0.jpg.bin'
p232
sa(dp233
g6
F2.853882
sg7
S'729'
p234
sg9
S'2.jpg.bin'
p235
sa(dp236
g6
F2.4633980000000002
sg7
S'4785'
p237
sg9
S'1_noplate.jpg.bin'
p238
sa(dp239
g6
F2.3795199999999999
sg7
S'2973'
p240
sg9
S'2_noplate.jpg.bin'
p241
sa(dp242
g6
F2.2295739999999999
sg7
S'4537'
p243
sg9
S'6.jpg.bin'
p244
sa(dp245
g6
F1.938553
sg7
S'4185'
p246
sg9
S'2.jpg.bin'
p247
sa(dp248
g6
F1.9263110000000001
sg7
S'5264'
p249
sg9
S'0_noplate.jpg.bin'
p250
sa(dp251
g6
F1.8583369999999999
sg7
S'8722'
p252
sg9
S'4_noplate.jpg.bin'
p253
sa(dp254
g6
F1.8122860000000001
sg7
S'9698'
p255
sg9
S'3.jpg.bin'
p256
sa(dp257
g6
F1.5683
sg7
S'4631'
p258
sg9
S'0.jpg.bin'
p259
sasg7
S'72'
p260
sg9
S'1_noplate.jpg.bin'
p261
sa(dp262
g3
(lp263
(dp264
g6
F6.5524310000000003
sg7
S'3738'
p265
sg9
S'2.jpg.bin'
p266
sa(dp267
g6
F6.0348800000000002
sg7
S'9362'
p268
sg9
S'1_noplate.jpg.bin'
p269
sa(dp270
g6
F5.5906830000000003
sg7
S'67'
p271
sg9
S'2.jpg.bin'
p272
sa(dp273
g6
F5.4048730000000003
sg7
S'1332'
p274
sg9
S'2.jpg.bin'
p275
sa(dp276
g6
F5.3315830000000002
sg7
S'5694'
p277
sg9
S'2_noplate.jpg.bin'
p278
sa(dp279
g6
F5.1949769999999997
sg7
S'2043'
p280
sg9
S'2.jpg.bin'
p281
sa(dp282
g6
F4.3678400000000002
sg7
S'8027'
p283
sg9
S'2.jpg.bin'
p284
sa(dp285
g6
F4.3101269999999996
sg7
S'3785'
p286
sg9
S'3.jpg.bin'
p287
sa(dp288
g6
F4.216475
sg7
S'8267'
p289
sg9
S'3_noplate.jpg.bin'
p290
sa(dp291
g6
F4.1457139999999999
sg7
S'9033'
p292
sg9
S'5.jpg.bin'
p293
sa(dp294
g6
F3.9096280000000001
sg7
S'3265'
p295
sg9
S'3_noplate.jpg.bin'
p296
sa(dp297
g6
F3.7280690000000001
sg7
S'1474'
p298
sg9
S'7.jpg.bin'
p299
sa(dp300
g6
F3.7227440000000001
sg7
S'5453'
p301
sg9
S'1.jpg.bin'
p302
sa(dp303
g6
F3.714785
sg7
S'8155'
p304
sg9
S'0_noplate.jpg.bin'
p305
sa(dp306
g6
F3.582182
sg7
S'4008'
p307
sg9
S'0.jpg.bin'
p308
sa(dp309
g6
F3.5468519999999999
sg7
S'761'
p310
sg9
S'1_noplate.jpg.bin'
p311
sa(dp312
g6
F3.5464359999999999
sg7
S'6097'
p313
sg9
S'0.jpg.bin'
p314
sa(dp315
g6
F3.4127139999999998
sg7
S'7062'
p316
sg9
S'2_noplate.jpg.bin'
p317
sa(dp318
g6
F3.3735029999999999
sg7
S'1514'
p319
sg9
S'0_noplate.jpg.bin'
p320
sa(dp321
g6
F3.362438
sg7
S'682'
p322
sg9
S'7.jpg.bin'
p323
sasg7
S'67'
p324
sg9
S'1_noplate.jpg.bin'
p325
sa(dp326
g3
(lp327
(dp328
g6
F6.3808400000000001
sg7
S'7475'
p329
sg9
S'4_noplate.jpg.bin'
p330
sa(dp331
g6
F5.5045950000000001
sg7
S'61'
p332
sg9
S'3_noplate.jpg.bin'
p333
sa(dp334
g6
F5.2958829999999999
sg7
S'4996'
p335
sg9
S'5.jpg.bin'
p336
sa(dp337
g6
F4.9364220000000003
sg7
S'3920'
p338
sg9
S'0.jpg.bin'
p339
sa(dp340
g6
F4.4627439999999998
sg7
S'595'
p341
sg9
S'3_noplate.jpg.bin'
p342
sa(dp343
g6
F4.145124
sg7
S'411'
p344
sg9
S'2_noplate.jpg.bin'
p345
sa(dp346
g6
F3.7538800000000001
sg7
S'4758'
p347
sg9
S'2_noplate.jpg.bin'
p348
sa(dp349
g6
F3.7298930000000001
sg7
S'3402'
p350
sg9
S'14_noplate.jpg.bin'
p351
sa(dp352
g6
F3.7189160000000001
sg7
S'4903'
p353
sg9
S'2.jpg.bin'
p354
sa(dp355
g6
F3.0291440000000001
sg7
S'6381'
p356
sg9
S'1.jpg.bin'
p357
sa(dp358
g6
F2.1974049999999998
sg7
S'3267'
p359
sg9
S'2.jpg.bin'
p360
sa(dp361
g6
F1.6746220000000001
sg7
S'538'
p362
sg9
S'3.jpg.bin'
p363
sa(dp364
g6
F1.433379
sg7
S'880'
p365
sg9
S'3_noplate.jpg.bin'
p366
sa(dp367
g6
F1.288862
sg7
S'9664'
p368
sg9
S'1.jpg.bin'
p369
sa(dp370
g6
F1.153273
sg7
S'7839'
p371
sg9
S'12.jpg.bin'
p372
sa(dp373
g6
F1.0342709999999999
sg7
S'43'
p374
sg9
S'5_noplate.jpg.bin'
p375
sa(dp376
g6
F0.84254499999999999
sg7
S'5891'
p377
sg9
S'3.jpg.bin'
p378
sa(dp379
g6
F0.70546299999999995
sg7
S'327'
p380
sg9
S'6.jpg.bin'
p381
sa(dp382
g6
F0.59148599999999996
sg7
S'7045'
p383
sg9
S'3_noplate.jpg.bin'
p384
sa(dp385
g6
F0.28805500000000001
sg7
S'959'
p386
sg9
S'5.jpg.bin'
p387
sasg7
S'61'
p388
sg9
S'6_noplate.jpg.bin'
p389
sa(dp390
g3
(lp391
(dp392
g6
F7.4935520000000002
sg7
S'2381'
p393
sg9
S'1_noplate.jpg.bin'
p394
sa(dp395
g6
F7.3821969999999997
sg7
S'7808'
p396
sg9
S'5.jpg.bin'
p397
sa(dp398
g6
F7.269647
sg7
S'3412'
p399
sg9
S'4_noplate.jpg.bin'
p400
sa(dp401
g6
F6.5556559999999999
sg7
S'6917'
p402
sg9
S'0.jpg.bin'
p403
sa(dp404
g6
F6.4495839999999998
sg7
S'6778'
p405
sg9
S'4_noplate.jpg.bin'
p406
sa(dp407
g6
F6.2828629999999999
sg7
S'7865'
p408
sg9
S'3_noplate.jpg.bin'
p409
sa(dp410
g6
F5.9715090000000002
sg7
S'6984'
p411
sg9
S'5.jpg.bin'
p412
sa(dp413
g6
F5.9675580000000004
sg7
S'4180'
p414
sg9
S'4.jpg.bin'
p415
sa(dp416
g6
F5.9507139999999996
sg7
S'5909'
p417
sg9
S'0.jpg.bin'
p418
sa(dp419
g6
F5.7452249999999996
sg7
S'4038'
p420
sg9
S'4_noplate.jpg.bin'
p421
sa(dp422
g6
F5.693975
sg7
S'9219'
p423
sg9
S'2_noplate.jpg.bin'
p424
sa(dp425
g6
F5.4609550000000002
sg7
S'2478'
p426
sg9
S'5.jpg.bin'
p427
sa(dp428
g6
F5.1416940000000002
sg7
S'4686'
p429
sg9
S'2_noplate.jpg.bin'
p430
sa(dp431
g6
F5.0424980000000001
sg7
S'8317'
p432
sg9
S'4_noplate.jpg.bin'
p433
sa(dp434
g6
F4.9649279999999996
sg7
S'1107'
p435
sg9
S'1.jpg.bin'
p436
sa(dp437
g6
F4.9575750000000003
sg7
S'3656'
p438
sg9
S'5.jpg.bin'
p439
sa(dp440
g6
F4.7346380000000003
sg7
S'3225'
p441
sg9
S'5_noplate.jpg.bin'
p442
sa(dp443
g6
F4.6727730000000003
sg7
S'1333'
p444
sg9
S'0_noplate.jpg.bin'
p445
sa(dp446
g6
F4.5896179999999998
sg7
S'7661'
p447
sg9
S'2.jpg.bin'
p448
sa(dp449
g6
F4.3111449999999998
sg7
S'4862'
p450
sg9
S'2_noplate.jpg.bin'
p451
sasg7
S'86'
p452
sg9
S'0.jpg.bin'
p453
sa(dp454
g3
(lp455
(dp456
g6
F10.261051
sg7
S'7'
sg9
S'3.jpg.bin'
p457
sa(dp458
g6
F7.7195220000000004
sg7
S'9728'
p459
sg9
S'3.jpg.bin'
p460
sa(dp461
g6
F4.7572650000000003
sg7
S'8492'
p462
sg9
S'4.jpg.bin'
p463
sa(dp464
g6
F3.2828789999999999
sg7
S'2189'
p465
sg9
S'6_noplate.jpg.bin'
p466
sa(dp467
g6
F3.209476
sg7
S'3734'
p468
sg9
S'7.jpg.bin'
p469
sa(dp470
g6
F3.1420170000000001
sg7
S'4641'
p471
sg9
S'6_noplate.jpg.bin'
p472
sa(dp473
g6
F2.6906759999999998
sg7
S'7791'
p474
sg9
S'1_noplate.jpg.bin'
p475
sa(dp476
g6
F2.3413940000000002
sg7
S'6166'
p477
sg9
S'3_noplate.jpg.bin'
p478
sa(dp479
g6
F2.236723
sg7
S'7284'
p480
sg9
S'9_noplate.jpg.bin'
p481
sa(dp482
g6
F2.2035279999999999
sg7
S'2877'
p483
sg9
S'5_noplate.jpg.bin'
p484
sa(dp485
g6
F2.0870359999999999
sg7
S'1153'
p486
sg9
S'2.jpg.bin'
p487
sa(dp488
g6
F1.8006340000000001
sg7
S'9346'
p489
sg9
S'2_noplate.jpg.bin'
p490
sa(dp491
g6
F1.755962
sg7
S'6192'
p492
sg9
S'0.jpg.bin'
p493
sa(dp494
g6
F1.3839379999999999
sg7
S'6172'
p495
sg9
S'2.jpg.bin'
p496
sa(dp497
g6
F1.3331360000000001
sg7
S'1227'
p498
sg9
S'4.jpg.bin'
p499
sa(dp500
g6
F1.3216319999999999
sg7
S'5236'
p501
sg9
S'3.jpg.bin'
p502
sa(dp503
g6
F1.260697
sg7
S'3427'
p504
sg9
S'0_noplate.jpg.bin'
p505
sa(dp506
g6
F1.227676
sg7
S'8618'
p507
sg9
S'1_noplate.jpg.bin'
p508
sa(dp509
g6
F1.0958289999999999
sg7
S'2971'
p510
sg9
S'2_noplate.jpg.bin'
p511
sa(dp512
g6
F0.906227
sg7
S'7602'
p513
sg9
S'2.jpg.bin'
p514
sasg7
S'7'
sg9
S'1_noplate.jpg.bin'
p515
sa(dp516
g3
(lp517
(dp518
g6
F9.5993099999999991
sg7
S'81'
p519
sg9
S'1.jpg.bin'
p520
sa(dp521
g6
F6.9069599999999998
sg7
S'6752'
p522
sg9
S'2_noplate.jpg.bin'
p523
sa(dp524
g6
F6.380827
sg7
S'8648'
p525
sg9
S'5_noplate.jpg.bin'
p526
sa(dp527
g6
F6.172892
sg7
S'1024'
p528
sg9
S'2.jpg.bin'
p529
sa(dp530
g6
F6.06745
sg7
S'4458'
p531
sg9
S'6.jpg.bin'
p532
sa(dp533
g6
F5.3207230000000001
sg7
S'8060'
p534
sg9
S'8.jpg.bin'
p535
sa(dp536
g6
F5.3135779999999997
sg7
S'390'
p537
sg9
S'2.jpg.bin'
p538
sa(dp539
g6
F4.9832000000000001
sg7
S'7887'
p540
sg9
S'5.jpg.bin'
p541
sa(dp542
g6
F4.9485049999999999
sg7
S'5772'
p543
sg9
S'4.jpg.bin'
p544
sa(dp545
g6
F4.5287040000000003
sg7
S'8483'
p546
sg9
S'11_noplate.jpg.bin'
p547
sa(dp548
g6
F4.518974
sg7
S'2654'
p549
sg9
S'22_noplate.jpg.bin'
p550
sa(dp551
g6
F4.3837799999999998
sg7
S'4353'
p552
sg9
S'5_noplate.jpg.bin'
p553
sa(dp554
g6
F4.2786790000000003
sg7
S'1647'
p555
sg9
S'0_noplate.jpg.bin'
p556
sa(dp557
g6
F4.2574009999999998
sg7
S'7797'
p558
sg9
S'3_noplate.jpg.bin'
p559
sa(dp560
g6
F4.0511379999999999
sg7
S'2606'
p561
sg9
S'5_noplate.jpg.bin'
p562
sa(dp563
g6
F4.039898
sg7
S'8653'
p564
sg9
S'3_noplate.jpg.bin'
p565
sa(dp566
g6
F4.0254989999999999
sg7
S'7613'
p567
sg9
S'2_noplate.jpg.bin'
p568
sa(dp569
g6
F3.9377
sg7
S'6287'
p570
sg9
S'3_noplate.jpg.bin'
p571
sa(dp572
g6
F3.8524880000000001
sg7
S'9388'
p573
sg9
S'2.jpg.bin'
p574
sa(dp575
g6
F3.840319
sg7
S'5026'
p576
sg9
S'0_noplate.jpg.bin'
p577
sasg7
S'81'
p578
sg9
S'2_noplate.jpg.bin'
p579
sa(dp580
g3
(lp581
(dp582
g6
F9.5479789999999998
sg7
S'3427'
p583
sg9
S'0_noplate.jpg.bin'
p584
sa(dp585
g6
F5.8810079999999996
sg7
S'7490'
p586
sg9
S'4_noplate.jpg.bin'
p587
sa(dp588
g6
F4.6472930000000003
sg7
S'7935'
p589
sg9
S'4_noplate.jpg.bin'
p590
sa(dp591
g6
F4.5791909999999998
sg7
S'9167'
p592
sg9
S'3.jpg.bin'
p593
sa(dp594
g6
F4.3606819999999997
sg7
S'6220'
p595
sg9
S'6.jpg.bin'
p596
sa(dp597
g6
F3.8195860000000001
sg7
S'1289'
p598
sg9
S'4_noplate.jpg.bin'
p599
sa(dp600
g6
F3.5063399999999998
sg7
S'139'
p601
sg9
S'1_noplate.jpg.bin'
p602
sa(dp603
g6
F3.1252610000000001
sg7
S'8417'
p604
sg9
S'1_noplate.jpg.bin'
p605
sa(dp606
g6
F2.8136459999999999
sg7
S'5674'
p607
sg9
S'3_noplate.jpg.bin'
p608
sa(dp609
g6
F2.635767
sg7
S'1633'
p610
sg9
S'3_noplate.jpg.bin'
p611
sa(dp612
g6
F2.3788870000000002
sg7
S'4527'
p613
sg9
S'3.jpg.bin'
p614
sa(dp615
g6
F2.2897050000000001
sg7
S'1092'
p616
sg9
S'1_noplate.jpg.bin'
p617
sa(dp618
g6
F2.2833830000000002
sg7
S'4591'
p619
sg9
S'0.jpg.bin'
p620
sa(dp621
g6
F2.2214640000000001
sg7
S'7706'
p622
sg9
S'3_noplate.jpg.bin'
p623
sa(dp624
g6
F2.171049
sg7
S'2149'
p625
sg9
S'0.jpg.bin'
p626
sa(dp627
g6
F2.0786859999999998
sg7
S'6867'
p628
sg9
S'4.jpg.bin'
p629
sa(dp630
g6
F2.0621849999999999
sg7
S'779'
p631
sg9
S'4_noplate.jpg.bin'
p632
sa(dp633
g6
F2.0281829999999998
sg7
S'9446'
p634
sg9
S'0_noplate.jpg.bin'
p635
sa(dp636
g6
F1.9774970000000001
sg7
S'62'
p637
sg9
S'3_noplate.jpg.bin'
p638
sa(dp639
g6
F1.9421839999999999
sg7
S'883'
p640
sg9
S'4_noplate.jpg.bin'
p641
sasg7
S'62'
p642
sg9
S'1_noplate.jpg.bin'
p643
sa(dp644
g3
(lp645
(dp646
g6
F12.631788
sg7
S'2215'
p647
sg9
S'4.jpg.bin'
p648
sa(dp649
g6
F12.439970000000001
sg7
S'77'
p650
sg9
S'1_noplate.jpg.bin'
p651
sa(dp652
g6
F11.026707
sg7
S'9553'
p653
sg9
S'2_noplate.jpg.bin'
p654
sa(dp655
g6
F11.006971
sg7
S'4286'
p656
sg9
S'1_noplate.jpg.bin'
p657
sa(dp658
g6
F10.979246
sg7
S'6300'
p659
sg9
S'3_noplate.jpg.bin'
p660
sa(dp661
g6
F10.806357999999999
sg7
S'9379'
p662
sg9
S'1.jpg.bin'
p663
sa(dp664
g6
F10.774523
sg7
S'1116'
p665
sg9
S'2_noplate.jpg.bin'
p666
sa(dp667
g6
F10.612181
sg7
S'3108'
p668
sg9
S'3.jpg.bin'
p669
sa(dp670
g6
F10.558748
sg7
S'7366'
p671
sg9
S'3_noplate.jpg.bin'
p672
sa(dp673
g6
F10.267866
sg7
S'4655'
p674
sg9
S'0.jpg.bin'
p675
sa(dp676
g6
F10.191217
sg7
S'6317'
p677
sg9
S'7.jpg.bin'
p678
sa(dp679
g6
F10.016462000000001
sg7
S'7255'
p680
sg9
S'1_noplate.jpg.bin'
p681
sa(dp682
g6
F9.9988840000000003
sg7
S'4699'
p683
sg9
S'3_noplate.jpg.bin'
p684
sa(dp685
g6
F9.855772
sg7
S'7336'
p686
sg9
S'2.jpg.bin'
p687
sa(dp688
g6
F9.8415850000000002
sg7
S'156'
p689
sg9
S'3.jpg.bin'
p690
sa(dp691
g6
F9.8094979999999996
sg7
S'2918'
p692
sg9
S'1.jpg.bin'
p693
sa(dp694
g6
F9.7688670000000002
sg7
S'8953'
p695
sg9
S'0.jpg.bin'
p696
sa(dp697
g6
F9.6830219999999994
sg7
S'8407'
p698
sg9
S'1_noplate.jpg.bin'
p699
sa(dp700
g6
F9.5680580000000006
sg7
S'8033'
p701
sg9
S'1_noplate.jpg.bin'
p702
sa(dp703
g6
F9.3359240000000003
sg7
S'8503'
p704
sg9
S'2_noplate.jpg.bin'
p705
sasg7
S'77'
p706
sg9
S'6.jpg.bin'
p707
sa(dp708
g3
(lp709
(dp710
g6
F7.9896190000000002
sg7
S'2'
sg9
S'4.jpg.bin'
p711
sa(dp712
g6
F5.5294340000000002
sg7
S'743'
p713
sg9
S'0_noplate.jpg.bin'
p714
sa(dp715
g6
F5.0658000000000003
sg7
S'3938'
p716
sg9
S'1.jpg.bin'
p717
sa(dp718
g6
F4.5517880000000002
sg7
S'7454'
p719
sg9
S'5_noplate.jpg.bin'
p720
sa(dp721
g6
F4.0128069999999996
sg7
S'4642'
p722
sg9
S'11.jpg.bin'
p723
sa(dp724
g6
F3.4407220000000001
sg7
S'4146'
p725
sg9
S'1_noplate.jpg.bin'
p726
sa(dp727
g6
F3.3614790000000001
sg7
S'4577'
p728
sg9
S'1.jpg.bin'
p729
sa(dp730
g6
F2.7642120000000001
sg7
S'4837'
p731
sg9
S'3_noplate.jpg.bin'
p732
sa(dp733
g6
F2.5266440000000001
sg7
S'1027'
p734
sg9
S'2_noplate.jpg.bin'
p735
sa(dp736
g6
F2.3114720000000002
sg7
S'4175'
p737
sg9
S'3.jpg.bin'
p738
sa(dp739
g6
F2.1650870000000002
sg7
S'5575'
p740
sg9
S'8.jpg.bin'
p741
sa(dp742
g6
F2.081318
sg7
S'4494'
p743
sg9
S'4.jpg.bin'
p744
sa(dp745
g6
F2.0079199999999999
sg7
S'7864'
p746
sg9
S'2_noplate.jpg.bin'
p747
sa(dp748
g6
F1.9526840000000001
sg7
S'6859'
p749
sg9
S'1.jpg.bin'
p750
sa(dp751
g6
F1.900641
sg7
S'4320'
p752
sg9
S'1_noplate.jpg.bin'
p753
sa(dp754
g6
F1.4883649999999999
sg7
S'5118'
p755
sg9
S'0_noplate.jpg.bin'
p756
sa(dp757
g6
F1.4414899999999999
sg7
S'4702'
p758
sg9
S'2.jpg.bin'
p759
sa(dp760
g6
F1.402944
sg7
S'2063'
p761
sg9
S'9_noplate.jpg.bin'
p762
sa(dp763
g6
F1.3719969999999999
sg7
S'6130'
p764
sg9
S'3.jpg.bin'
p765
sa(dp766
g6
F1.370174
sg7
S'3131'
p767
sg9
S'8_noplate.jpg.bin'
p768
sasg7
S'2'
sg9
S'0_noplate.jpg.bin'
p769
sa(dp770
g3
(lp771
(dp772
g6
F10.228178
sg7
S'6057'
p773
sg9
S'3.jpg.bin'
p774
sa(dp775
g6
F9.8298000000000005
sg7
S'1493'
p776
sg9
S'2_noplate.jpg.bin'
p777
sa(dp778
g6
F9.437519
sg7
S'7321'
p779
sg9
S'3.jpg.bin'
p780
sa(dp781
g6
F8.7521059999999995
sg7
S'8796'
p782
sg9
S'1_noplate.jpg.bin'
p783
sa(dp784
g6
F8.5721629999999998
sg7
S'4362'
p785
sg9
S'8_noplate.jpg.bin'
p786
sa(dp787
g6
F8.2290519999999994
sg7
S'53'
p788
sg9
S'4.jpg.bin'
p789
sa(dp790
g6
F7.9556339999999999
sg7
S'2629'
p791
sg9
S'2.jpg.bin'
p792
sa(dp793
g6
F7.9119330000000003
sg7
S'5098'
p794
sg9
S'4.jpg.bin'
p795
sa(dp796
g6
F7.8882120000000002
sg7
S'8739'
p797
sg9
S'3.jpg.bin'
p798
sa(dp799
g6
F7.7680709999999999
sg7
S'3468'
p800
sg9
S'16.jpg.bin'
p801
sa(dp802
g6
F7.5518580000000002
sg7
S'4920'
p803
sg9
S'3_noplate.jpg.bin'
p804
sa(dp805
g6
F7.5413119999999996
sg7
S'96'
p806
sg9
S'1.jpg.bin'
p807
sa(dp808
g6
F6.8005630000000004
sg7
S'4407'
p809
sg9
S'5_noplate.jpg.bin'
p810
sa(dp811
g6
F6.7087849999999998
sg7
S'5882'
p812
sg9
S'8_noplate.jpg.bin'
p813
sa(dp814
g6
F6.6716129999999998
sg7
S'4648'
p815
sg9
S'3.jpg.bin'
p816
sa(dp817
g6
F6.5623560000000003
sg7
S'8137'
p818
sg9
S'3_noplate.jpg.bin'
p819
sa(dp820
g6
F6.4659760000000004
sg7
S'9884'
p821
sg9
S'1.jpg.bin'
p822
sa(dp823
g6
F6.3464790000000004
sg7
S'109'
p824
sg9
S'4_noplate.jpg.bin'
p825
sa(dp826
g6
F6.3118980000000002
sg7
S'1377'
p827
sg9
S'4.jpg.bin'
p828
sa(dp829
g6
F6.212402
sg7
S'17'
p830
sg9
S'2_noplate.jpg.bin'
p831
sasg7
S'53'
p832
sg9
S'0_noplate.jpg.bin'
p833
sa(dp834
g3
(lp835
(dp836
g6
F7.8403720000000003
sg7
S'79'
p837
sg9
S'3_noplate.jpg.bin'
p838
sa(dp839
g6
F4.9675050000000001
sg7
S'2273'
p840
sg9
S'3.jpg.bin'
p841
sa(dp842
g6
F4.7399750000000003
sg7
S'1830'
p843
sg9
S'8.jpg.bin'
p844
sa(dp845
g6
F3.7885629999999999
sg7
S'5495'
p846
sg9
S'5.jpg.bin'
p847
sa(dp848
g6
F3.7459319999999998
sg7
S'6640'
p849
sg9
S'5.jpg.bin'
p850
sa(dp851
g6
F3.4987529999999998
sg7
S'8595'
p852
sg9
S'4.jpg.bin'
p853
sa(dp854
g6
F3.4423680000000001
sg7
S'253'
p855
sg9
S'1.jpg.bin'
p856
sa(dp857
g6
F3.4081290000000002
sg7
S'9293'
p858
sg9
S'3_noplate.jpg.bin'
p859
sa(dp860
g6
F3.3907509999999998
sg7
S'9191'
p861
sg9
S'1_noplate.jpg.bin'
p862
sa(dp863
g6
F3.0989339999999999
sg7
S'7563'
p864
sg9
S'2_noplate.jpg.bin'
p865
sa(dp866
g6
F2.5369630000000001
sg7
S'4816'
p867
sg9
S'1.jpg.bin'
p868
sa(dp869
g6
F2.4209160000000001
sg7
S'211'
p870
sg9
S'10.jpg.bin'
p871
sa(dp872
g6
F2.3313730000000001
sg7
S'310'
p873
sg9
S'7_noplate.jpg.bin'
p874
sa(dp875
g6
F2.2933029999999999
sg7
S'1616'
p876
sg9
S'6.jpg.bin'
p877
sa(dp878
g6
F2.2823470000000001
sg7
S'4131'
p879
sg9
S'1_noplate.jpg.bin'
p880
sa(dp881
g6
F1.946955
sg7
S'3403'
p882
sg9
S'0_noplate.jpg.bin'
p883
sa(dp884
g6
F1.842279
sg7
S'1130'
p885
sg9
S'7_noplate.jpg.bin'
p886
sa(dp887
g6
F1.7143969999999999
sg7
S'964'
p888
sg9
S'0.jpg.bin'
p889
sa(dp890
g6
F1.3876740000000001
sg7
S'3148'
p891
sg9
S'1.jpg.bin'
p892
sa(dp893
g6
F1.3859669999999999
sg7
S'6725'
p894
sg9
S'1.jpg.bin'
p895
sasg7
S'79'
p896
sg9
S'6_noplate.jpg.bin'
p897
sa(dp898
g3
(lp899
(dp900
g6
F9.0328479999999995
sg7
S'5426'
p901
sg9
S'4.jpg.bin'
p902
sa(dp903
g6
F8.7789269999999995
sg7
S'8469'
p904
sg9
S'3.jpg.bin'
p905
sa(dp906
g6
F8.3871780000000005
sg7
S'507'
p907
sg9
S'6.jpg.bin'
p908
sa(dp909
g6
F8.1597349999999995
sg7
S'3294'
p910
sg9
S'6_noplate.jpg.bin'
p911
sa(dp912
g6
F7.9670709999999998
sg7
S'88'
p913
sg9
S'0_noplate.jpg.bin'
p914
sa(dp915
g6
F6.2944100000000001
sg7
S'7346'
p916
sg9
S'1_noplate.jpg.bin'
p917
sa(dp918
g6
F4.8282489999999996
sg7
S'3222'
p919
sg9
S'1.jpg.bin'
p920
sa(dp921
g6
F4.7478429999999996
sg7
S'4479'
p922
sg9
S'1.jpg.bin'
p923
sa(dp924
g6
F4.169632
sg7
S'8321'
p925
sg9
S'1.jpg.bin'
p926
sa(dp927
g6
F3.7622870000000002
sg7
S'9016'
p928
sg9
S'1_noplate.jpg.bin'
p929
sa(dp930
g6
F3.7481610000000001
sg7
S'7427'
p931
sg9
S'1.jpg.bin'
p932
sa(dp933
g6
F3.6324390000000002
sg7
S'7320'
p934
sg9
S'3_noplate.jpg.bin'
p935
sa(dp936
g6
F3.6255109999999999
sg7
S'8534'
p937
sg9
S'8_noplate.jpg.bin'
p938
sa(dp939
g6
F3.5311970000000001
sg7
S'9380'
p940
sg9
S'0_noplate.jpg.bin'
p941
sa(dp942
g6
F3.3173499999999998
sg7
S'5194'
p943
sg9
S'3.jpg.bin'
p944
sa(dp945
g6
F3.1201949999999998
sg7
S'220'
p946
sg9
S'3_noplate.jpg.bin'
p947
sa(dp948
g6
F3.1186539999999998
sg7
S'9955'
p949
sg9
S'4_noplate.jpg.bin'
p950
sa(dp951
g6
F2.9956649999999998
sg7
S'7219'
p952
sg9
S'0.jpg.bin'
p953
sa(dp954
g6
F2.6187670000000001
sg7
S'6795'
p955
sg9
S'1_noplate.jpg.bin'
p956
sa(dp957
g6
F2.5698379999999998
sg7
S'7469'
p958
sg9
S'0_noplate.jpg.bin'
p959
sasg7
S'88'
p960
sg9
S'3.jpg.bin'
p961
sa(dp962
g3
(lp963
(dp964
g6
F9.6682489999999994
sg7
S'3968'
p965
sg9
S'0.jpg.bin'
p966
sa(dp967
g6
F8.4122789999999998
sg7
S'669'
p968
sg9
S'1.jpg.bin'
p969
sa(dp970
g6
F7.5204310000000003
sg7
S'5747'
p971
sg9
S'3_noplate.jpg.bin'
p972
sa(dp973
g6
F7.0271629999999998
sg7
S'9936'
p974
sg9
S'5.jpg.bin'
p975
sa(dp976
g6
F6.9654850000000001
sg7
S'4328'
p977
sg9
S'5.jpg.bin'
p978
sa(dp979
g6
F6.9539239999999998
sg7
S'8979'
p980
sg9
S'4_noplate.jpg.bin'
p981
sa(dp982
g6
F6.8302849999999999
sg7
S'4749'
p983
sg9
S'4_noplate.jpg.bin'
p984
sa(dp985
g6
F6.6782389999999996
sg7
S'9188'
p986
sg9
S'1.jpg.bin'
p987
sa(dp988
g6
F6.4288749999999997
sg7
S'7907'
p989
sg9
S'2.jpg.bin'
p990
sa(dp991
g6
F6.3051750000000002
sg7
S'1643'
p992
sg9
S'0_noplate.jpg.bin'
p993
sa(dp994
g6
F6.1833489999999998
sg7
S'6327'
p995
sg9
S'5_noplate.jpg.bin'
p996
sa(dp997
g6
F6.0011770000000002
sg7
S'4696'
p998
sg9
S'2.jpg.bin'
p999
sa(dp1000
g6
F5.7060969999999998
sg7
S'5205'
p1001
sg9
S'4_noplate.jpg.bin'
p1002
sa(dp1003
g6
F5.7007079999999997
sg7
S'3192'
p1004
sg9
S'4.jpg.bin'
p1005
sa(dp1006
g6
F5.6373230000000003
sg7
S'9440'
p1007
sg9
S'1.jpg.bin'
p1008
sa(dp1009
g6
F5.4747789999999998
sg7
S'6433'
p1010
sg9
S'1.jpg.bin'
p1011
sa(dp1012
g6
F5.3288859999999998
sg7
S'1623'
p1013
sg9
S'1_noplate.jpg.bin'
p1014
sa(dp1015
g6
F5.1752760000000002
sg7
S'366'
p1016
sg9
S'0.jpg.bin'
p1017
sa(dp1018
g6
F5.1094860000000004
sg7
S'612'
p1019
sg9
S'0_noplate.jpg.bin'
p1020
sa(dp1021
g6
F5.0576249999999998
sg7
S'1957'
p1022
sg9
S'3.jpg.bin'
p1023
sasg7
S'91'
p1024
sg9
S'0_noplate.jpg.bin'
p1025
sa(dp1026
g3
(lp1027
(dp1028
g6
F10.532619
sg7
S'0'
sg9
S'4.jpg.bin'
p1029
sa(dp1030
g6
F6.7303949999999997
sg7
S'434'
p1031
sg9
S'1.jpg.bin'
p1032
sa(dp1033
g6
F6.4079269999999999
sg7
S'3586'
p1034
sg9
S'0.jpg.bin'
p1035
sa(dp1036
g6
F5.6471140000000002
sg7
S'7726'
p1037
sg9
S'1.jpg.bin'
p1038
sa(dp1039
g6
F4.4027539999999998
sg7
S'248'
p1040
sg9
S'0.jpg.bin'
p1041
sa(dp1042
g6
F4.2037940000000003
sg7
S'6055'
p1043
sg9
S'0.jpg.bin'
p1044
sa(dp1045
g6
F3.994939
sg7
S'8422'
p1046
sg9
S'1_noplate.jpg.bin'
p1047
sa(dp1048
g6
F3.5846580000000001
sg7
S'1712'
p1049
sg9
S'4.jpg.bin'
p1050
sa(dp1051
g6
F3.3399329999999998
sg7
S'5162'
p1052
sg9
S'0.jpg.bin'
p1053
sa(dp1054
g6
F3.2676470000000002
sg7
S'744'
p1055
sg9
S'1.jpg.bin'
p1056
sa(dp1057
g6
F3.2188699999999999
sg7
S'3059'
p1058
sg9
S'0_noplate.jpg.bin'
p1059
sa(dp1060
g6
F2.4514140000000002
sg7
S'1639'
p1061
sg9
S'4.jpg.bin'
p1062
sa(dp1063
g6
F2.4208129999999999
sg7
S'4811'
p1064
sg9
S'8_noplate.jpg.bin'
p1065
sa(dp1066
g6
F2.4092250000000002
sg7
S'4499'
p1067
sg9
S'1_noplate.jpg.bin'
p1068
sa(dp1069
g6
F2.1257459999999999
sg7
S'2932'
p1070
sg9
S'4.jpg.bin'
p1071
sa(dp1072
g6
F2.0899640000000002
sg7
S'4020'
p1073
sg9
S'7.jpg.bin'
p1074
sa(dp1075
g6
F1.9815430000000001
sg7
S'8305'
p1076
sg9
S'1_noplate.jpg.bin'
p1077
sa(dp1078
g6
F1.976254
sg7
S'9170'
p1079
sg9
S'2.jpg.bin'
p1080
sa(dp1081
g6
F1.888012
sg7
S'5716'
p1082
sg9
S'4.jpg.bin'
p1083
sa(dp1084
g6
F1.866276
sg7
S'9698'
p1085
sg9
S'3.jpg.bin'
p1086
sasg7
S'0'
sg9
S'0_noplate.jpg.bin'
p1087
sa(dp1088
g3
(lp1089
(dp1090
g6
F5.0262849999999997
sg7
S'1457'
p1091
sg9
S'0_noplate.jpg.bin'
p1092
sa(dp1093
g6
F4.9556199999999997
sg7
S'16'
p1094
sg9
S'3.jpg.bin'
p1095
sa(dp1096
g6
F3.6043949999999998
sg7
S'7512'
p1097
sg9
S'4.jpg.bin'
p1098
sa(dp1099
g6
F3.1702650000000001
sg7
S'8334'
p1100
sg9
S'5.jpg.bin'
p1101
sa(dp1102
g6
F2.712872
sg7
S'2263'
p1103
sg9
S'4.jpg.bin'
p1104
sa(dp1105
g6
F2.1378309999999998
sg7
S'7942'
p1106
sg9
S'4.jpg.bin'
p1107
sa(dp1108
g6
F2.090239
sg7
S'9166'
p1109
sg9
S'1.jpg.bin'
p1110
sa(dp1111
g6
F2.023949
sg7
S'7175'
p1112
sg9
S'4.jpg.bin'
p1113
sa(dp1114
g6
F1.835785
sg7
S'5431'
p1115
sg9
S'3.jpg.bin'
p1116
sa(dp1117
g6
F1.8262350000000001
sg7
S'9248'
p1118
sg9
S'4.jpg.bin'
p1119
sa(dp1120
g6
F1.7217519999999999
sg7
S'5461'
p1121
sg9
S'0_noplate.jpg.bin'
p1122
sa(dp1123
g6
F1.5867059999999999
sg7
S'6436'
p1124
sg9
S'3_noplate.jpg.bin'
p1125
sa(dp1126
g6
F1.5164869999999999
sg7
S'952'
p1127
sg9
S'3.jpg.bin'
p1128
sa(dp1129
g6
F1.3163450000000001
sg7
S'2329'
p1130
sg9
S'3.jpg.bin'
p1131
sa(dp1132
g6
F1.297215
sg7
S'9217'
p1133
sg9
S'2_noplate.jpg.bin'
p1134
sa(dp1135
g6
F1.122601
sg7
S'3360'
p1136
sg9
S'0.jpg.bin'
p1137
sa(dp1138
g6
F1.089653
sg7
S'5683'
p1139
sg9
S'0_noplate.jpg.bin'
p1140
sa(dp1141
g6
F1.08633
sg7
S'8884'
p1142
sg9
S'2_noplate.jpg.bin'
p1143
sa(dp1144
g6
F1.052046
sg7
S'9902'
p1145
sg9
S'4_noplate.jpg.bin'
p1146
sa(dp1147
g6
F1.0428770000000001
sg7
S'9586'
p1148
sg9
S'2_noplate.jpg.bin'
p1149
sasg7
S'16'
p1150
sg9
S'1_noplate.jpg.bin'
p1151
sa(dp1152
g3
(lp1153
(dp1154
g6
F6.365024
sg7
S'1337'
p1155
sg9
S'3_noplate.jpg.bin'
p1156
sa(dp1157
g6
F6.0117050000000001
sg7
S'34'
p1158
sg9
S'2_noplate.jpg.bin'
p1159
sa(dp1160
g6
F5.9976070000000004
sg7
S'9459'
p1161
sg9
S'4.jpg.bin'
p1162
sa(dp1163
g6
F5.5647650000000004
sg7
S'6576'
p1164
sg9
S'2_noplate.jpg.bin'
p1165
sa(dp1166
g6
F5.5171210000000004
sg7
S'6928'
p1167
sg9
S'5_noplate.jpg.bin'
p1168
sa(dp1169
g6
F5.1960769999999998
sg7
S'6524'
p1170
sg9
S'2.jpg.bin'
p1171
sa(dp1172
g6
F5.0348980000000001
sg7
S'3093'
p1173
sg9
S'3_noplate.jpg.bin'
p1174
sa(dp1175
g6
F4.8268380000000004
sg7
S'3562'
p1176
sg9
S'2.jpg.bin'
p1177
sa(dp1178
g6
F4.7641530000000003
sg7
S'7184'
p1179
sg9
S'4.jpg.bin'
p1180
sa(dp1181
g6
F4.6402789999999996
sg7
S'1666'
p1182
sg9
S'0_noplate.jpg.bin'
p1183
sa(dp1184
g6
F4.2598969999999996
sg7
S'358'
p1185
sg9
S'6.jpg.bin'
p1186
sa(dp1187
g6
F4.2479279999999999
sg7
S'2882'
p1188
sg9
S'3_noplate.jpg.bin'
p1189
sa(dp1190
g6
F4.1613030000000002
sg7
S'9202'
p1191
sg9
S'1_noplate.jpg.bin'
p1192
sa(dp1193
g6
F4.1302810000000001
sg7
S'5605'
p1194
sg9
S'4_noplate.jpg.bin'
p1195
sa(dp1196
g6
F4.0443930000000003
sg7
S'1866'
p1197
sg9
S'2.jpg.bin'
p1198
sa(dp1199
g6
F3.9308990000000001
sg7
S'3421'
p1200
sg9
S'0_noplate.jpg.bin'
p1201
sa(dp1202
g6
F3.8711579999999999
sg7
S'2910'
p1203
sg9
S'2_noplate.jpg.bin'
p1204
sa(dp1205
g6
F3.868906
sg7
S'8227'
p1206
sg9
S'3.jpg.bin'
p1207
sa(dp1208
g6
F3.8294579999999998
sg7
S'7195'
p1209
sg9
S'4.jpg.bin'
p1210
sa(dp1211
g6
F3.7487819999999998
sg7
S'5832'
p1212
sg9
S'4.jpg.bin'
p1213
sasg7
S'34'
p1214
sg9
S'5.jpg.bin'
p1215
sa(dp1216
g3
(lp1217
(dp1218
g6
F11.398097999999999
sg7
S'5938'
p1219
sg9
S'1_noplate.jpg.bin'
p1220
sa(dp1221
g6
F9.7949099999999998
sg7
S'3667'
p1222
sg9
S'4_noplate.jpg.bin'
p1223
sa(dp1224
g6
F9.7096
sg7
S'1924'
p1225
sg9
S'0_noplate.jpg.bin'
p1226
sa(dp1227
g6
F9.7036510000000007
sg7
S'5134'
p1228
sg9
S'3_noplate.jpg.bin'
p1229
sa(dp1230
g6
F9.5711650000000006
sg7
S'6980'
p1231
sg9
S'3_noplate.jpg.bin'
p1232
sa(dp1233
g6
F9.5607109999999995
sg7
S'9614'
p1234
sg9
S'3.jpg.bin'
p1235
sa(dp1236
g6
F9.5247729999999997
sg7
S'9684'
p1237
sg9
S'1_noplate.jpg.bin'
p1238
sa(dp1239
g6
F9.2949710000000003
sg7
S'3257'
p1240
sg9
S'4.jpg.bin'
p1241
sa(dp1242
g6
F9.2789459999999995
sg7
S'2349'
p1243
sg9
S'0_noplate.jpg.bin'
p1244
sa(dp1245
g6
F9.254156
sg7
S'9540'
p1246
sg9
S'4.jpg.bin'
p1247
sa(dp1248
g6
F9.1482869999999998
sg7
S'6727'
p1249
sg9
S'4_noplate.jpg.bin'
p1250
sa(dp1251
g6
F9.0762750000000008
sg7
S'1383'
p1252
sg9
S'3.jpg.bin'
p1253
sa(dp1254
g6
F8.8605330000000002
sg7
S'8478'
p1255
sg9
S'3.jpg.bin'
p1256
sa(dp1257
g6
F8.8220120000000009
sg7
S'7315'
p1258
sg9
S'1_noplate.jpg.bin'
p1259
sa(dp1260
g6
F8.7941590000000005
sg7
S'1118'
p1261
sg9
S'3.jpg.bin'
p1262
sa(dp1263
g6
F8.7775189999999998
sg7
S'2636'
p1264
sg9
S'7_noplate.jpg.bin'
p1265
sa(dp1266
g6
F8.4279209999999996
sg7
S'8664'
p1267
sg9
S'1_noplate.jpg.bin'
p1268
sa(dp1269
g6
F8.4170110000000005
sg7
S'3201'
p1270
sg9
S'3_noplate.jpg.bin'
p1271
sa(dp1272
g6
F8.325844
sg7
S'8768'
p1273
sg9
S'1.jpg.bin'
p1274
sa(dp1275
g6
F8.2140690000000003
sg7
S'5643'
p1276
sg9
S'2_noplate.jpg.bin'
p1277
sasg7
S'46'
p1278
sg9
S'0.jpg.bin'
p1279
sa(dp1280
g3
(lp1281
(dp1282
g6
F10.401517999999999
sg7
S'45'
p1283
sg9
S'1_noplate.jpg.bin'
p1284
sa(dp1285
g6
F5.8366069999999999
sg7
S'7923'
p1286
sg9
S'7_noplate.jpg.bin'
p1287
sa(dp1288
g6
F3.6512579999999999
sg7
S'3208'
p1289
sg9
S'4.jpg.bin'
p1290
sa(dp1291
g6
F3.331102
sg7
S'214'
p1292
sg9
S'3.jpg.bin'
p1293
sa(dp1294
g6
F3.2840910000000001
sg7
S'4461'
p1295
sg9
S'2.jpg.bin'
p1296
sa(dp1297
g6
F3.0870920000000002
sg7
S'749'
p1298
sg9
S'5.jpg.bin'
p1299
sa(dp1300
g6
F2.9029219999999998
sg7
S'4199'
p1301
sg9
S'2_noplate.jpg.bin'
p1302
sa(dp1303
g6
F2.4799479999999998
sg7
S'2883'
p1304
sg9
S'1_noplate.jpg.bin'
p1305
sa(dp1306
g6
F2.4401679999999999
sg7
S'4734'
p1307
sg9
S'1.jpg.bin'
p1308
sa(dp1309
g6
F2.3995220000000002
sg7
S'9486'
p1310
sg9
S'5.jpg.bin'
p1311
sa(dp1312
g6
F2.0473710000000001
sg7
S'6554'
p1313
sg9
S'1_noplate.jpg.bin'
p1314
sa(dp1315
g6
F2.0455320000000001
sg7
S'5632'
p1316
sg9
S'8_noplate.jpg.bin'
p1317
sa(dp1318
g6
F1.990221
sg7
S'1597'
p1319
sg9
S'3_noplate.jpg.bin'
p1320
sa(dp1321
g6
F1.697994
sg7
S'870'
p1322
sg9
S'2_noplate.jpg.bin'
p1323
sa(dp1324
g6
F1.68889
sg7
S'8858'
p1325
sg9
S'3.jpg.bin'
p1326
sa(dp1327
g6
F1.2878719999999999
sg7
S'3590'
p1328
sg9
S'6_noplate.jpg.bin'
p1329
sa(dp1330
g6
F1.230494
sg7
S'3267'
p1331
sg9
S'2.jpg.bin'
p1332
sa(dp1333
g6
F1.2079470000000001
sg7
S'1714'
p1334
sg9
S'0.jpg.bin'
p1335
sa(dp1336
g6
F1.1567270000000001
sg7
S'6845'
p1337
sg9
S'2.jpg.bin'
p1338
sa(dp1339
g6
F1.0101260000000001
sg7
S'1489'
p1340
sg9
S'1.jpg.bin'
p1341
sasg7
S'45'
p1342
sg9
S'0_noplate.jpg.bin'
p1343
sa(dp1344
g3
(lp1345
(dp1346
g6
F8.739706
sg7
S'36'
p1347
sg9
S'7.jpg.bin'
p1348
sa(dp1349
g6
F5.1881380000000004
sg7
S'936'
p1350
sg9
S'5.jpg.bin'
p1351
sa(dp1352
g6
F4.9433160000000003
sg7
S'3349'
p1353
sg9
S'1.jpg.bin'
p1354
sa(dp1355
g6
F4.8009659999999998
sg7
S'1989'
p1356
sg9
S'3.jpg.bin'
p1357
sa(dp1358
g6
F4.5133989999999997
sg7
S'8177'
p1359
sg9
S'2_noplate.jpg.bin'
p1360
sa(dp1361
g6
F4.3693200000000001
sg7
S'2731'
p1362
sg9
S'0.jpg.bin'
p1363
sa(dp1364
g6
F4.2013870000000004
sg7
S'9770'
p1365
sg9
S'0.jpg.bin'
p1366
sa(dp1367
g6
F4.1052590000000002
sg7
S'9596'
p1368
sg9
S'4.jpg.bin'
p1369
sa(dp1370
g6
F3.731725
sg7
S'8797'
p1371
sg9
S'7_noplate.jpg.bin'
p1372
sa(dp1373
g6
F3.7228680000000001
sg7
S'8921'
p1374
sg9
S'2_noplate.jpg.bin'
p1375
sa(dp1376
g6
F3.2581579999999999
sg7
S'8770'
p1377
sg9
S'2_noplate.jpg.bin'
p1378
sa(dp1379
g6
F3.256758
sg7
S'2040'
p1380
sg9
S'5_noplate.jpg.bin'
p1381
sa(dp1382
g6
F2.9961509999999998
sg7
S'8446'
p1383
sg9
S'0_noplate.jpg.bin'
p1384
sa(dp1385
g6
F2.8751989999999998
sg7
S'6357'
p1386
sg9
S'2.jpg.bin'
p1387
sa(dp1388
g6
F2.7278389999999999
sg7
S'9957'
p1389
sg9
S'5.jpg.bin'
p1390
sa(dp1391
g6
F2.6219060000000001
sg7
S'9774'
p1392
sg9
S'0.jpg.bin'
p1393
sa(dp1394
g6
F2.6170019999999998
sg7
S'1443'
p1395
sg9
S'0_noplate.jpg.bin'
p1396
sa(dp1397
g6
F2.602055
sg7
S'5775'
p1398
sg9
S'1.jpg.bin'
p1399
sa(dp1400
g6
F2.5750289999999998
sg7
S'3773'
p1401
sg9
S'4_noplate.jpg.bin'
p1402
sa(dp1403
g6
F2.4911919999999999
sg7
S'4725'
p1404
sg9
S'4.jpg.bin'
p1405
sasg7
S'36'
p1406
sg9
S'3.jpg.bin'
p1407
sa(dp1408
g3
(lp1409
(dp1410
g6
F10.821712
sg7
S'98'
p1411
sg9
S'2.jpg.bin'
p1412
sa(dp1413
g6
F10.477633000000001
sg7
S'8112'
p1414
sg9
S'1_noplate.jpg.bin'
p1415
sa(dp1416
g6
F10.412694999999999
sg7
S'6116'
p1417
sg9
S'0_noplate.jpg.bin'
p1418
sa(dp1419
g6
F9.9699709999999993
sg7
S'6632'
p1420
sg9
S'1_noplate.jpg.bin'
p1421
sa(dp1422
g6
F9.7281209999999998
sg7
S'1135'
p1423
sg9
S'4.jpg.bin'
p1424
sa(dp1425
g6
F9.6611519999999995
sg7
S'6571'
p1426
sg9
S'3_noplate.jpg.bin'
p1427
sa(dp1428
g6
F8.7157610000000005
sg7
S'6165'
p1429
sg9
S'8_noplate.jpg.bin'
p1430
sa(dp1431
g6
F8.6516570000000002
sg7
S'8183'
p1432
sg9
S'2.jpg.bin'
p1433
sa(dp1434
g6
F8.1796609999999994
sg7
S'3967'
p1435
sg9
S'0.jpg.bin'
p1436
sa(dp1437
g6
F8.0645260000000007
sg7
S'7634'
p1438
sg9
S'9.jpg.bin'
p1439
sa(dp1440
g6
F8.0188620000000004
sg7
S'3869'
p1441
sg9
S'4_noplate.jpg.bin'
p1442
sa(dp1443
g6
F7.8059580000000004
sg7
S'9343'
p1444
sg9
S'15.jpg.bin'
p1445
sa(dp1446
g6
F7.7583500000000001
sg7
S'5471'
p1447
sg9
S'12.jpg.bin'
p1448
sa(dp1449
g6
F7.5944640000000003
sg7
S'7856'
p1450
sg9
S'5_noplate.jpg.bin'
p1451
sa(dp1452
g6
F7.2578310000000004
sg7
S'7629'
p1453
sg9
S'3_noplate.jpg.bin'
p1454
sa(dp1455
g6
F7.2320830000000003
sg7
S'6352'
p1456
sg9
S'12.jpg.bin'
p1457
sa(dp1458
g6
F7.0804989999999997
sg7
S'7762'
p1459
sg9
S'0_noplate.jpg.bin'
p1460
sa(dp1461
g6
F7.0689039999999999
sg7
S'8391'
p1462
sg9
S'8_noplate.jpg.bin'
p1463
sa(dp1464
g6
F6.9818860000000003
sg7
S'9041'
p1465
sg9
S'0.jpg.bin'
p1466
sa(dp1467
g6
F6.7604220000000002
sg7
S'4613'
p1468
sg9
S'4.jpg.bin'
p1469
sasg7
S'98'
p1470
sg9
S'3_noplate.jpg.bin'
p1471
sa(dp1472
g3
(lp1473
(dp1474
g6
F9.2710720000000002
sg7
S'48'
p1475
sg9
S'3.jpg.bin'
p1476
sa(dp1477
g6
F9.1728500000000004
sg7
S'8171'
p1478
sg9
S'0_noplate.jpg.bin'
p1479
sa(dp1480
g6
F9.0427440000000008
sg7
S'2418'
p1481
sg9
S'0.jpg.bin'
p1482
sa(dp1483
g6
F9.0188269999999999
sg7
S'8111'
p1484
sg9
S'4.jpg.bin'
p1485
sa(dp1486
g6
F8.318047
sg7
S'154'
p1487
sg9
S'3.jpg.bin'
p1488
sa(dp1489
g6
F7.8711900000000004
sg7
S'3460'
p1490
sg9
S'1.jpg.bin'
p1491
sa(dp1492
g6
F7.8421599999999998
sg7
S'3559'
p1493
sg9
S'2.jpg.bin'
p1494
sa(dp1495
g6
F7.6989729999999996
sg7
S'4608'
p1496
sg9
S'2.jpg.bin'
p1497
sa(dp1498
g6
F7.6821859999999997
sg7
S'8652'
p1499
sg9
S'5_noplate.jpg.bin'
p1500
sa(dp1501
g6
F7.2787870000000003
sg7
S'1017'
p1502
sg9
S'0.jpg.bin'
p1503
sa(dp1504
g6
F7.0724109999999998
sg7
S'756'
p1505
sg9
S'6.jpg.bin'
p1506
sa(dp1507
g6
F6.9031799999999999
sg7
S'8324'
p1508
sg9
S'3.jpg.bin'
p1509
sa(dp1510
g6
F6.6313610000000001
sg7
S'5'
sg9
S'10_noplate.jpg.bin'
p1511
sa(dp1512
g6
F6.4730740000000004
sg7
S'2914'
p1513
sg9
S'4.jpg.bin'
p1514
sa(dp1515
g6
F6.394336
sg7
S'7486'
p1516
sg9
S'7.jpg.bin'
p1517
sa(dp1518
g6
F6.388312
sg7
S'6716'
p1519
sg9
S'6.jpg.bin'
p1520
sa(dp1521
g6
F6.2622689999999999
sg7
S'2540'
p1522
sg9
S'9.jpg.bin'
p1523
sa(dp1524
g6
F6.1275529999999998
sg7
S'1434'
p1525
sg9
S'2.jpg.bin'
p1526
sa(dp1527
g6
F6.1224249999999998
sg7
S'5163'
p1528
sg9
S'5_noplate.jpg.bin'
p1529
sa(dp1530
g6
F6.0385220000000004
sg7
S'4500'
p1531
sg9
S'0.jpg.bin'
p1532
sasg7
S'48'
p1533
sg9
S'1_noplate.jpg.bin'
p1534
sa(dp1535
g3
(lp1536
(dp1537
g6
F19.203154000000001
sg7
S'20'
p1538
sg9
S'4.jpg.bin'
p1539
sa(dp1540
g6
F11.667109
sg7
S'2643'
p1541
sg9
S'5_noplate.jpg.bin'
p1542
sa(dp1543
g6
F10.510628000000001
sg7
S'2314'
p1544
sg9
S'2_noplate.jpg.bin'
p1545
sa(dp1546
g6
F9.7368790000000001
sg7
S'1491'
p1547
sg9
S'13_noplate.jpg.bin'
p1548
sa(dp1549
g6
F9.6263500000000004
sg7
S'7078'
p1550
sg9
S'3.jpg.bin'
p1551
sa(dp1552
g6
F8.2083490000000001
sg7
S'7051'
p1553
sg9
S'3_noplate.jpg.bin'
p1554
sa(dp1555
g6
F6.5686039999999997
sg7
S'4206'
p1556
sg9
S'4_noplate.jpg.bin'
p1557
sa(dp1558
g6
F5.5573670000000002
sg7
S'24'
p1559
sg9
S'4.jpg.bin'
p1560
sa(dp1561
g6
F5.4472620000000003
sg7
S'4743'
p1562
sg9
S'0_noplate.jpg.bin'
p1563
sa(dp1564
g6
F5.3664019999999999
sg7
S'2457'
p1565
sg9
S'8.jpg.bin'
p1566
sa(dp1567
g6
F5.0114590000000003
sg7
S'8316'
p1568
sg9
S'1.jpg.bin'
p1569
sa(dp1570
g6
F4.8503150000000002
sg7
S'9997'
p1571
sg9
S'1.jpg.bin'
p1572
sa(dp1573
g6
F4.8321589999999999
sg7
S'6041'
p1574
sg9
S'3_noplate.jpg.bin'
p1575
sa(dp1576
g6
F4.0984970000000001
sg7
S'1257'
p1577
sg9
S'0_noplate.jpg.bin'
p1578
sa(dp1579
g6
F4.0696370000000002
sg7
S'8010'
p1580
sg9
S'2.jpg.bin'
p1581
sa(dp1582
g6
F3.828684
sg7
S'3969'
p1583
sg9
S'3_noplate.jpg.bin'
p1584
sa(dp1585
g6
F3.7978900000000002
sg7
S'2594'
p1586
sg9
S'2_noplate.jpg.bin'
p1587
sa(dp1588
g6
F3.7433610000000002
sg7
S'7575'
p1589
sg9
S'8.jpg.bin'
p1590
sa(dp1591
g6
F3.7409729999999999
sg7
S'8244'
p1592
sg9
S'1.jpg.bin'
p1593
sa(dp1594
g6
F3.6611310000000001
sg7
S'8493'
p1595
sg9
S'5.jpg.bin'
p1596
sasg7
S'20'
p1597
sg9
S'4_noplate.jpg.bin'
p1598
sa(dp1599
g3
(lp1600
(dp1601
g6
F12.761939999999999
sg7
S'75'
p1602
sg9
S'4_noplate.jpg.bin'
p1603
sa(dp1604
g6
F5.7665689999999996
sg7
S'6438'
p1605
sg9
S'7_noplate.jpg.bin'
p1606
sa(dp1607
g6
F5.0468500000000001
sg7
S'1233'
p1608
sg9
S'3.jpg.bin'
p1609
sa(dp1610
g6
F3.5168059999999999
sg7
S'2666'
p1611
sg9
S'5.jpg.bin'
p1612
sa(dp1613
g6
F3.4825149999999998
sg7
S'9943'
p1614
sg9
S'1_noplate.jpg.bin'
p1615
sa(dp1616
g6
F3.3278240000000001
sg7
S'3527'
p1617
sg9
S'6_noplate.jpg.bin'
p1618
sa(dp1619
g6
F3.2752080000000001
sg7
S'7890'
p1620
sg9
S'2_noplate.jpg.bin'
p1621
sa(dp1622
g6
F2.9073199999999999
sg7
S'5953'
p1623
sg9
S'3.jpg.bin'
p1624
sa(dp1625
g6
F2.2593939999999999
sg7
S'958'
p1626
sg9
S'17.jpg.bin'
p1627
sa(dp1628
g6
F1.5856760000000001
sg7
S'9503'
p1629
sg9
S'3.jpg.bin'
p1630
sa(dp1631
g6
F1.143913
sg7
S'6252'
p1632
sg9
S'6_noplate.jpg.bin'
p1633
sa(dp1634
g6
F0.856993
sg7
S'1558'
p1635
sg9
S'6_noplate.jpg.bin'
p1636
sa(dp1637
g6
F0.59396199999999999
sg7
S'2755'
p1638
sg9
S'5.jpg.bin'
p1639
sa(dp1640
g6
F0.49595499999999998
sg7
S'111'
p1641
sg9
S'2_noplate.jpg.bin'
p1642
sa(dp1643
g6
F0.49512899999999999
sg7
S'4488'
p1644
sg9
S'5_noplate.jpg.bin'
p1645
sa(dp1646
g6
F0.444017
sg7
S'5730'
p1647
sg9
S'2_noplate.jpg.bin'
p1648
sa(dp1649
g6
F0.12285600000000001
sg7
S'9815'
p1650
sg9
S'9_noplate.jpg.bin'
p1651
sa(dp1652
g6
F-0.001835
sg7
S'6786'
p1653
sg9
S'0_noplate.jpg.bin'
p1654
sa(dp1655
g6
F-0.098692000000000002
sg7
S'9729'
p1656
sg9
S'3.jpg.bin'
p1657
sa(dp1658
g6
F-0.15154999999999999
sg7
S'43'
p1659
sg9
S'5_noplate.jpg.bin'
p1660
sasg7
S'75'
p1661
sg9
S'5.jpg.bin'
p1662
sa(dp1663
g3
(lp1664
(dp1665
g6
F11.324133
sg7
S'97'
p1666
sg9
S'0.jpg.bin'
p1667
sa(dp1668
g6
F5.034948
sg7
S'1618'
p1669
sg9
S'2.jpg.bin'
p1670
sa(dp1671
g6
F5.002256
sg7
S'2710'
p1672
sg9
S'0_noplate.jpg.bin'
p1673
sa(dp1674
g6
F4.8445220000000004
sg7
S'6014'
p1675
sg9
S'4_noplate.jpg.bin'
p1676
sa(dp1677
g6
F4.658169
sg7
S'7062'
p1678
sg9
S'2_noplate.jpg.bin'
p1679
sa(dp1680
g6
F4.6494939999999998
sg7
S'7974'
p1681
sg9
S'1.jpg.bin'
p1682
sa(dp1683
g6
F4.538805
sg7
S'7802'
p1684
sg9
S'1_noplate.jpg.bin'
p1685
sa(dp1686
g6
F4.5203059999999997
sg7
S'4751'
p1687
sg9
S'4_noplate.jpg.bin'
p1688
sa(dp1689
g6
F4.4961190000000002
sg7
S'8369'
p1690
sg9
S'2.jpg.bin'
p1691
sa(dp1692
g6
F4.407902
sg7
S'6202'
p1693
sg9
S'3_noplate.jpg.bin'
p1694
sa(dp1695
g6
F4.3997710000000003
sg7
S'3180'
p1696
sg9
S'5_noplate.jpg.bin'
p1697
sa(dp1698
g6
F4.3235929999999998
sg7
S'9240'
p1699
sg9
S'10_noplate.jpg.bin'
p1700
sa(dp1701
g6
F4.3011670000000004
sg7
S'6732'
p1702
sg9
S'8_noplate.jpg.bin'
p1703
sa(dp1704
g6
F4.1284640000000001
sg7
S'2805'
p1705
sg9
S'4_noplate.jpg.bin'
p1706
sa(dp1707
g6
F4.1103969999999999
sg7
S'3581'
p1708
sg9
S'0.jpg.bin'
p1709
sa(dp1710
g6
F4.0887409999999997
sg7
S'2757'
p1711
sg9
S'1.jpg.bin'
p1712
sa(dp1713
g6
F4.0553800000000004
sg7
S'8402'
p1714
sg9
S'0_noplate.jpg.bin'
p1715
sa(dp1716
g6
F4.0522460000000002
sg7
S'8352'
p1717
sg9
S'3.jpg.bin'
p1718
sa(dp1719
g6
F3.9108719999999999
sg7
S'2583'
p1720
sg9
S'4.jpg.bin'
p1721
sa(dp1722
g6
F3.8849930000000001
sg7
S'8458'
p1723
sg9
S'6_noplate.jpg.bin'
p1724
sasg7
S'97'
p1725
sg9
S'1.jpg.bin'
p1726
sa(dp1727
g3
(lp1728
(dp1729
g6
F8.1450879999999994
sg7
S'47'
p1730
sg9
S'3_noplate.jpg.bin'
p1731
sa(dp1732
g6
F5.102417
sg7
S'5870'
p1733
sg9
S'0_noplate.jpg.bin'
p1734
sa(dp1735
g6
F4.281288
sg7
S'8950'
p1736
sg9
S'4_noplate.jpg.bin'
p1737
sa(dp1738
g6
F4.0763990000000003
sg7
S'4244'
p1739
sg9
S'11.jpg.bin'
p1740
sa(dp1741
g6
F3.4050729999999998
sg7
S'1221'
p1742
sg9
S'10.jpg.bin'
p1743
sa(dp1744
g6
F3.3190400000000002
sg7
S'1329'
p1745
sg9
S'1_noplate.jpg.bin'
p1746
sa(dp1747
g6
F3.3014130000000002
sg7
S'4695'
p1748
sg9
S'4_noplate.jpg.bin'
p1749
sa(dp1750
g6
F3.255995
sg7
S'4223'
p1751
sg9
S'4_noplate.jpg.bin'
p1752
sa(dp1753
g6
F3.2095910000000001
sg7
S'60'
p1754
sg9
S'3.jpg.bin'
p1755
sa(dp1756
g6
F3.1733880000000001
sg7
S'7654'
p1757
sg9
S'9_noplate.jpg.bin'
p1758
sa(dp1759
g6
F3.0824660000000002
sg7
S'9404'
p1760
sg9
S'7.jpg.bin'
p1761
sa(dp1762
g6
F2.8985979999999998
sg7
S'8026'
p1763
sg9
S'0_noplate.jpg.bin'
p1764
sa(dp1765
g6
F2.839102
sg7
S'4985'
p1766
sg9
S'7.jpg.bin'
p1767
sa(dp1768
g6
F2.7039170000000001
sg7
S'2270'
p1769
sg9
S'3.jpg.bin'
p1770
sa(dp1771
g6
F2.6254179999999998
sg7
S'7553'
p1772
sg9
S'5_noplate.jpg.bin'
p1773
sa(dp1774
g6
F2.5339450000000001
sg7
S'395'
p1775
sg9
S'2_noplate.jpg.bin'
p1776
sa(dp1777
g6
F2.4954830000000001
sg7
S'6412'
p1778
sg9
S'1_noplate.jpg.bin'
p1779
sa(dp1780
g6
F2.4869880000000002
sg7
S'7506'
p1781
sg9
S'4_noplate.jpg.bin'
p1782
sa(dp1783
g6
F2.3134980000000001
sg7
S'1004'
p1784
sg9
S'11_noplate.jpg.bin'
p1785
sa(dp1786
g6
F2.2263570000000001
sg7
S'1293'
p1787
sg9
S'2_noplate.jpg.bin'
p1788
sasg7
S'47'
p1789
sg9
S'4.jpg.bin'
p1790
sa(dp1791
g3
(lp1792
(dp1793
g6
F3.8167520000000001
sg7
S'35'
p1794
sg9
S'1.jpg.bin'
p1795
sa(dp1796
g6
F3.5766870000000002
sg7
S'3659'
p1797
sg9
S'5.jpg.bin'
p1798
sa(dp1799
g6
F3.5733890000000001
sg7
S'5083'
p1800
sg9
S'3_noplate.jpg.bin'
p1801
sa(dp1802
g6
F3.4030040000000001
sg7
S'8147'
p1803
sg9
S'3_noplate.jpg.bin'
p1804
sa(dp1805
g6
F2.6370469999999999
sg7
S'1699'
p1806
sg9
S'4_noplate.jpg.bin'
p1807
sa(dp1808
g6
F2.5025010000000001
sg7
S'3200'
p1809
sg9
S'0_noplate.jpg.bin'
p1810
sa(dp1811
g6
F2.4281929999999998
sg7
S'3766'
p1812
sg9
S'2_noplate.jpg.bin'
p1813
sa(dp1814
g6
F2.0725730000000002
sg7
S'6234'
p1815
sg9
S'2.jpg.bin'
p1816
sa(dp1817
g6
F2.046116
sg7
S'8786'
p1818
sg9
S'1_noplate.jpg.bin'
p1819
sa(dp1820
g6
F2.0114920000000001
sg7
S'2729'
p1821
sg9
S'3_noplate.jpg.bin'
p1822
sa(dp1823
g6
F1.826187
sg7
S'9459'
p1824
sg9
S'4.jpg.bin'
p1825
sa(dp1826
g6
F1.66028
sg7
S'199'
p1827
sg9
S'0_noplate.jpg.bin'
p1828
sa(dp1829
g6
F1.627203
sg7
S'5883'
p1830
sg9
S'1_noplate.jpg.bin'
p1831
sa(dp1832
g6
F1.468151
sg7
S'6576'
p1833
sg9
S'2_noplate.jpg.bin'
p1834
sa(dp1835
g6
F1.4199999999999999
sg7
S'3379'
p1836
sg9
S'5.jpg.bin'
p1837
sa(dp1838
g6
F1.310192
sg7
S'5799'
p1839
sg9
S'7_noplate.jpg.bin'
p1840
sa(dp1841
g6
F1.2296309999999999
sg7
S'4953'
p1842
sg9
S'1_noplate.jpg.bin'
p1843
sa(dp1844
g6
F1.225611
sg7
S'8281'
p1845
sg9
S'1_noplate.jpg.bin'
p1846
sa(dp1847
g6
F1.2089019999999999
sg7
S'1449'
p1848
sg9
S'4.jpg.bin'
p1849
sa(dp1850
g6
F1.191004
sg7
S'5065'
p1851
sg9
S'3.jpg.bin'
p1852
sasg7
S'35'
p1853
sg9
S'4_noplate.jpg.bin'
p1854
sa(dp1855
g3
(lp1856
(dp1857
g6
F10.772862999999999
sg7
S'8623'
p1858
sg9
S'0_noplate.jpg.bin'
p1859
sa(dp1860
g6
F8.4005430000000008
sg7
S'5989'
p1861
sg9
S'2.jpg.bin'
p1862
sa(dp1863
g6
F8.2162319999999998
sg7
S'84'
p1864
sg9
S'3.jpg.bin'
p1865
sa(dp1866
g6
F7.4142679999999999
sg7
S'1798'
p1867
sg9
S'1_noplate.jpg.bin'
p1868
sa(dp1869
g6
F6.8860279999999996
sg7
S'9947'
p1870
sg9
S'0_noplate.jpg.bin'
p1871
sa(dp1872
g6
F6.8317069999999998
sg7
S'1334'
p1873
sg9
S'0_noplate.jpg.bin'
p1874
sa(dp1875
g6
F6.4507789999999998
sg7
S'1591'
p1876
sg9
S'9.jpg.bin'
p1877
sa(dp1878
g6
F6.1133790000000001
sg7
S'6820'
p1879
sg9
S'4.jpg.bin'
p1880
sa(dp1881
g6
F6.0749490000000002
sg7
S'2746'
p1882
sg9
S'2.jpg.bin'
p1883
sa(dp1884
g6
F5.8536130000000002
sg7
S'4604'
p1885
sg9
S'0.jpg.bin'
p1886
sa(dp1887
g6
F5.6337109999999999
sg7
S'5345'
p1888
sg9
S'2_noplate.jpg.bin'
p1889
sa(dp1890
g6
F5.3068900000000001
sg7
S'1626'
p1891
sg9
S'5_noplate.jpg.bin'
p1892
sa(dp1893
g6
F5.2866799999999996
sg7
S'7185'
p1894
sg9
S'4.jpg.bin'
p1895
sa(dp1896
g6
F5.1658650000000002
sg7
S'3520'
p1897
sg9
S'5.jpg.bin'
p1898
sa(dp1899
g6
F4.997198
sg7
S'8157'
p1900
sg9
S'7_noplate.jpg.bin'
p1901
sa(dp1902
g6
F4.8762109999999996
sg7
S'8318'
p1903
sg9
S'5.jpg.bin'
p1904
sa(dp1905
g6
F4.7681870000000002
sg7
S'1634'
p1906
sg9
S'9_noplate.jpg.bin'
p1907
sa(dp1908
g6
F4.7217710000000004
sg7
S'5662'
p1909
sg9
S'4.jpg.bin'
p1910
sa(dp1911
g6
F4.6049800000000003
sg7
S'2070'
p1912
sg9
S'3.jpg.bin'
p1913
sa(dp1914
g6
F4.5733680000000003
sg7
S'9644'
p1915
sg9
S'1.jpg.bin'
p1916
sasg7
S'84'
p1917
sg9
S'2_noplate.jpg.bin'
p1918
sa(dp1919
g3
(lp1920
(dp1921
g6
F9.1322919999999996
sg7
S'4939'
p1922
sg9
S'2_noplate.jpg.bin'
p1923
sa(dp1924
g6
F8.939629
sg7
S'96'
p1925
sg9
S'1.jpg.bin'
p1926
sa(dp1927
g6
F8.5879879999999993
sg7
S'2629'
p1928
sg9
S'2.jpg.bin'
p1929
sa(dp1930
g6
F7.6544759999999998
sg7
S'3975'
p1931
sg9
S'3.jpg.bin'
p1932
sa(dp1933
g6
F6.9845139999999999
sg7
S'4338'
p1934
sg9
S'3_noplate.jpg.bin'
p1935
sa(dp1936
g6
F6.6285619999999996
sg7
S'9956'
p1937
sg9
S'4_noplate.jpg.bin'
p1938
sa(dp1939
g6
F6.5232650000000003
sg7
S'9645'
p1940
sg9
S'0_noplate.jpg.bin'
p1941
sa(dp1942
g6
F6.5010070000000004
sg7
S'9884'
p1943
sg9
S'1.jpg.bin'
p1944
sa(dp1945
g6
F6.4456020000000001
sg7
S'4648'
p1946
sg9
S'3.jpg.bin'
p1947
sa(dp1948
g6
F6.3615320000000004
sg7
S'1873'
p1949
sg9
S'3_noplate.jpg.bin'
p1950
sa(dp1951
g6
F6.0535350000000001
sg7
S'2719'
p1952
sg9
S'3.jpg.bin'
p1953
sa(dp1954
g6
F5.9245380000000001
sg7
S'5343'
p1955
sg9
S'3.jpg.bin'
p1956
sa(dp1957
g6
F5.8533039999999996
sg7
S'28'
p1958
sg9
S'4_noplate.jpg.bin'
p1959
sa(dp1960
g6
F5.4323079999999999
sg7
S'7560'
p1961
sg9
S'2.jpg.bin'
p1962
sa(dp1963
g6
F4.8219050000000001
sg7
S'8163'
p1964
sg9
S'7_noplate.jpg.bin'
p1965
sa(dp1966
g6
F4.5782809999999996
sg7
S'1959'
p1967
sg9
S'7_noplate.jpg.bin'
p1968
sa(dp1969
g6
F4.2927929999999996
sg7
S'2009'
p1970
sg9
S'1.jpg.bin'
p1971
sa(dp1972
g6
F4.252535
sg7
S'8711'
p1973
sg9
S'3.jpg.bin'
p1974
sa(dp1975
g6
F3.990364
sg7
S'6688'
p1976
sg9
S'5_noplate.jpg.bin'
p1977
sa(dp1978
g6
F3.9129749999999999
sg7
S'8729'
p1979
sg9
S'0_noplate.jpg.bin'
p1980
sasg7
S'28'
p1981
sg9
S'3.jpg.bin'
p1982
sa(dp1983
g3
(lp1984
(dp1985
g6
F10.425426
sg7
S'4940'
p1986
sg9
S'7.jpg.bin'
p1987
sa(dp1988
g6
F4.0227570000000004
sg7
S'4016'
p1989
sg9
S'2.jpg.bin'
p1990
sa(dp1991
g6
F3.6799369999999998
sg7
S'68'
p1992
sg9
S'0.jpg.bin'
p1993
sa(dp1994
g6
F3.5198499999999999
sg7
S'1667'
p1995
sg9
S'4.jpg.bin'
p1996
sa(dp1997
g6
F3.4204240000000001
sg7
S'2625'
p1998
sg9
S'4_noplate.jpg.bin'
p1999
sa(dp2000
g6
F2.9649329999999998
sg7
S'5786'
p2001
sg9
S'2_noplate.jpg.bin'
p2002
sa(dp2003
g6
F2.3869129999999998
sg7
S'7232'
p2004
sg9
S'2_noplate.jpg.bin'
p2005
sa(dp2006
g6
F2.1454810000000002
sg7
S'7037'
p2007
sg9
S'8_noplate.jpg.bin'
p2008
sa(dp2009
g6
F1.540171
sg7
S'4614'
p2010
sg9
S'0_noplate.jpg.bin'
p2011
sa(dp2012
g6
F1.4859450000000001
sg7
S'7748'
p2013
sg9
S'1.jpg.bin'
p2014
sa(dp2015
g6
F1.4846250000000001
sg7
S'2195'
p2016
sg9
S'4.jpg.bin'
p2017
sa(dp2018
g6
F1.443262
sg7
S'2677'
p2019
sg9
S'1.jpg.bin'
p2020
sa(dp2021
g6
F1.378422
sg7
S'3402'
p2022
sg9
S'14_noplate.jpg.bin'
p2023
sa(dp2024
g6
F1.313974
sg7
S'5728'
p2025
sg9
S'14.jpg.bin'
p2026
sa(dp2027
g6
F1.2999879999999999
sg7
S'7220'
p2028
sg9
S'1.jpg.bin'
p2029
sa(dp2030
g6
F1.103844
sg7
S'3574'
p2031
sg9
S'3.jpg.bin'
p2032
sa(dp2033
g6
F1.072165
sg7
S'6435'
p2034
sg9
S'4_noplate.jpg.bin'
p2035
sa(dp2036
g6
F0.99166900000000002
sg7
S'7884'
p2037
sg9
S'3_noplate.jpg.bin'
p2038
sa(dp2039
g6
F0.95518499999999995
sg7
S'8355'
p2040
sg9
S'0_noplate.jpg.bin'
p2041
sa(dp2042
g6
F0.94123800000000002
sg7
S'9542'
p2043
sg9
S'3_noplate.jpg.bin'
p2044
sasg7
S'68'
p2045
sg9
S'6_noplate.jpg.bin'
p2046
sa(dp2047
g3
(lp2048
(dp2049
g6
F7.5309220000000003
sg7
S'56'
p2050
sg9
S'3.jpg.bin'
p2051
sa(dp2052
g6
F4.4879069999999999
sg7
S'1206'
p2053
sg9
S'5.jpg.bin'
p2054
sa(dp2055
g6
F3.787283
sg7
S'8432'
p2056
sg9
S'5.jpg.bin'
p2057
sa(dp2058
g6
F2.8821539999999999
sg7
S'1832'
p2059
sg9
S'3_noplate.jpg.bin'
p2060
sa(dp2061
g6
F2.6771560000000001
sg7
S'8857'
p2062
sg9
S'1.jpg.bin'
p2063
sa(dp2064
g6
F2.4520189999999999
sg7
S'4843'
p2065
sg9
S'1_noplate.jpg.bin'
p2066
sa(dp2067
g6
F2.1027339999999999
sg7
S'9179'
p2068
sg9
S'0_noplate.jpg.bin'
p2069
sa(dp2070
g6
F1.905464
sg7
S'9759'
p2071
sg9
S'2.jpg.bin'
p2072
sa(dp2073
g6
F1.397861
sg7
S'4092'
p2074
sg9
S'1.jpg.bin'
p2075
sa(dp2076
g6
F1.352026
sg7
S'9808'
p2077
sg9
S'2_noplate.jpg.bin'
p2078
sa(dp2079
g6
F1.2599320000000001
sg7
S'2260'
p2080
sg9
S'12_noplate.jpg.bin'
p2081
sa(dp2082
g6
F1.239689
sg7
S'8313'
p2083
sg9
S'6.jpg.bin'
p2084
sa(dp2085
g6
F1.1637740000000001
sg7
S'9383'
p2086
sg9
S'4.jpg.bin'
p2087
sa(dp2088
g6
F0.874363
sg7
S'6648'
p2089
sg9
S'3_noplate.jpg.bin'
p2090
sa(dp2091
g6
F0.79600700000000002
sg7
S'9396'
p2092
sg9
S'5_noplate.jpg.bin'
p2093
sa(dp2094
g6
F0.57577699999999998
sg7
S'7001'
p2095
sg9
S'6.jpg.bin'
p2096
sa(dp2097
g6
F0.48539700000000002
sg7
S'1606'
p2098
sg9
S'1.jpg.bin'
p2099
sa(dp2100
g6
F0.40835399999999999
sg7
S'8979'
p2101
sg9
S'4_noplate.jpg.bin'
p2102
sa(dp2103
g6
F0.28275499999999998
sg7
S'167'
p2104
sg9
S'1_noplate.jpg.bin'
p2105
sa(dp2106
g6
F0.262604
sg7
S'9188'
p2107
sg9
S'1.jpg.bin'
p2108
sasg7
S'56'
p2109
sg9
S'4_noplate.jpg.bin'
p2110
sa(dp2111
g3
(lp2112
(dp2113
g6
F5.1860520000000001
sg7
S'4152'
p2114
sg9
S'2_noplate.jpg.bin'
p2115
sa(dp2116
g6
F4.8913729999999997
sg7
S'7081'
p2117
sg9
S'3.jpg.bin'
p2118
sa(dp2119
g6
F4.7708620000000002
sg7
S'55'
p2120
sg9
S'0_noplate.jpg.bin'
p2121
sa(dp2122
g6
F4.4487300000000003
sg7
S'9946'
p2123
sg9
S'7.jpg.bin'
p2124
sa(dp2125
g6
F4.2397289999999996
sg7
S'9705'
p2126
sg9
S'8.jpg.bin'
p2127
sa(dp2128
g6
F4.2141419999999998
sg7
S'3902'
p2129
sg9
S'7.jpg.bin'
p2130
sa(dp2131
g6
F4.0894519999999996
sg7
S'7469'
p2132
sg9
S'0_noplate.jpg.bin'
p2133
sa(dp2134
g6
F3.971762
sg7
S'7084'
p2135
sg9
S'8.jpg.bin'
p2136
sa(dp2137
g6
F3.9337939999999998
sg7
S'5449'
p2138
sg9
S'1.jpg.bin'
p2139
sa(dp2140
g6
F3.88565
sg7
S'6435'
p2141
sg9
S'4_noplate.jpg.bin'
p2142
sa(dp2143
g6
F3.7806380000000002
sg7
S'4016'
p2144
sg9
S'2.jpg.bin'
p2145
sa(dp2146
g6
F3.7213340000000001
sg7
S'2606'
p2147
sg9
S'5_noplate.jpg.bin'
p2148
sa(dp2149
g6
F3.391111
sg7
S'4314'
p2150
sg9
S'6.jpg.bin'
p2151
sa(dp2152
g6
F3.3547189999999998
sg7
S'5029'
p2153
sg9
S'2_noplate.jpg.bin'
p2154
sa(dp2155
g6
F3.2539250000000002
sg7
S'2625'
p2156
sg9
S'4_noplate.jpg.bin'
p2157
sa(dp2158
g6
F3.2382759999999999
sg7
S'9139'
p2159
sg9
S'6.jpg.bin'
p2160
sa(dp2161
g6
F3.23373
sg7
S'5049'
p2162
sg9
S'4.jpg.bin'
p2163
sa(dp2164
g6
F3.1278060000000001
sg7
S'196'
p2165
sg9
S'0_noplate.jpg.bin'
p2166
sa(dp2167
g6
F3.118633
sg7
S'4806'
p2168
sg9
S'2.jpg.bin'
p2169
sa(dp2170
g6
F3.0965210000000001
sg7
S'8126'
p2171
sg9
S'4_noplate.jpg.bin'
p2172
sasg7
S'55'
p2173
sg9
S'4.jpg.bin'
p2174
sa(dp2175
g3
(lp2176
(dp2177
g6
F6.5637150000000002
sg7
S'2216'
p2178
sg9
S'4_noplate.jpg.bin'
p2179
sa(dp2180
g6
F5.6948179999999997
sg7
S'6139'
p2181
sg9
S'2.jpg.bin'
p2182
sa(dp2183
g6
F3.797056
sg7
S'3178'
p2184
sg9
S'3_noplate.jpg.bin'
p2185
sa(dp2186
g6
F3.727074
sg7
S'1087'
p2187
sg9
S'4_noplate.jpg.bin'
p2188
sa(dp2189
g6
F3.6241319999999999
sg7
S'1432'
p2190
sg9
S'5_noplate.jpg.bin'
p2191
sa(dp2192
g6
F3.4683700000000002
sg7
S'23'
p2193
sg9
S'5_noplate.jpg.bin'
p2194
sa(dp2195
g6
F3.3188
sg7
S'3481'
p2196
sg9
S'1_noplate.jpg.bin'
p2197
sa(dp2198
g6
F3.0185569999999999
sg7
S'40'
p2199
sg9
S'0_noplate.jpg.bin'
p2200
sa(dp2201
g6
F2.5864029999999998
sg7
S'2541'
p2202
sg9
S'3.jpg.bin'
p2203
sa(dp2204
g6
F2.558014
sg7
S'7642'
p2205
sg9
S'3.jpg.bin'
p2206
sa(dp2207
g6
F2.387972
sg7
S'7289'
p2208
sg9
S'2_noplate.jpg.bin'
p2209
sa(dp2210
g6
F2.358301
sg7
S'4594'
p2211
sg9
S'2.jpg.bin'
p2212
sa(dp2213
g6
F2.326921
sg7
S'3356'
p2214
sg9
S'1_noplate.jpg.bin'
p2215
sa(dp2216
g6
F2.298149
sg7
S'2772'
p2217
sg9
S'25.jpg.bin'
p2218
sa(dp2219
g6
F2.1106850000000001
sg7
S'5877'
p2220
sg9
S'4.jpg.bin'
p2221
sa(dp2222
g6
F2.0451239999999999
sg7
S'5879'
p2223
sg9
S'4.jpg.bin'
p2224
sa(dp2225
g6
F2.0445350000000002
sg7
S'1971'
p2226
sg9
S'0.jpg.bin'
p2227
sa(dp2228
g6
F1.952604
sg7
S'1219'
p2229
sg9
S'0_noplate.jpg.bin'
p2230
sa(dp2231
g6
F1.9179079999999999
sg7
S'6808'
p2232
sg9
S'6_noplate.jpg.bin'
p2233
sa(dp2234
g6
F1.8519000000000001
sg7
S'6001'
p2235
sg9
S'5.jpg.bin'
p2236
sasg7
S'40'
p2237
sg9
S'7_noplate.jpg.bin'
p2238
sa(dp2239
g3
(lp2240
(dp2241
g6
F10.001167000000001
sg7
S'5082'
p2242
sg9
S'2.jpg.bin'
p2243
sa(dp2244
g6
F9.1667140000000007
sg7
S'3805'
p2245
sg9
S'0_noplate.jpg.bin'
p2246
sa(dp2247
g6
F9.1211190000000002
sg7
S'9386'
p2248
sg9
S'4_noplate.jpg.bin'
p2249
sa(dp2250
g6
F7.9617509999999996
sg7
S'1385'
p2251
sg9
S'1.jpg.bin'
p2252
sa(dp2253
g6
F7.8179290000000004
sg7
S'1625'
p2254
sg9
S'14_noplate.jpg.bin'
p2255
sa(dp2256
g6
F7.8012119999999996
sg7
S'4196'
p2257
sg9
S'3_noplate.jpg.bin'
p2258
sa(dp2259
g6
F7.2234740000000004
sg7
S'4694'
p2260
sg9
S'0.jpg.bin'
p2261
sa(dp2262
g6
F7.2011310000000002
sg7
S'1270'
p2263
sg9
S'8.jpg.bin'
p2264
sa(dp2265
g6
F6.9823849999999998
sg7
S'3981'
p2266
sg9
S'3.jpg.bin'
p2267
sa(dp2268
g6
F6.8509130000000003
sg7
S'1014'
p2269
sg9
S'4_noplate.jpg.bin'
p2270
sa(dp2271
g6
F6.7029269999999999
sg7
S'8306'
p2272
sg9
S'3.jpg.bin'
p2273
sa(dp2274
g6
F6.6943630000000001
sg7
S'9567'
p2275
sg9
S'2_noplate.jpg.bin'
p2276
sa(dp2277
g6
F6.4711189999999998
sg7
S'9842'
p2278
sg9
S'3.jpg.bin'
p2279
sa(dp2280
g6
F6.4477419999999999
sg7
S'3444'
p2281
sg9
S'2_noplate.jpg.bin'
p2282
sa(dp2283
g6
F6.2552690000000002
sg7
S'8870'
p2284
sg9
S'0.jpg.bin'
p2285
sa(dp2286
g6
F6.1762940000000004
sg7
S'1265'
p2287
sg9
S'2.jpg.bin'
p2288
sa(dp2289
g6
F6.0791890000000004
sg7
S'7033'
p2290
sg9
S'0_noplate.jpg.bin'
p2291
sa(dp2292
g6
F6.0489819999999996
sg7
S'2227'
p2293
sg9
S'4.jpg.bin'
p2294
sa(dp2295
g6
F6.0143709999999997
sg7
S'7897'
p2296
sg9
S'3.jpg.bin'
p2297
sa(dp2298
g6
F5.738251
sg7
S'8337'
p2299
sg9
S'7_noplate.jpg.bin'
p2300
sasg7
S'80'
p2301
sg9
S'2.jpg.bin'
p2302
sa(dp2303
g3
(lp2304
(dp2305
g6
F17.640737999999999
sg7
S'58'
p2306
sg9
S'2.jpg.bin'
p2307
sa(dp2308
g6
F10.668153999999999
sg7
S'4995'
p2309
sg9
S'31_noplate.jpg.bin'
p2310
sa(dp2311
g6
F7.5498329999999996
sg7
S'1885'
p2312
sg9
S'0.jpg.bin'
p2313
sa(dp2314
g6
F6.2113519999999998
sg7
S'7908'
p2315
sg9
S'2_noplate.jpg.bin'
p2316
sa(dp2317
g6
F6.1686509999999997
sg7
S'6960'
p2318
sg9
S'8.jpg.bin'
p2319
sa(dp2320
g6
F5.4780179999999996
sg7
S'7851'
p2321
sg9
S'2_noplate.jpg.bin'
p2322
sa(dp2323
g6
F4.5445729999999998
sg7
S'9244'
p2324
sg9
S'0_noplate.jpg.bin'
p2325
sa(dp2326
g6
F4.2268100000000004
sg7
S'2570'
p2327
sg9
S'4.jpg.bin'
p2328
sa(dp2329
g6
F4.2003870000000001
sg7
S'661'
p2330
sg9
S'3_noplate.jpg.bin'
p2331
sa(dp2332
g6
F3.7707419999999998
sg7
S'2389'
p2333
sg9
S'8.jpg.bin'
p2334
sa(dp2335
g6
F3.6452659999999999
sg7
S'2596'
p2336
sg9
S'6.jpg.bin'
p2337
sa(dp2338
g6
F3.5680999999999998
sg7
S'3969'
p2339
sg9
S'3_noplate.jpg.bin'
p2340
sa(dp2341
g6
F3.4020009999999998
sg7
S'43'
p2342
sg9
S'5_noplate.jpg.bin'
p2343
sa(dp2344
g6
F3.3969149999999999
sg7
S'3320'
p2345
sg9
S'1.jpg.bin'
p2346
sa(dp2347
g6
F3.381697
sg7
S'5272'
p2348
sg9
S'0_noplate.jpg.bin'
p2349
sa(dp2350
g6
F3.3203490000000002
sg7
S'640'
p2351
sg9
S'4_noplate.jpg.bin'
p2352
sa(dp2353
g6
F3.2281209999999998
sg7
S'2695'
p2354
sg9
S'10.jpg.bin'
p2355
sa(dp2356
g6
F2.971622
sg7
S'8141'
p2357
sg9
S'1.jpg.bin'
p2358
sa(dp2359
g6
F2.7177530000000001
sg7
S'4837'
p2360
sg9
S'3_noplate.jpg.bin'
p2361
sa(dp2362
g6
F2.3494169999999999
sg7
S'6110'
p2363
sg9
S'2_noplate.jpg.bin'
p2364
sasg7
S'58'
p2365
sg9
S'2_noplate.jpg.bin'
p2366
sa(dp2367
g3
(lp2368
(dp2369
g6
F7.9137339999999998
sg7
S'3268'
p2370
sg9
S'2.jpg.bin'
p2371
sa(dp2372
g6
F7.8813909999999998
sg7
S'2155'
p2373
sg9
S'3.jpg.bin'
p2374
sa(dp2375
g6
F7.7362130000000002
sg7
S'9459'
p2376
sg9
S'4.jpg.bin'
p2377
sa(dp2378
g6
F7.299366
sg7
S'69'
p2379
sg9
S'1_noplate.jpg.bin'
p2380
sa(dp2381
g6
F7.1499920000000001
sg7
S'6576'
p2382
sg9
S'2_noplate.jpg.bin'
p2383
sa(dp2384
g6
F6.9663849999999998
sg7
S'4445'
p2385
sg9
S'2.jpg.bin'
p2386
sa(dp2387
g6
F6.2540899999999997
sg7
S'9249'
p2388
sg9
S'0_noplate.jpg.bin'
p2389
sa(dp2390
g6
F6.1545199999999998
sg7
S'8337'
p2391
sg9
S'7_noplate.jpg.bin'
p2392
sa(dp2393
g6
F6.042319
sg7
S'2910'
p2394
sg9
S'2_noplate.jpg.bin'
p2395
sa(dp2396
g6
F5.9193689999999997
sg7
S'2122'
p2397
sg9
S'4.jpg.bin'
p2398
sa(dp2399
g6
F5.9002489999999996
sg7
S'9294'
p2400
sg9
S'1_noplate.jpg.bin'
p2401
sa(dp2402
g6
F5.8888550000000004
sg7
S'8870'
p2403
sg9
S'0.jpg.bin'
p2404
sa(dp2405
g6
F5.8213290000000004
sg7
S'1270'
p2406
sg9
S'8.jpg.bin'
p2407
sa(dp2408
g6
F5.694191
sg7
S'3562'
p2409
sg9
S'2.jpg.bin'
p2410
sa(dp2411
g6
F5.5905909999999999
sg7
S'6694'
p2412
sg9
S'4.jpg.bin'
p2413
sa(dp2414
g6
F5.5473509999999999
sg7
S'3626'
p2415
sg9
S'5_noplate.jpg.bin'
p2416
sa(dp2417
g6
F5.5463699999999996
sg7
S'4196'
p2418
sg9
S'3_noplate.jpg.bin'
p2419
sa(dp2420
g6
F5.4720690000000003
sg7
S'4993'
p2421
sg9
S'3.jpg.bin'
p2422
sa(dp2423
g6
F5.3857660000000003
sg7
S'2781'
p2424
sg9
S'4.jpg.bin'
p2425
sa(dp2426
g6
F5.3604130000000003
sg7
S'8147'
p2427
sg9
S'3_noplate.jpg.bin'
p2428
sasg7
S'69'
p2429
sg9
S'5.jpg.bin'
p2430
sa(dp2431
g3
(lp2432
(dp2433
g6
F6.2601599999999999
sg7
S'8961'
p2434
sg9
S'0.jpg.bin'
p2435
sa(dp2436
g6
F5.472086
sg7
S'6615'
p2437
sg9
S'6.jpg.bin'
p2438
sa(dp2439
g6
F4.7641229999999997
sg7
S'89'
p2440
sg9
S'4.jpg.bin'
p2441
sa(dp2442
g6
F4.3095509999999999
sg7
S'5125'
p2443
sg9
S'1_noplate.jpg.bin'
p2444
sa(dp2445
g6
F4.0194169999999998
sg7
S'6214'
p2446
sg9
S'2_noplate.jpg.bin'
p2447
sa(dp2448
g6
F3.9179029999999999
sg7
S'7585'
p2449
sg9
S'12.jpg.bin'
p2450
sa(dp2451
g6
F3.661718
sg7
S'6577'
p2452
sg9
S'13_noplate.jpg.bin'
p2453
sa(dp2454
g6
F3.6560839999999999
sg7
S'2462'
p2455
sg9
S'2.jpg.bin'
p2456
sa(dp2457
g6
F3.4652560000000001
sg7
S'8189'
p2458
sg9
S'2.jpg.bin'
p2459
sa(dp2460
g6
F3.4352930000000002
sg7
S'8993'
p2461
sg9
S'3.jpg.bin'
p2462
sa(dp2463
g6
F3.3310749999999998
sg7
S'9494'
p2464
sg9
S'4_noplate.jpg.bin'
p2465
sa(dp2466
g6
F3.0752700000000002
sg7
S'2132'
p2467
sg9
S'4_noplate.jpg.bin'
p2468
sa(dp2469
g6
F2.9575529999999999
sg7
S'137'
p2470
sg9
S'3.jpg.bin'
p2471
sa(dp2472
g6
F2.9144269999999999
sg7
S'2498'
p2473
sg9
S'0_noplate.jpg.bin'
p2474
sa(dp2475
g6
F2.6586799999999999
sg7
S'5185'
p2476
sg9
S'2_noplate.jpg.bin'
p2477
sa(dp2478
g6
F2.5820470000000002
sg7
S'8538'
p2479
sg9
S'1.jpg.bin'
p2480
sa(dp2481
g6
F2.5063819999999999
sg7
S'6451'
p2482
sg9
S'23.jpg.bin'
p2483
sa(dp2484
g6
F2.2280220000000002
sg7
S'6563'
p2485
sg9
S'4_noplate.jpg.bin'
p2486
sa(dp2487
g6
F2.2105899999999998
sg7
S'2656'
p2488
sg9
S'0.jpg.bin'
p2489
sa(dp2490
g6
F2.1781299999999999
sg7
S'7310'
p2491
sg9
S'4.jpg.bin'
p2492
sasg7
S'89'
p2493
sg9
S'5_noplate.jpg.bin'
p2494
sa(dp2495
g3
(lp2496
(dp2497
g6
F15.773065000000001
sg7
S'87'
p2498
sg9
S'2.jpg.bin'
p2499
sa(dp2500
g6
F8.644558
sg7
S'2494'
p2501
sg9
S'8.jpg.bin'
p2502
sa(dp2503
g6
F5.5523949999999997
sg7
S'7313'
p2504
sg9
S'5.jpg.bin'
p2505
sa(dp2506
g6
F4.9609909999999999
sg7
S'2771'
p2507
sg9
S'2_noplate.jpg.bin'
p2508
sa(dp2509
g6
F4.907286
sg7
S'4284'
p2510
sg9
S'0.jpg.bin'
p2511
sa(dp2512
g6
F4.8246460000000004
sg7
S'9682'
p2513
sg9
S'0_noplate.jpg.bin'
p2514
sa(dp2515
g6
F4.5613099999999998
sg7
S'7111'
p2516
sg9
S'1.jpg.bin'
p2517
sa(dp2518
g6
F4.3374519999999999
sg7
S'2931'
p2519
sg9
S'0_noplate.jpg.bin'
p2520
sa(dp2521
g6
F4.2378030000000004
sg7
S'5906'
p2522
sg9
S'1.jpg.bin'
p2523
sa(dp2524
g6
F4.2010149999999999
sg7
S'8598'
p2525
sg9
S'4_noplate.jpg.bin'
p2526
sa(dp2527
g6
F4.1136189999999999
sg7
S'4764'
p2528
sg9
S'2_noplate.jpg.bin'
p2529
sa(dp2530
g6
F3.7831329999999999
sg7
S'3324'
p2531
sg9
S'3.jpg.bin'
p2532
sa(dp2533
g6
F3.7315640000000001
sg7
S'1598'
p2534
sg9
S'1_noplate.jpg.bin'
p2535
sa(dp2536
g6
F3.6150989999999998
sg7
S'8043'
p2537
sg9
S'2_noplate.jpg.bin'
p2538
sa(dp2539
g6
F3.6143890000000001
sg7
S'7150'
p2540
sg9
S'0_noplate.jpg.bin'
p2541
sa(dp2542
g6
F3.5998860000000001
sg7
S'5662'
p2543
sg9
S'4.jpg.bin'
p2544
sa(dp2545
g6
F3.5808300000000002
sg7
S'2108'
p2546
sg9
S'1.jpg.bin'
p2547
sa(dp2548
g6
F3.5705480000000001
sg7
S'2874'
p2549
sg9
S'4_noplate.jpg.bin'
p2550
sa(dp2551
g6
F3.5114480000000001
sg7
S'7996'
p2552
sg9
S'4_noplate.jpg.bin'
p2553
sa(dp2554
g6
F3.4217780000000002
sg7
S'8969'
p2555
sg9
S'7_noplate.jpg.bin'
p2556
sasg7
S'87'
p2557
sg9
S'2_noplate.jpg.bin'
p2558
sa(dp2559
g3
(lp2560
(dp2561
g6
F11.512983
sg7
S'42'
p2562
sg9
S'3_noplate.jpg.bin'
p2563
sa(dp2564
g6
F10.695555000000001
sg7
S'9363'
p2565
sg9
S'27.jpg.bin'
p2566
sa(dp2567
g6
F10.438523999999999
sg7
S'3723'
p2568
sg9
S'3_noplate.jpg.bin'
p2569
sa(dp2570
g6
F9.9283520000000003
sg7
S'4371'
p2571
sg9
S'3_noplate.jpg.bin'
p2572
sa(dp2573
g6
F9.2797300000000007
sg7
S'5573'
p2574
sg9
S'20_noplate.jpg.bin'
p2575
sa(dp2576
g6
F8.6384620000000005
sg7
S'3186'
p2577
sg9
S'3_noplate.jpg.bin'
p2578
sa(dp2579
g6
F8.6039089999999998
sg7
S'8269'
p2580
sg9
S'13_noplate.jpg.bin'
p2581
sa(dp2582
g6
F8.2798390000000008
sg7
S'6333'
p2583
sg9
S'9.jpg.bin'
p2584
sa(dp2585
g6
F7.8858740000000003
sg7
S'7446'
p2586
sg9
S'28_noplate.jpg.bin'
p2587
sa(dp2588
g6
F7.6454009999999997
sg7
S'3249'
p2589
sg9
S'4_noplate.jpg.bin'
p2590
sa(dp2591
g6
F7.3244639999999999
sg7
S'6931'
p2592
sg9
S'2.jpg.bin'
p2593
sa(dp2594
g6
F6.9086949999999998
sg7
S'9411'
p2595
sg9
S'3.jpg.bin'
p2596
sa(dp2597
g6
F6.8962690000000002
sg7
S'4203'
p2598
sg9
S'3_noplate.jpg.bin'
p2599
sa(dp2600
g6
F6.5792330000000003
sg7
S'7947'
p2601
sg9
S'3.jpg.bin'
p2602
sa(dp2603
g6
F6.245743
sg7
S'3983'
p2604
sg9
S'1_noplate.jpg.bin'
p2605
sa(dp2606
g6
F6.1009950000000002
sg7
S'1080'
p2607
sg9
S'4.jpg.bin'
p2608
sa(dp2609
g6
F5.7868729999999999
sg7
S'6052'
p2610
sg9
S'1.jpg.bin'
p2611
sa(dp2612
g6
F5.6460650000000001
sg7
S'5626'
p2613
sg9
S'5.jpg.bin'
p2614
sa(dp2615
g6
F5.6445429999999996
sg7
S'1371'
p2616
sg9
S'3.jpg.bin'
p2617
sa(dp2618
g6
F5.4938589999999996
sg7
S'129'
p2619
sg9
S'2.jpg.bin'
p2620
sasg7
S'42'
p2621
sg9
S'1.jpg.bin'
p2622
sa(dp2623
g3
(lp2624
(dp2625
g6
F9.3920119999999994
sg7
S'8'
sg9
S'4.jpg.bin'
p2626
sa(dp2627
g6
F7.0343140000000002
sg7
S'7032'
p2628
sg9
S'5_noplate.jpg.bin'
p2629
sa(dp2630
g6
F6.5182229999999999
sg7
S'6302'
p2631
sg9
S'4.jpg.bin'
p2632
sa(dp2633
g6
F5.7655050000000001
sg7
S'4396'
p2634
sg9
S'0_noplate.jpg.bin'
p2635
sa(dp2636
g6
F5.4403569999999997
sg7
S'8847'
p2637
sg9
S'2.jpg.bin'
p2638
sa(dp2639
g6
F4.836792
sg7
S'1132'
p2640
sg9
S'7_noplate.jpg.bin'
p2641
sa(dp2642
g6
F4.713711
sg7
S'2586'
p2643
sg9
S'5.jpg.bin'
p2644
sa(dp2645
g6
F4.7009470000000002
sg7
S'4285'
p2646
sg9
S'1_noplate.jpg.bin'
p2647
sa(dp2648
g6
F4.6463469999999996
sg7
S'7786'
p2649
sg9
S'1_noplate.jpg.bin'
p2650
sa(dp2651
g6
F4.5293640000000002
sg7
S'1737'
p2652
sg9
S'4_noplate.jpg.bin'
p2653
sa(dp2654
g6
F4.4134180000000001
sg7
S'7491'
p2655
sg9
S'0_noplate.jpg.bin'
p2656
sa(dp2657
g6
F4.2430399999999997
sg7
S'7134'
p2658
sg9
S'5_noplate.jpg.bin'
p2659
sa(dp2660
g6
F4.0511739999999996
sg7
S'5621'
p2661
sg9
S'2.jpg.bin'
p2662
sa(dp2663
g6
F3.8929619999999998
sg7
S'1103'
p2664
sg9
S'2_noplate.jpg.bin'
p2665
sa(dp2666
g6
F3.8054100000000002
sg7
S'3446'
p2667
sg9
S'1.jpg.bin'
p2668
sa(dp2669
g6
F3.5115090000000002
sg7
S'6842'
p2670
sg9
S'4_noplate.jpg.bin'
p2671
sa(dp2672
g6
F3.5069750000000002
sg7
S'4586'
p2673
sg9
S'4.jpg.bin'
p2674
sa(dp2675
g6
F3.3802590000000001
sg7
S'5286'
p2676
sg9
S'3_noplate.jpg.bin'
p2677
sa(dp2678
g6
F3.2403200000000001
sg7
S'5741'
p2679
sg9
S'5_noplate.jpg.bin'
p2680
sa(dp2681
g6
F3.1999819999999999
sg7
S'5590'
p2682
sg9
S'0_noplate.jpg.bin'
p2683
sasg7
S'8'
sg9
S'3.jpg.bin'
p2684
sa(dp2685
g3
(lp2686
(dp2687
g6
F9.6729070000000004
sg7
S'99'
p2688
sg9
S'4_noplate.jpg.bin'
p2689
sa(dp2690
g6
F6.4488700000000003
sg7
S'7921'
p2691
sg9
S'5_noplate.jpg.bin'
p2692
sa(dp2693
g6
F3.8816389999999998
sg7
S'7890'
p2694
sg9
S'2_noplate.jpg.bin'
p2695
sa(dp2696
g6
F3.1438519999999999
sg7
S'3267'
p2697
sg9
S'2.jpg.bin'
p2698
sa(dp2699
g6
F2.9266359999999998
sg7
S'6851'
p2700
sg9
S'3.jpg.bin'
p2701
sa(dp2702
g6
F2.7650809999999999
sg7
S'8360'
p2703
sg9
S'6.jpg.bin'
p2704
sa(dp2705
g6
F1.9700470000000001
sg7
S'870'
p2706
sg9
S'2_noplate.jpg.bin'
p2707
sa(dp2708
g6
F1.6738379999999999
sg7
S'2575'
p2709
sg9
S'4_noplate.jpg.bin'
p2710
sa(dp2711
g6
F1.5899220000000001
sg7
S'4842'
p2712
sg9
S'1_noplate.jpg.bin'
p2713
sa(dp2714
g6
F1.5235939999999999
sg7
S'2709'
p2715
sg9
S'3.jpg.bin'
p2716
sa(dp2717
g6
F1.1634979999999999
sg7
S'8927'
p2718
sg9
S'0.jpg.bin'
p2719
sa(dp2720
g6
F1.067123
sg7
S'6455'
p2721
sg9
S'3.jpg.bin'
p2722
sa(dp2723
g6
F0.98491499999999998
sg7
S'7682'
p2724
sg9
S'0_noplate.jpg.bin'
p2725
sa(dp2726
g6
F0.93910199999999999
sg7
S'1706'
p2727
sg9
S'0.jpg.bin'
p2728
sa(dp2729
g6
F0.73673599999999995
sg7
S'263'
p2730
sg9
S'2_noplate.jpg.bin'
p2731
sa(dp2732
g6
F0.72658699999999998
sg7
S'264'
p2733
sg9
S'0.jpg.bin'
p2734
sa(dp2735
g6
F0.71553800000000001
sg7
S'9915'
p2736
sg9
S'2.jpg.bin'
p2737
sa(dp2738
g6
F0.46533799999999997
sg7
S'325'
p2739
sg9
S'0.jpg.bin'
p2740
sa(dp2741
g6
F0.344891
sg7
S'5336'
p2742
sg9
S'2_noplate.jpg.bin'
p2743
sa(dp2744
g6
F0.124546
sg7
S'3014'
p2745
sg9
S'3_noplate.jpg.bin'
p2746
sasg7
S'99'
p2747
sg9
S'9_noplate.jpg.bin'
p2748
sa(dp2749
g3
(lp2750
(dp2751
g6
F8.5611040000000003
sg7
S'19'
p2752
sg9
S'0_noplate.jpg.bin'
p2753
sa(dp2754
g6
F7.9545310000000002
sg7
S'9755'
p2755
sg9
S'1.jpg.bin'
p2756
sa(dp2757
g6
F7.3195189999999997
sg7
S'1091'
p2758
sg9
S'0_noplate.jpg.bin'
p2759
sa(dp2760
g6
F5.9767250000000001
sg7
S'9504'
p2761
sg9
S'4_noplate.jpg.bin'
p2762
sa(dp2763
g6
F5.4943960000000001
sg7
S'3445'
p2764
sg9
S'4.jpg.bin'
p2765
sa(dp2766
g6
F5.1817929999999999
sg7
S'9806'
p2767
sg9
S'3.jpg.bin'
p2768
sa(dp2769
g6
F4.8971609999999997
sg7
S'8699'
p2770
sg9
S'0_noplate.jpg.bin'
p2771
sa(dp2772
g6
F4.8931500000000003
sg7
S'1419'
p2773
sg9
S'4_noplate.jpg.bin'
p2774
sa(dp2775
g6
F4.7918450000000004
sg7
S'1240'
p2776
sg9
S'0_noplate.jpg.bin'
p2777
sa(dp2778
g6
F4.3788410000000004
sg7
S'9106'
p2779
sg9
S'5_noplate.jpg.bin'
p2780
sa(dp2781
g6
F4.3189510000000002
sg7
S'5538'
p2782
sg9
S'2.jpg.bin'
p2783
sa(dp2784
g6
F3.9876710000000002
sg7
S'2100'
p2785
sg9
S'3_noplate.jpg.bin'
p2786
sa(dp2787
g6
F3.976721
sg7
S'7818'
p2788
sg9
S'4_noplate.jpg.bin'
p2789
sa(dp2790
g6
F3.7906070000000001
sg7
S'6092'
p2791
sg9
S'2.jpg.bin'
p2792
sa(dp2793
g6
F3.617769
sg7
S'5432'
p2794
sg9
S'0_noplate.jpg.bin'
p2795
sa(dp2796
g6
F3.5067179999999998
sg7
S'6596'
p2797
sg9
S'1.jpg.bin'
p2798
sa(dp2799
g6
F3.4900739999999999
sg7
S'3103'
p2800
sg9
S'6.jpg.bin'
p2801
sa(dp2802
g6
F3.4758800000000001
sg7
S'7567'
p2803
sg9
S'6.jpg.bin'
p2804
sa(dp2805
g6
F3.4731369999999999
sg7
S'1160'
p2806
sg9
S'3_noplate.jpg.bin'
p2807
sa(dp2808
g6
F3.471031
sg7
S'3263'
p2809
sg9
S'1_noplate.jpg.bin'
p2810
sasg7
S'19'
p2811
sg9
S'2.jpg.bin'
p2812
sa(dp2813
g3
(lp2814
(dp2815
g6
F8.5661349999999992
sg7
S'50'
p2816
sg9
S'7_noplate.jpg.bin'
p2817
sa(dp2818
g6
F6.5453000000000001
sg7
S'6222'
p2819
sg9
S'1_noplate.jpg.bin'
p2820
sa(dp2821
g6
F5.7355270000000003
sg7
S'3898'
p2822
sg9
S'4_noplate.jpg.bin'
p2823
sa(dp2824
g6
F5.7168640000000002
sg7
S'8388'
p2825
sg9
S'0_noplate.jpg.bin'
p2826
sa(dp2827
g6
F5.6097450000000002
sg7
S'9060'
p2828
sg9
S'3_noplate.jpg.bin'
p2829
sa(dp2830
g6
F5.2511460000000003
sg7
S'6796'
p2831
sg9
S'10.jpg.bin'
p2832
sa(dp2833
g6
F4.6826549999999996
sg7
S'9183'
p2834
sg9
S'2_noplate.jpg.bin'
p2835
sa(dp2836
g6
F4.4967040000000003
sg7
S'8946'
p2837
sg9
S'6.jpg.bin'
p2838
sa(dp2839
g6
F4.1278819999999996
sg7
S'3274'
p2840
sg9
S'3_noplate.jpg.bin'
p2841
sa(dp2842
g6
F4.0528430000000002
sg7
S'3785'
p2843
sg9
S'3.jpg.bin'
p2844
sa(dp2845
g6
F4.0201950000000002
sg7
S'5255'
p2846
sg9
S'4.jpg.bin'
p2847
sa(dp2848
g6
F3.9689459999999999
sg7
S'8057'
p2849
sg9
S'4.jpg.bin'
p2850
sa(dp2851
g6
F3.6153550000000001
sg7
S'3567'
p2852
sg9
S'3_noplate.jpg.bin'
p2853
sa(dp2854
g6
F3.458809
sg7
S'4361'
p2855
sg9
S'5.jpg.bin'
p2856
sa(dp2857
g6
F3.455994
sg7
S'5235'
p2858
sg9
S'29.jpg.bin'
p2859
sa(dp2860
g6
F3.4100229999999998
sg7
S'8689'
p2861
sg9
S'0_noplate.jpg.bin'
p2862
sa(dp2863
g6
F3.3754810000000002
sg7
S'4426'
p2864
sg9
S'4.jpg.bin'
p2865
sa(dp2866
g6
F3.349834
sg7
S'6932'
p2867
sg9
S'8_noplate.jpg.bin'
p2868
sa(dp2869
g6
F3.3356690000000002
sg7
S'7633'
p2870
sg9
S'3_noplate.jpg.bin'
p2871
sa(dp2872
g6
F3.2860740000000002
sg7
S'4535'
p2873
sg9
S'1.jpg.bin'
p2874
sasg7
S'50'
p2875
sg9
S'3.jpg.bin'
p2876
sa(dp2877
g3
(lp2878
(dp2879
g6
F9.2237969999999994
sg7
S'78'
p2880
sg9
S'4_noplate.jpg.bin'
p2881
sa(dp2882
g6
F8.0924530000000008
sg7
S'8009'
p2883
sg9
S'4.jpg.bin'
p2884
sa(dp2885
g6
F6.6900199999999996
sg7
S'1189'
p2886
sg9
S'1.jpg.bin'
p2887
sa(dp2888
g6
F5.5254570000000003
sg7
S'7242'
p2889
sg9
S'7_noplate.jpg.bin'
p2890
sa(dp2891
g6
F5.2620120000000004
sg7
S'6137'
p2892
sg9
S'6.jpg.bin'
p2893
sa(dp2894
g6
F5.1527159999999999
sg7
S'8509'
p2895
sg9
S'2_noplate.jpg.bin'
p2896
sa(dp2897
g6
F5.1200700000000001
sg7
S'2730'
p2898
sg9
S'6_noplate.jpg.bin'
p2899
sa(dp2900
g6
F5.098293
sg7
S'2336'
p2901
sg9
S'1_noplate.jpg.bin'
p2902
sa(dp2903
g6
F5.091869
sg7
S'8200'
p2904
sg9
S'6.jpg.bin'
p2905
sa(dp2906
g6
F5.079002
sg7
S'465'
p2907
sg9
S'3.jpg.bin'
p2908
sa(dp2909
g6
F4.9541700000000004
sg7
S'3888'
p2910
sg9
S'3_noplate.jpg.bin'
p2911
sa(dp2912
g6
F4.9447979999999996
sg7
S'5523'
p2913
sg9
S'4_noplate.jpg.bin'
p2914
sa(dp2915
g6
F4.8504139999999998
sg7
S'4730'
p2916
sg9
S'4.jpg.bin'
p2917
sa(dp2918
g6
F4.8206709999999999
sg7
S'672'
p2919
sg9
S'7.jpg.bin'
p2920
sa(dp2921
g6
F4.6738299999999997
sg7
S'6647'
p2922
sg9
S'1_noplate.jpg.bin'
p2923
sa(dp2924
g6
F4.4926909999999998
sg7
S'8779'
p2925
sg9
S'4.jpg.bin'
p2926
sa(dp2927
g6
F4.4858630000000002
sg7
S'6779'
p2928
sg9
S'3.jpg.bin'
p2929
sa(dp2930
g6
F4.1390149999999997
sg7
S'8376'
p2931
sg9
S'2_noplate.jpg.bin'
p2932
sa(dp2933
g6
F4.0352540000000001
sg7
S'1246'
p2934
sg9
S'2_noplate.jpg.bin'
p2935
sa(dp2936
g6
F3.9314650000000002
sg7
S'1215'
p2937
sg9
S'1_noplate.jpg.bin'
p2938
sasg7
S'78'
p2939
sg9
S'7.jpg.bin'
p2940
sa(dp2941
g3
(lp2942
(dp2943
g6
F6.9792750000000003
sg7
S'1434'
p2944
sg9
S'2.jpg.bin'
p2945
sa(dp2946
g6
F6.1391780000000002
sg7
S'688'
p2947
sg9
S'6.jpg.bin'
p2948
sa(dp2949
g6
F6.006113
sg7
S'5888'
p2950
sg9
S'4_noplate.jpg.bin'
p2951
sa(dp2952
g6
F5.5495859999999997
sg7
S'1199'
p2953
sg9
S'0.jpg.bin'
p2954
sa(dp2955
g6
F5.522583
sg7
S'3559'
p2956
sg9
S'2.jpg.bin'
p2957
sa(dp2958
g6
F5.1863429999999999
sg7
S'4573'
p2959
sg9
S'2_noplate.jpg.bin'
p2960
sa(dp2961
g6
F5.0502700000000003
sg7
S'4500'
p2962
sg9
S'0.jpg.bin'
p2963
sa(dp2964
g6
F4.9483410000000001
sg7
S'7745'
p2965
sg9
S'8.jpg.bin'
p2966
sa(dp2967
g6
F4.8210800000000003
sg7
S'5062'
p2968
sg9
S'7.jpg.bin'
p2969
sa(dp2970
g6
F4.6801069999999996
sg7
S'6814'
p2971
sg9
S'2_noplate.jpg.bin'
p2972
sa(dp2973
g6
F4.6434379999999997
sg7
S'6933'
p2974
sg9
S'7_noplate.jpg.bin'
p2975
sa(dp2976
g6
F4.3598369999999997
sg7
S'6716'
p2977
sg9
S'6.jpg.bin'
p2978
sa(dp2979
g6
F4.3211959999999996
sg7
S'5256'
p2980
sg9
S'3_noplate.jpg.bin'
p2981
sa(dp2982
g6
F4.3206389999999999
sg7
S'4608'
p2983
sg9
S'2.jpg.bin'
p2984
sa(dp2985
g6
F3.8183349999999998
sg7
S'756'
p2986
sg9
S'6.jpg.bin'
p2987
sa(dp2988
g6
F3.7447400000000002
sg7
S'1731'
p2989
sg9
S'6.jpg.bin'
p2990
sa(dp2991
g6
F3.6367910000000001
sg7
S'1585'
p2992
sg9
S'3.jpg.bin'
p2993
sa(dp2994
g6
F3.5741770000000002
sg7
S'749'
p2995
sg9
S'5.jpg.bin'
p2996
sa(dp2997
g6
F3.4737130000000001
sg7
S'6736'
p2998
sg9
S'6_noplate.jpg.bin'
p2999
sa(dp3000
g6
F3.3683239999999999
sg7
S'1017'
p3001
sg9
S'0.jpg.bin'
p3002
sasg7
S'5'
sg9
S'7.jpg.bin'
p3003
sa(dp3004
g3
(lp3005
(dp3006
g6
F6.1623000000000001
sg7
S'63'
p3007
sg9
S'4.jpg.bin'
p3008
sa(dp3009
g6
F6.086576
sg7
S'8501'
p3010
sg9
S'3.jpg.bin'
p3011
sa(dp3012
g6
F5.7407570000000003
sg7
S'9881'
p3013
sg9
S'1_noplate.jpg.bin'
p3014
sa(dp3015
g6
F5.546564
sg7
S'3627'
p3016
sg9
S'5_noplate.jpg.bin'
p3017
sa(dp3018
g6
F4.7049099999999999
sg7
S'1302'
p3019
sg9
S'2.jpg.bin'
p3020
sa(dp3021
g6
F4.5165730000000002
sg7
S'2186'
p3022
sg9
S'9.jpg.bin'
p3023
sa(dp3024
g6
F4.5118729999999996
sg7
S'1599'
p3025
sg9
S'3_noplate.jpg.bin'
p3026
sa(dp3027
g6
F4.3999670000000002
sg7
S'2886'
p3028
sg9
S'6_noplate.jpg.bin'
p3029
sa(dp3030
g6
F4.3432219999999999
sg7
S'6504'
p3031
sg9
S'4.jpg.bin'
p3032
sa(dp3033
g6
F4.2884770000000003
sg7
S'679'
p3034
sg9
S'6.jpg.bin'
p3035
sa(dp3036
g6
F4.152037
sg7
S'9365'
p3037
sg9
S'3_noplate.jpg.bin'
p3038
sa(dp3039
g6
F3.875696
sg7
S'4523'
p3040
sg9
S'0_noplate.jpg.bin'
p3041
sa(dp3042
g6
F3.8675630000000001
sg7
S'9797'
p3043
sg9
S'2_noplate.jpg.bin'
p3044
sa(dp3045
g6
F3.6918700000000002
sg7
S'4029'
p3046
sg9
S'3_noplate.jpg.bin'
p3047
sa(dp3048
g6
F3.4802629999999999
sg7
S'9344'
p3049
sg9
S'3_noplate.jpg.bin'
p3050
sa(dp3051
g6
F3.4796749999999999
sg7
S'6499'
p3052
sg9
S'6.jpg.bin'
p3053
sa(dp3054
g6
F3.45207
sg7
S'9641'
p3055
sg9
S'4.jpg.bin'
p3056
sa(dp3057
g6
F3.432849
sg7
S'8468'
p3058
sg9
S'7_noplate.jpg.bin'
p3059
sa(dp3060
g6
F3.405745
sg7
S'4964'
p3061
sg9
S'9_noplate.jpg.bin'
p3062
sa(dp3063
g6
F3.3861370000000002
sg7
S'3725'
p3064
sg9
S'7.jpg.bin'
p3065
sasg7
S'63'
p3066
sg9
S'1_noplate.jpg.bin'
p3067
sa(dp3068
g3
(lp3069
(dp3070
g6
F23.117114999999998
sg7
S'27'
p3071
sg9
S'2.jpg.bin'
p3072
sa(dp3073
g6
F8.0143640000000005
sg7
S'9183'
p3074
sg9
S'2_noplate.jpg.bin'
p3075
sa(dp3076
g6
F3.957554
sg7
S'2158'
p3077
sg9
S'2_noplate.jpg.bin'
p3078
sa(dp3079
g6
F3.2761480000000001
sg7
S'7588'
p3080
sg9
S'13_noplate.jpg.bin'
p3081
sa(dp3082
g6
F2.8860779999999999
sg7
S'3604'
p3083
sg9
S'3.jpg.bin'
p3084
sa(dp3085
g6
F2.377472
sg7
S'1824'
p3086
sg9
S'4_noplate.jpg.bin'
p3087
sa(dp3088
g6
F2.159977
sg7
S'522'
p3089
sg9
S'3_noplate.jpg.bin'
p3090
sa(dp3091
g6
F2.0857960000000002
sg7
S'4624'
p3092
sg9
S'7_noplate.jpg.bin'
p3093
sa(dp3094
g6
F2.0850469999999999
sg7
S'9697'
p3095
sg9
S'0_noplate.jpg.bin'
p3096
sa(dp3097
g6
F1.846371
sg7
S'685'
p3098
sg9
S'3_noplate.jpg.bin'
p3099
sa(dp3100
g6
F1.8415159999999999
sg7
S'8213'
p3101
sg9
S'2_noplate.jpg.bin'
p3102
sa(dp3103
g6
F1.7966230000000001
sg7
S'364'
p3104
sg9
S'0.jpg.bin'
p3105
sa(dp3106
g6
F1.796108
sg7
S'50'
p3107
sg9
S'7_noplate.jpg.bin'
p3108
sa(dp3109
g6
F1.776783
sg7
S'3024'
p3110
sg9
S'2_noplate.jpg.bin'
p3111
sa(dp3112
g6
F1.662561
sg7
S'957'
p3113
sg9
S'3_noplate.jpg.bin'
p3114
sa(dp3115
g6
F1.489374
sg7
S'3571'
p3116
sg9
S'2.jpg.bin'
p3117
sa(dp3118
g6
F1.4810099999999999
sg7
S'9886'
p3119
sg9
S'2.jpg.bin'
p3120
sa(dp3121
g6
F1.465158
sg7
S'8056'
p3122
sg9
S'0.jpg.bin'
p3123
sa(dp3124
g6
F1.3993679999999999
sg7
S'9924'
p3125
sg9
S'3_noplate.jpg.bin'
p3126
sa(dp3127
g6
F1.3561000000000001
sg7
S'2330'
p3128
sg9
S'0.jpg.bin'
p3129
sasg7
S'27'
p3130
sg9
S'2_noplate.jpg.bin'
p3131
sa(dp3132
g3
(lp3133
(dp3134
g6
F9.9155519999999999
sg7
S'1344'
p3135
sg9
S'2_noplate.jpg.bin'
p3136
sa(dp3137
g6
F7.2699480000000003
sg7
S'9455'
p3138
sg9
S'1.jpg.bin'
p3139
sa(dp3140
g6
F5.986497
sg7
S'8055'
p3141
sg9
S'3_noplate.jpg.bin'
p3142
sa(dp3143
g6
F5.856439
sg7
S'4827'
p3144
sg9
S'0_noplate.jpg.bin'
p3145
sa(dp3146
g6
F4.4211359999999997
sg7
S'912'
p3147
sg9
S'5_noplate.jpg.bin'
p3148
sa(dp3149
g6
F4.403143
sg7
S'4507'
p3150
sg9
S'1.jpg.bin'
p3151
sa(dp3152
g6
F4.3386690000000003
sg7
S'3900'
p3153
sg9
S'5_noplate.jpg.bin'
p3154
sa(dp3155
g6
F4.3336499999999996
sg7
S'6866'
p3156
sg9
S'5_noplate.jpg.bin'
p3157
sa(dp3158
g6
F4.3002260000000003
sg7
S'5911'
p3159
sg9
S'2.jpg.bin'
p3160
sa(dp3161
g6
F3.6998959999999999
sg7
S'5596'
p3162
sg9
S'5_noplate.jpg.bin'
p3163
sa(dp3164
g6
F3.6743890000000001
sg7
S'41'
p3165
sg9
S'0_noplate.jpg.bin'
p3166
sa(dp3167
g6
F3.557229
sg7
S'4941'
p3168
sg9
S'5_noplate.jpg.bin'
p3169
sa(dp3170
g6
F3.3793660000000001
sg7
S'8327'
p3171
sg9
S'0.jpg.bin'
p3172
sa(dp3173
g6
F3.3670710000000001
sg7
S'8485'
p3174
sg9
S'3_noplate.jpg.bin'
p3175
sa(dp3176
g6
F3.3306119999999999
sg7
S'1938'
p3177
sg9
S'2.jpg.bin'
p3178
sa(dp3179
g6
F3.117521
sg7
S'6197'
p3180
sg9
S'4.jpg.bin'
p3181
sa(dp3182
g6
F3.0958079999999999
sg7
S'4663'
p3183
sg9
S'4_noplate.jpg.bin'
p3184
sa(dp3185
g6
F2.8513489999999999
sg7
S'4175'
p3186
sg9
S'3.jpg.bin'
p3187
sa(dp3188
g6
F2.7917420000000002
sg7
S'1718'
p3189
sg9
S'3.jpg.bin'
p3190
sa(dp3191
g6
F2.7079620000000002
sg7
S'6859'
p3192
sg9
S'1.jpg.bin'
p3193
sasg7
S'41'
p3194
sg9
S'3.jpg.bin'
p3195
sa(dp3196
g3
(lp3197
(dp3198
g6
F7.1606040000000002
sg7
S'7553'
p3199
sg9
S'5_noplate.jpg.bin'
p3200
sa(dp3201
g6
F6.6236280000000001
sg7
S'2593'
p3202
sg9
S'5_noplate.jpg.bin'
p3203
sa(dp3204
g6
F6.4352970000000003
sg7
S'7199'
p3205
sg9
S'0_noplate.jpg.bin'
p3206
sa(dp3207
g6
F5.7306980000000003
sg7
S'8634'
p3208
sg9
S'2_noplate.jpg.bin'
p3209
sa(dp3210
g6
F5.6148660000000001
sg7
S'8645'
p3211
sg9
S'9_noplate.jpg.bin'
p3212
sa(dp3213
g6
F5.3941150000000002
sg7
S'963'
p3214
sg9
S'2_noplate.jpg.bin'
p3215
sa(dp3216
g6
F5.1857810000000004
sg7
S'7381'
p3217
sg9
S'1_noplate.jpg.bin'
p3218
sa(dp3219
g6
F5.1708489999999996
sg7
S'4583'
p3220
sg9
S'3.jpg.bin'
p3221
sa(dp3222
g6
F5.1460369999999998
sg7
S'5404'
p3223
sg9
S'3.jpg.bin'
p3224
sa(dp3225
g6
F5.0319120000000002
sg7
S'4223'
p3226
sg9
S'4_noplate.jpg.bin'
p3227
sa(dp3228
g6
F4.9790919999999996
sg7
S'8434'
p3229
sg9
S'1_noplate.jpg.bin'
p3230
sa(dp3231
g6
F4.9095019999999998
sg7
S'4243'
p3232
sg9
S'3.jpg.bin'
p3233
sa(dp3234
g6
F4.87805
sg7
S'2073'
p3235
sg9
S'2_noplate.jpg.bin'
p3236
sa(dp3237
g6
F4.861478
sg7
S'6531'
p3238
sg9
S'2.jpg.bin'
p3239
sa(dp3240
g6
F4.8430920000000004
sg7
S'8717'
p3241
sg9
S'2.jpg.bin'
p3242
sa(dp3243
g6
F4.8071250000000001
sg7
S'3120'
p3244
sg9
S'0_noplate.jpg.bin'
p3245
sa(dp3246
g6
F4.7585119999999996
sg7
S'4044'
p3247
sg9
S'9_noplate.jpg.bin'
p3248
sa(dp3249
g6
F4.6788230000000004
sg7
S'7444'
p3250
sg9
S'9.jpg.bin'
p3251
sa(dp3252
g6
F4.5960580000000002
sg7
S'5601'
p3253
sg9
S'3.jpg.bin'
p3254
sa(dp3255
g6
F4.5327719999999996
sg7
S'7642'
p3256
sg9
S'3.jpg.bin'
p3257
sasg7
S'39'
p3258
sg9
S'2.jpg.bin'
p3259
sa(dp3260
g3
(lp3261
(dp3262
g6
F8.8763690000000004
sg7
S'52'
p3263
sg9
S'0_noplate.jpg.bin'
p3264
sa(dp3265
g6
F6.2425100000000002
sg7
S'2069'
p3266
sg9
S'1_noplate.jpg.bin'
p3267
sa(dp3268
g6
F5.1696340000000003
sg7
S'1821'
p3269
sg9
S'4.jpg.bin'
p3270
sa(dp3271
g6
F5.076397
sg7
S'7798'
p3272
sg9
S'7.jpg.bin'
p3273
sa(dp3274
g6
F2.995298
sg7
S'8646'
p3275
sg9
S'10.jpg.bin'
p3276
sa(dp3277
g6
F2.9038349999999999
sg7
S'6636'
p3278
sg9
S'5_noplate.jpg.bin'
p3279
sa(dp3280
g6
F2.8755890000000002
sg7
S'5720'
p3281
sg9
S'4_noplate.jpg.bin'
p3282
sa(dp3283
g6
F2.836058
sg7
S'3337'
p3284
sg9
S'1.jpg.bin'
p3285
sa(dp3286
g6
F2.8067440000000001
sg7
S'6993'
p3287
sg9
S'0_noplate.jpg.bin'
p3288
sa(dp3289
g6
F2.8011879999999998
sg7
S'3851'
p3290
sg9
S'0_noplate.jpg.bin'
p3291
sa(dp3292
g6
F2.683084
sg7
S'2082'
p3293
sg9
S'4.jpg.bin'
p3294
sa(dp3295
g6
F2.5749740000000001
sg7
S'1750'
p3296
sg9
S'7.jpg.bin'
p3297
sa(dp3298
g6
F2.52434
sg7
S'2960'
p3299
sg9
S'0_noplate.jpg.bin'
p3300
sa(dp3301
g6
F2.5036239999999998
sg7
S'6892'
p3302
sg9
S'2.jpg.bin'
p3303
sa(dp3304
g6
F2.205257
sg7
S'5059'
p3305
sg9
S'4_noplate.jpg.bin'
p3306
sa(dp3307
g6
F2.0737990000000002
sg7
S'4745'
p3308
sg9
S'4_noplate.jpg.bin'
p3309
sa(dp3310
g6
F1.94503
sg7
S'5713'
p3311
sg9
S'3_noplate.jpg.bin'
p3312
sa(dp3313
g6
F1.8412649999999999
sg7
S'5099'
p3314
sg9
S'5_noplate.jpg.bin'
p3315
sa(dp3316
g6
F1.739376
sg7
S'6880'
p3317
sg9
S'3_noplate.jpg.bin'
p3318
sa(dp3319
g6
F1.551601
sg7
S'1027'
p3320
sg9
S'2_noplate.jpg.bin'
p3321
sasg7
S'52'
p3322
sg9
S'4_noplate.jpg.bin'
p3323
sa(dp3324
g3
(lp3325
(dp3326
g6
F10.944469
sg7
S'4338'
p3327
sg9
S'3_noplate.jpg.bin'
p3328
sa(dp3329
g6
F10.319744
sg7
S'9884'
p3330
sg9
S'1.jpg.bin'
p3331
sa(dp3332
g6
F9.4842209999999998
sg7
S'2629'
p3333
sg9
S'2.jpg.bin'
p3334
sa(dp3335
g6
F9.3526900000000008
sg7
S'96'
p3336
sg9
S'1.jpg.bin'
p3337
sa(dp3338
g6
F8.9150449999999992
sg7
S'6688'
p3339
sg9
S'5_noplate.jpg.bin'
p3340
sa(dp3341
g6
F7.5219329999999998
sg7
S'8163'
p3342
sg9
S'7_noplate.jpg.bin'
p3343
sa(dp3344
g6
F7.2171050000000001
sg7
S'7560'
p3345
sg9
S'2.jpg.bin'
p3346
sa(dp3347
g6
F6.8447649999999998
sg7
S'1873'
p3348
sg9
S'3_noplate.jpg.bin'
p3349
sa(dp3350
g6
F6.4546760000000001
sg7
S'1493'
p3351
sg9
S'2_noplate.jpg.bin'
p3352
sa(dp3353
g6
F6.183954
sg7
S'9956'
p3354
sg9
S'4_noplate.jpg.bin'
p3355
sa(dp3356
g6
F5.8963179999999999
sg7
S'3975'
p3357
sg9
S'3.jpg.bin'
p3358
sa(dp3359
g6
F5.8885990000000001
sg7
S'4648'
p3360
sg9
S'3.jpg.bin'
p3361
sa(dp3362
g6
F5.6498660000000003
sg7
S'28'
p3363
sg9
S'4_noplate.jpg.bin'
p3364
sa(dp3365
g6
F5.6311239999999998
sg7
S'1959'
p3366
sg9
S'7_noplate.jpg.bin'
p3367
sa(dp3368
g6
F5.4923590000000004
sg7
S'5343'
p3369
sg9
S'3.jpg.bin'
p3370
sa(dp3371
g6
F4.8126850000000001
sg7
S'4939'
p3372
sg9
S'2_noplate.jpg.bin'
p3373
sa(dp3374
g6
F4.6145880000000004
sg7
S'8729'
p3375
sg9
S'0_noplate.jpg.bin'
p3376
sa(dp3377
g6
F4.5936760000000003
sg7
S'5882'
p3378
sg9
S'8_noplate.jpg.bin'
p3379
sa(dp3380
g6
F4.5662289999999999
sg7
S'2719'
p3381
sg9
S'3.jpg.bin'
p3382
sa(dp3383
g6
F4.1299570000000001
sg7
S'2009'
p3384
sg9
S'1.jpg.bin'
p3385
sasg7
S'96'
p3386
sg9
S'4.jpg.bin'
p3387
sa(dp3388
g3
(lp3389
(dp3390
g6
F11.574736
sg7
S'85'
p3391
sg9
S'0_noplate.jpg.bin'
p3392
sa(dp3393
g6
F8.1347100000000001
sg7
S'6431'
p3394
sg9
S'5.jpg.bin'
p3395
sa(dp3396
g6
F7.5148960000000002
sg7
S'6159'
p3397
sg9
S'4.jpg.bin'
p3398
sa(dp3399
g6
F7.4066710000000002
sg7
S'2737'
p3400
sg9
S'3_noplate.jpg.bin'
p3401
sa(dp3402
g6
F7.2824229999999996
sg7
S'6427'
p3403
sg9
S'2_noplate.jpg.bin'
p3404
sa(dp3405
g6
F7.0174139999999996
sg7
S'1298'
p3406
sg9
S'2.jpg.bin'
p3407
sa(dp3408
g6
F6.907686
sg7
S'2136'
p3409
sg9
S'2_noplate.jpg.bin'
p3410
sa(dp3411
g6
F5.1937829999999998
sg7
S'5244'
p3412
sg9
S'1.jpg.bin'
p3413
sa(dp3414
g6
F4.7374320000000001
sg7
S'356'
p3415
sg9
S'0_noplate.jpg.bin'
p3416
sa(dp3417
g6
F3.9864220000000001
sg7
S'5342'
p3418
sg9
S'4.jpg.bin'
p3419
sa(dp3420
g6
F3.7716539999999998
sg7
S'4209'
p3421
sg9
S'9.jpg.bin'
p3422
sa(dp3423
g6
F3.4105910000000002
sg7
S'1299'
p3424
sg9
S'27_noplate.jpg.bin'
p3425
sa(dp3426
g6
F3.2664759999999999
sg7
S'5333'
p3427
sg9
S'1_noplate.jpg.bin'
p3428
sa(dp3429
g6
F3.1813370000000001
sg7
S'2456'
p3430
sg9
S'72.jpg.bin'
p3431
sa(dp3432
g6
F3.1670229999999999
sg7
S'7275'
p3433
sg9
S'4_noplate.jpg.bin'
p3434
sa(dp3435
g6
F3.1342850000000002
sg7
S'4411'
p3436
sg9
S'4.jpg.bin'
p3437
sa(dp3438
g6
F2.9210780000000001
sg7
S'1899'
p3439
sg9
S'6_noplate.jpg.bin'
p3440
sa(dp3441
g6
F2.6164320000000001
sg7
S'4175'
p3442
sg9
S'3.jpg.bin'
p3443
sa(dp3444
g6
F2.4115069999999998
sg7
S'8579'
p3445
sg9
S'2_noplate.jpg.bin'
p3446
sa(dp3447
g6
F2.3033679999999999
sg7
S'2620'
p3448
sg9
S'1.jpg.bin'
p3449
sasg7
S'85'
p3450
sg9
S'8_noplate.jpg.bin'
p3451
sa(dp3452
g3
(lp3453
(dp3454
g6
F11.861053
sg7
S'2709'
p3455
sg9
S'3.jpg.bin'
p3456
sa(dp3457
g6
F9.1374739999999992
sg7
S'2465'
p3458
sg9
S'3.jpg.bin'
p3459
sa(dp3460
g6
F8.4686869999999992
sg7
S'92'
p3461
sg9
S'5.jpg.bin'
p3462
sa(dp3463
g6
F8.4270169999999993
sg7
S'1796'
p3464
sg9
S'6.jpg.bin'
p3465
sa(dp3466
g6
F7.974113
sg7
S'6570'
p3467
sg9
S'0_noplate.jpg.bin'
p3468
sa(dp3469
g6
F7.6564360000000002
sg7
S'6455'
p3470
sg9
S'3.jpg.bin'
p3471
sa(dp3472
g6
F5.7394080000000001
sg7
S'870'
p3473
sg9
S'2_noplate.jpg.bin'
p3474
sa(dp3475
g6
F5.248672
sg7
S'2575'
p3476
sg9
S'4_noplate.jpg.bin'
p3477
sa(dp3478
g6
F3.778616
sg7
S'1446'
p3479
sg9
S'2.jpg.bin'
p3480
sa(dp3481
g6
F3.6790699999999998
sg7
S'7138'
p3482
sg9
S'7.jpg.bin'
p3483
sa(dp3484
g6
F3.4112629999999999
sg7
S'8885'
p3485
sg9
S'3.jpg.bin'
p3486
sa(dp3487
g6
F3.0504880000000001
sg7
S'1156'
p3488
sg9
S'0_noplate.jpg.bin'
p3489
sa(dp3490
g6
F2.6820909999999998
sg7
S'3795'
p3491
sg9
S'3.jpg.bin'
p3492
sa(dp3493
g6
F2.472248
sg7
S'7119'
p3494
sg9
S'0_noplate.jpg.bin'
p3495
sa(dp3496
g6
F2.36232
sg7
S'3846'
p3497
sg9
S'4.jpg.bin'
p3498
sa(dp3499
g6
F2.2304629999999999
sg7
S'5640'
p3500
sg9
S'3_noplate.jpg.bin'
p3501
sa(dp3502
g6
F1.9633620000000001
sg7
S'8453'
p3503
sg9
S'5.jpg.bin'
p3504
sa(dp3505
g6
F1.795204
sg7
S'1819'
p3506
sg9
S'4_noplate.jpg.bin'
p3507
sa(dp3508
g6
F1.747627
sg7
S'7921'
p3509
sg9
S'5_noplate.jpg.bin'
p3510
sa(dp3511
g6
F1.5630230000000001
sg7
S'3915'
p3512
sg9
S'10_noplate.jpg.bin'
p3513
sasg7
S'92'
p3514
sg9
S'1_noplate.jpg.bin'
p3515
sa(dp3516
g3
(lp3517
(dp3518
g6
F6.807461
sg7
S'6760'
p3519
sg9
S'0.jpg.bin'
p3520
sa(dp3521
g6
F6.738499
sg7
S'74'
p3522
sg9
S'4.jpg.bin'
p3523
sa(dp3524
g6
F5.9827399999999997
sg7
S'2470'
p3525
sg9
S'3_noplate.jpg.bin'
p3526
sa(dp3527
g6
F4.5045390000000003
sg7
S'5602'
p3528
sg9
S'4_noplate.jpg.bin'
p3529
sa(dp3530
g6
F4.321701
sg7
S'791'
p3531
sg9
S'1_noplate.jpg.bin'
p3532
sa(dp3533
g6
F3.2727580000000001
sg7
S'8216'
p3534
sg9
S'3.jpg.bin'
p3535
sa(dp3536
g6
F3.0916920000000001
sg7
S'4595'
p3537
sg9
S'0_noplate.jpg.bin'
p3538
sa(dp3539
g6
F3.0777969999999999
sg7
S'4638'
p3540
sg9
S'2.jpg.bin'
p3541
sa(dp3542
g6
F2.094868
sg7
S'3488'
p3543
sg9
S'1_noplate.jpg.bin'
p3544
sa(dp3545
g6
F1.921551
sg7
S'8886'
p3546
sg9
S'4_noplate.jpg.bin'
p3547
sa(dp3548
g6
F1.897907
sg7
S'5779'
p3549
sg9
S'3_noplate.jpg.bin'
p3550
sa(dp3551
g6
F1.8082450000000001
sg7
S'8404'
p3552
sg9
S'5.jpg.bin'
p3553
sa(dp3554
g6
F1.638897
sg7
S'9296'
p3555
sg9
S'3_noplate.jpg.bin'
p3556
sa(dp3557
g6
F1.550762
sg7
S'4284'
p3558
sg9
S'0.jpg.bin'
p3559
sa(dp3560
g6
F1.4895080000000001
sg7
S'8382'
p3561
sg9
S'2_noplate.jpg.bin'
p3562
sa(dp3563
g6
F1.350147
sg7
S'5786'
p3564
sg9
S'2_noplate.jpg.bin'
p3565
sa(dp3566
g6
F1.305901
sg7
S'6821'
p3567
sg9
S'9.jpg.bin'
p3568
sa(dp3569
g6
F1.2745899999999999
sg7
S'9563'
p3570
sg9
S'5_noplate.jpg.bin'
p3571
sa(dp3572
g6
F1.1896249999999999
sg7
S'3087'
p3573
sg9
S'3.jpg.bin'
p3574
sa(dp3575
g6
F1.1874560000000001
sg7
S'5989'
p3576
sg9
S'2.jpg.bin'
p3577
sasg7
S'74'
p3578
sg9
S'0_noplate.jpg.bin'
p3579
sa(dp3580
g3
(lp3581
(dp3582
g6
F8.1696620000000006
sg7
S'4'
sg9
S'5.jpg.bin'
p3583
sa(dp3584
g6
F3.4392239999999998
sg7
S'9627'
p3585
sg9
S'0.jpg.bin'
p3586
sa(dp3587
g6
F3.173718
sg7
S'710'
p3588
sg9
S'2.jpg.bin'
p3589
sa(dp3590
g6
F2.6142470000000002
sg7
S'4538'
p3591
sg9
S'5_noplate.jpg.bin'
p3592
sa(dp3593
g6
F2.2191200000000002
sg7
S'2406'
p3594
sg9
S'9.jpg.bin'
p3595
sa(dp3596
g6
F2.2135039999999999
sg7
S'3402'
p3597
sg9
S'14_noplate.jpg.bin'
p3598
sa(dp3599
g6
F2.1157979999999998
sg7
S'5499'
p3600
sg9
S'4_noplate.jpg.bin'
p3601
sa(dp3602
g6
F2.0814879999999998
sg7
S'7059'
p3603
sg9
S'12.jpg.bin'
p3604
sa(dp3605
g6
F1.7346459999999999
sg7
S'7645'
p3606
sg9
S'0.jpg.bin'
p3607
sa(dp3608
g6
F1.7099390000000001
sg7
S'1927'
p3609
sg9
S'3.jpg.bin'
p3610
sa(dp3611
g6
F1.525596
sg7
S'7389'
p3612
sg9
S'6_noplate.jpg.bin'
p3613
sa(dp3614
g6
F1.483562
sg7
S'2543'
p3615
sg9
S'3.jpg.bin'
p3616
sa(dp3617
g6
F1.3976519999999999
sg7
S'8765'
p3618
sg9
S'12.jpg.bin'
p3619
sa(dp3620
g6
F1.390261
sg7
S'7693'
p3621
sg9
S'5_noplate.jpg.bin'
p3622
sa(dp3623
g6
F1.344411
sg7
S'912'
p3624
sg9
S'5_noplate.jpg.bin'
p3625
sa(dp3626
g6
F1.106541
sg7
S'5049'
p3627
sg9
S'4.jpg.bin'
p3628
sa(dp3629
g6
F1.071347
sg7
S'8977'
p3630
sg9
S'0_noplate.jpg.bin'
p3631
sa(dp3632
g6
F0.68936500000000001
sg7
S'9542'
p3633
sg9
S'3_noplate.jpg.bin'
p3634
sa(dp3635
g6
F0.65056400000000003
sg7
S'4073'
p3636
sg9
S'7_noplate.jpg.bin'
p3637
sa(dp3638
g6
F0.64505000000000001
sg7
S'386'
p3639
sg9
S'4_noplate.jpg.bin'
p3640
sasg7
S'4'
sg9
S'1.jpg.bin'
p3641
sa(dp3642
g3
(lp3643
(dp3644
g6
F5.8615089999999999
sg7
S'6539'
p3645
sg9
S'0.jpg.bin'
p3646
sa(dp3647
g6
F5.7522770000000003
sg7
S'7068'
p3648
sg9
S'0.jpg.bin'
p3649
sa(dp3650
g6
F5.2076859999999998
sg7
S'2119'
p3651
sg9
S'3_noplate.jpg.bin'
p3652
sa(dp3653
g6
F4.9969970000000004
sg7
S'749'
p3654
sg9
S'5.jpg.bin'
p3655
sa(dp3656
g6
F3.995231
sg7
S'9127'
p3657
sg9
S'0_noplate.jpg.bin'
p3658
sa(dp3659
g6
F3.622417
sg7
S'3877'
p3660
sg9
S'3.jpg.bin'
p3661
sa(dp3662
g6
F3.486313
sg7
S'1884'
p3663
sg9
S'5_noplate.jpg.bin'
p3664
sa(dp3665
g6
F3.3016709999999998
sg7
S'4281'
p3666
sg9
S'0_noplate.jpg.bin'
p3667
sa(dp3668
g6
F3.2487699999999999
sg7
S'1597'
p3669
sg9
S'3_noplate.jpg.bin'
p3670
sa(dp3671
g6
F3.238693
sg7
S'3326'
p3672
sg9
S'4.jpg.bin'
p3673
sa(dp3674
g6
F2.9396300000000002
sg7
S'4348'
p3675
sg9
S'0_noplate.jpg.bin'
p3676
sa(dp3677
g6
F2.7270509999999999
sg7
S'3267'
p3678
sg9
S'2.jpg.bin'
p3679
sa(dp3680
g6
F2.4408069999999999
sg7
S'4004'
p3681
sg9
S'3_noplate.jpg.bin'
p3682
sa(dp3683
g6
F2.2348750000000002
sg7
S'413'
p3684
sg9
S'8_noplate.jpg.bin'
p3685
sa(dp3686
g6
F2.1986919999999999
sg7
S'6132'
p3687
sg9
S'0_noplate.jpg.bin'
p3688
sa(dp3689
g6
F2.1105290000000001
sg7
S'4477'
p3690
sg9
S'3.jpg.bin'
p3691
sa(dp3692
g6
F1.9853609999999999
sg7
S'134'
p3693
sg9
S'0.jpg.bin'
p3694
sa(dp3695
g6
F1.978321
sg7
S'7592'
p3696
sg9
S'0.jpg.bin'
p3697
sa(dp3698
g6
F1.9632529999999999
sg7
S'9159'
p3699
sg9
S'1_noplate.jpg.bin'
p3700
sa(dp3701
g6
F1.89174
sg7
S'5318'
p3702
sg9
S'7.jpg.bin'
p3703
sasg7
S'94'
p3704
sg9
S'0_noplate.jpg.bin'
p3705
sa(dp3706
g3
(lp3707
(dp3708
g6
F7.5239940000000001
sg7
S'183'
p3709
sg9
S'4_noplate.jpg.bin'
p3710
sa(dp3711
g6
F5.7013670000000003
sg7
S'8302'
p3712
sg9
S'4.jpg.bin'
p3713
sa(dp3714
g6
F5.6046839999999998
sg7
S'9118'
p3715
sg9
S'0_noplate.jpg.bin'
p3716
sa(dp3717
g6
F5.568981
sg7
S'292'
p3718
sg9
S'1.jpg.bin'
p3719
sa(dp3720
g6
F5.3598020000000002
sg7
S'7005'
p3721
sg9
S'4.jpg.bin'
p3722
sa(dp3723
g6
F5.2209539999999999
sg7
S'8762'
p3724
sg9
S'11_noplate.jpg.bin'
p3725
sa(dp3726
g6
F4.9755140000000004
sg7
S'2901'
p3727
sg9
S'3.jpg.bin'
p3728
sa(dp3729
g6
F4.9261169999999996
sg7
S'2810'
p3730
sg9
S'7.jpg.bin'
p3731
sa(dp3732
g6
F4.7965960000000001
sg7
S'505'
p3733
sg9
S'3_noplate.jpg.bin'
p3734
sa(dp3735
g6
F4.7926310000000001
sg7
S'4749'
p3736
sg9
S'4_noplate.jpg.bin'
p3737
sa(dp3738
g6
F4.7189459999999999
sg7
S'114'
p3739
sg9
S'4.jpg.bin'
p3740
sa(dp3741
g6
F4.5590359999999999
sg7
S'7706'
p3742
sg9
S'3_noplate.jpg.bin'
p3743
sa(dp3744
g6
F4.4424890000000001
sg7
S'4344'
p3745
sg9
S'0.jpg.bin'
p3746
sa(dp3747
g6
F4.4279450000000002
sg7
S'4087'
p3748
sg9
S'2.jpg.bin'
p3749
sa(dp3750
g6
F4.3677080000000004
sg7
S'9905'
p3751
sg9
S'1_noplate.jpg.bin'
p3752
sa(dp3753
g6
F4.2773110000000001
sg7
S'669'
p3754
sg9
S'1.jpg.bin'
p3755
sa(dp3756
g6
F4.2487089999999998
sg7
S'8186'
p3757
sg9
S'3.jpg.bin'
p3758
sa(dp3759
g6
F4.0675949999999998
sg7
S'1189'
p3760
sg9
S'1.jpg.bin'
p3761
sa(dp3762
g6
F4.0127439999999996
sg7
S'438'
p3763
sg9
S'1_noplate.jpg.bin'
p3764
sa(dp3765
g6
F3.9700579999999999
sg7
S'4863'
p3766
sg9
S'5_noplate.jpg.bin'
p3767
sasg7
S'26'
p3768
sg9
S'4.jpg.bin'
p3769
sa(dp3770
g3
(lp3771
(dp3772
g6
F7.6105419999999997
sg7
S'8870'
p3773
sg9
S'0.jpg.bin'
p3774
sa(dp3775
g6
F7.3556239999999997
sg7
S'2227'
p3776
sg9
S'4.jpg.bin'
p3777
sa(dp3778
g6
F6.940042
sg7
S'8147'
p3779
sg9
S'3_noplate.jpg.bin'
p3780
sa(dp3781
g6
F6.8283759999999996
sg7
S'3688'
p3782
sg9
S'1.jpg.bin'
p3783
sa(dp3784
g6
F6.8213889999999999
sg7
S'9459'
p3785
sg9
S'4.jpg.bin'
p3786
sa(dp3787
g6
F6.4379999999999997
sg7
S'6472'
p3788
sg9
S'7.jpg.bin'
p3789
sa(dp3790
g6
F5.9677730000000002
sg7
S'3047'
p3791
sg9
S'3.jpg.bin'
p3792
sa(dp3793
g6
F5.8443300000000002
sg7
S'8620'
p3794
sg9
S'3.jpg.bin'
p3795
sa(dp3796
g6
F5.7479170000000002
sg7
S'326'
p3797
sg9
S'1.jpg.bin'
p3798
sa(dp3799
g6
F5.7160019999999996
sg7
S'2155'
p3800
sg9
S'3.jpg.bin'
p3801
sa(dp3802
g6
F5.705463
sg7
S'8910'
p3803
sg9
S'3.jpg.bin'
p3804
sa(dp3805
g6
F5.4517800000000003
sg7
S'2122'
p3806
sg9
S'4.jpg.bin'
p3807
sa(dp3808
g6
F5.3784010000000002
sg7
S'1385'
p3809
sg9
S'1.jpg.bin'
p3810
sa(dp3811
g6
F5.3623710000000004
sg7
S'54'
p3812
sg9
S'4.jpg.bin'
p3813
sa(dp3814
g6
F5.2860620000000003
sg7
S'9587'
p3815
sg9
S'0_noplate.jpg.bin'
p3816
sa(dp3817
g6
F5.2803149999999999
sg7
S'1823'
p3818
sg9
S'9.jpg.bin'
p3819
sa(dp3820
g6
F5.2252219999999996
sg7
S'2729'
p3821
sg9
S'3_noplate.jpg.bin'
p3822
sa(dp3823
g6
F4.8232819999999998
sg7
S'9768'
p3824
sg9
S'4.jpg.bin'
p3825
sa(dp3826
g6
F4.6552179999999996
sg7
S'7184'
p3827
sg9
S'4.jpg.bin'
p3828
sa(dp3829
g6
F4.6336459999999997
sg7
S'3562'
p3830
sg9
S'2.jpg.bin'
p3831
sasg7
S'54'
p3832
sg9
S'0.jpg.bin'
p3833
sa(dp3834
g3
(lp3835
(dp3836
g6
F14.09338
sg7
S'70'
p3837
sg9
S'24_noplate.jpg.bin'
p3838
sa(dp3839
g6
F7.5450650000000001
sg7
S'3328'
p3840
sg9
S'7_noplate.jpg.bin'
p3841
sa(dp3842
g6
F5.7847799999999996
sg7
S'7855'
p3843
sg9
S'12.jpg.bin'
p3844
sa(dp3845
g6
F5.009665
sg7
S'4433'
p3846
sg9
S'4.jpg.bin'
p3847
sa(dp3848
g6
F4.7144810000000001
sg7
S'3590'
p3849
sg9
S'6_noplate.jpg.bin'
p3850
sa(dp3851
g6
F4.5069160000000004
sg7
S'6692'
p3852
sg9
S'1_noplate.jpg.bin'
p3853
sa(dp3854
g6
F4.4015560000000002
sg7
S'43'
p3855
sg9
S'5_noplate.jpg.bin'
p3856
sa(dp3857
g6
F4.3942829999999997
sg7
S'3793'
p3858
sg9
S'1_noplate.jpg.bin'
p3859
sa(dp3860
g6
F4.3771449999999996
sg7
S'2389'
p3861
sg9
S'8.jpg.bin'
p3862
sa(dp3863
g6
F4.1412940000000003
sg7
S'2442'
p3864
sg9
S'3.jpg.bin'
p3865
sa(dp3866
g6
F4.0772589999999997
sg7
S'5270'
p3867
sg9
S'5_noplate.jpg.bin'
p3868
sa(dp3869
g6
F3.731554
sg7
S'2024'
p3870
sg9
S'17_noplate.jpg.bin'
p3871
sa(dp3872
g6
F3.7150219999999998
sg7
S'7636'
p3873
sg9
S'4_noplate.jpg.bin'
p3874
sa(dp3875
g6
F3.4445570000000001
sg7
S'2570'
p3876
sg9
S'4.jpg.bin'
p3877
sa(dp3878
g6
F3.4227300000000001
sg7
S'4078'
p3879
sg9
S'3_noplate.jpg.bin'
p3880
sa(dp3881
g6
F3.405691
sg7
S'6859'
p3882
sg9
S'1.jpg.bin'
p3883
sa(dp3884
g6
F3.3879739999999998
sg7
S'4889'
p3885
sg9
S'1.jpg.bin'
p3886
sa(dp3887
g6
F2.9388869999999998
sg7
S'3014'
p3888
sg9
S'3_noplate.jpg.bin'
p3889
sa(dp3890
g6
F2.9201839999999999
sg7
S'1117'
p3891
sg9
S'1.jpg.bin'
p3892
sa(dp3893
g6
F2.8441179999999999
sg7
S'1558'
p3894
sg9
S'6_noplate.jpg.bin'
p3895
sasg7
S'70'
p3896
sg9
S'18.jpg.bin'
p3897
sa(dp3898
g3
(lp3899
(dp3900
g6
F9.6899850000000001
sg7
S'6661'
p3901
sg9
S'1_noplate.jpg.bin'
p3902
sa(dp3903
g6
F8.7854600000000005
sg7
S'6'
sg9
S'10.jpg.bin'
p3904
sa(dp3905
g6
F7.7120620000000004
sg7
S'1979'
p3906
sg9
S'4.jpg.bin'
p3907
sa(dp3908
g6
F7.459892
sg7
S'5640'
p3909
sg9
S'3_noplate.jpg.bin'
p3910
sa(dp3911
g6
F5.5693799999999998
sg7
S'3134'
p3912
sg9
S'3_noplate.jpg.bin'
p3913
sa(dp3914
g6
F4.0630189999999997
sg7
S'1446'
p3915
sg9
S'2.jpg.bin'
p3916
sa(dp3917
g6
F3.8668800000000001
sg7
S'1819'
p3918
sg9
S'4_noplate.jpg.bin'
p3919
sa(dp3920
g6
F3.7356639999999999
sg7
S'8309'
p3921
sg9
S'9.jpg.bin'
p3922
sa(dp3923
g6
F2.7564199999999999
sg7
S'5930'
p3924
sg9
S'1_noplate.jpg.bin'
p3925
sa(dp3926
g6
F2.6612969999999998
sg7
S'6748'
p3927
sg9
S'2.jpg.bin'
p3928
sa(dp3929
g6
F2.603926
sg7
S'5866'
p3930
sg9
S'2.jpg.bin'
p3931
sa(dp3932
g6
F2.5402719999999999
sg7
S'4108'
p3933
sg9
S'7_noplate.jpg.bin'
p3934
sa(dp3935
g6
F2.4833789999999998
sg7
S'9804'
p3936
sg9
S'4.jpg.bin'
p3937
sa(dp3938
g6
F2.139116
sg7
S'9744'
p3939
sg9
S'0_noplate.jpg.bin'
p3940
sa(dp3941
g6
F1.220234
sg7
S'1706'
p3942
sg9
S'0.jpg.bin'
p3943
sa(dp3944
g6
F1.1964170000000001
sg7
S'7915'
p3945
sg9
S'3_noplate.jpg.bin'
p3946
sa(dp3947
g6
F1.111032
sg7
S'7822'
p3948
sg9
S'1_noplate.jpg.bin'
p3949
sa(dp3950
g6
F0.73203099999999999
sg7
S'9420'
p3951
sg9
S'13_noplate.jpg.bin'
p3952
sa(dp3953
g6
F0.59298700000000004
sg7
S'1059'
p3954
sg9
S'7.jpg.bin'
p3955
sa(dp3956
g6
F0.59202999999999995
sg7
S'5689'
p3957
sg9
S'2_noplate.jpg.bin'
p3958
sasg7
S'6'
sg9
S'1.jpg.bin'
p3959
sa(dp3960
g3
(lp3961
(dp3962
g6
F7.9736840000000004
sg7
S'51'
p3963
sg9
S'5.jpg.bin'
p3964
sa(dp3965
g6
F5.2320979999999997
sg7
S'7994'
p3966
sg9
S'5.jpg.bin'
p3967
sa(dp3968
g6
F5.0722849999999999
sg7
S'9940'
p3969
sg9
S'5_noplate.jpg.bin'
p3970
sa(dp3971
g6
F4.9655399999999998
sg7
S'7071'
p3972
sg9
S'12_noplate.jpg.bin'
p3973
sa(dp3974
g6
F4.6651340000000001
sg7
S'1087'
p3975
sg9
S'4_noplate.jpg.bin'
p3976
sa(dp3977
g6
F4.6065940000000003
sg7
S'40'
p3978
sg9
S'0_noplate.jpg.bin'
p3979
sa(dp3980
g6
F4.0635199999999996
sg7
S'7889'
p3981
sg9
S'7_noplate.jpg.bin'
p3982
sa(dp3983
g6
F3.9844650000000001
sg7
S'5922'
p3984
sg9
S'4.jpg.bin'
p3985
sa(dp3986
g6
F3.977182
sg7
S'7642'
p3987
sg9
S'3.jpg.bin'
p3988
sa(dp3989
g6
F3.9312879999999999
sg7
S'1015'
p3990
sg9
S'2_noplate.jpg.bin'
p3991
sa(dp3992
g6
F3.9008729999999998
sg7
S'2085'
p3993
sg9
S'6_noplate.jpg.bin'
p3994
sa(dp3995
g6
F3.5793970000000002
sg7
S'7991'
p3996
sg9
S'1_noplate.jpg.bin'
p3997
sa(dp3998
g6
F3.478002
sg7
S'3473'
p3999
sg9
S'4.jpg.bin'
p4000
sa(dp4001
g6
F3.469814
sg7
S'1903'
p4002
sg9
S'2_noplate.jpg.bin'
p4003
sa(dp4004
g6
F3.410806
sg7
S'23'
p4005
sg9
S'5_noplate.jpg.bin'
p4006
sa(dp4007
g6
F3.2932380000000001
sg7
S'4030'
p4008
sg9
S'5.jpg.bin'
p4009
sa(dp4010
g6
F3.270178
sg7
S'3672'
p4011
sg9
S'2.jpg.bin'
p4012
sa(dp4013
g6
F3.2692619999999999
sg7
S'1971'
p4014
sg9
S'0.jpg.bin'
p4015
sa(dp4016
g6
F3.2168290000000002
sg7
S'2713'
p4017
sg9
S'4_noplate.jpg.bin'
p4018
sa(dp4019
g6
F3.1742650000000001
sg7
S'7289'
p4020
sg9
S'2_noplate.jpg.bin'
p4021
sasg7
S'51'
p4022
sg9
S'2.jpg.bin'
p4023
sa(dp4024
g3
(lp4025
(dp4026
g6
F5.9350490000000002
sg7
S'2513'
p4027
sg9
S'1_noplate.jpg.bin'
p4028
sa(dp4029
g6
F5.5251039999999998
sg7
S'6687'
p4030
sg9
S'9.jpg.bin'
p4031
sa(dp4032
g6
F5.2060740000000001
sg7
S'5793'
p4033
sg9
S'1.jpg.bin'
p4034
sa(dp4035
g6
F5.1954440000000002
sg7
S'2806'
p4036
sg9
S'3.jpg.bin'
p4037
sa(dp4038
g6
F4.9608610000000004
sg7
S'9589'
p4039
sg9
S'1.jpg.bin'
p4040
sa(dp4041
g6
F4.4397409999999997
sg7
S'3006'
p4042
sg9
S'3.jpg.bin'
p4043
sa(dp4044
g6
F4.2593040000000002
sg7
S'3897'
p4045
sg9
S'3.jpg.bin'
p4046
sa(dp4047
g6
F4.2148700000000003
sg7
S'8460'
p4048
sg9
S'5.jpg.bin'
p4049
sa(dp4050
g6
F3.7294520000000002
sg7
S'23'
p4051
sg9
S'5_noplate.jpg.bin'
p4052
sa(dp4053
g6
F3.145073
sg7
S'5863'
p4054
sg9
S'4_noplate.jpg.bin'
p4055
sa(dp4056
g6
F3.0120550000000001
sg7
S'3396'
p4057
sg9
S'2.jpg.bin'
p4058
sa(dp4059
g6
F2.809307
sg7
S'7727'
p4060
sg9
S'2.jpg.bin'
p4061
sa(dp4062
g6
F2.7034590000000001
sg7
S'7948'
p4063
sg9
S'6_noplate.jpg.bin'
p4064
sa(dp4065
g6
F2.6584319999999999
sg7
S'1016'
p4066
sg9
S'2_noplate.jpg.bin'
p4067
sa(dp4068
g6
F2.2789329999999999
sg7
S'476'
p4069
sg9
S'2.jpg.bin'
p4070
sa(dp4071
g6
F1.9012640000000001
sg7
S'8986'
p4072
sg9
S'6.jpg.bin'
p4073
sa(dp4074
g6
F1.840792
sg7
S'4360'
p4075
sg9
S'2_noplate.jpg.bin'
p4076
sa(dp4077
g6
F1.8065370000000001
sg7
S'1839'
p4078
sg9
S'5.jpg.bin'
p4079
sa(dp4080
g6
F1.7804580000000001
sg7
S'7006'
p4081
sg9
S'1.jpg.bin'
p4082
sa(dp4083
g6
F1.704339
sg7
S'3779'
p4084
sg9
S'2.jpg.bin'
p4085
sasg7
S'23'
p4086
sg9
S'2_noplate.jpg.bin'
p4087
sa(dp4088
g3
(lp4089
(dp4090
g6
F6.4348280000000004
sg7
S'8578'
p4091
sg9
S'3.jpg.bin'
p4092
sa(dp4093
g6
F5.8548770000000001
sg7
S'30'
p4094
sg9
S'2_noplate.jpg.bin'
p4095
sa(dp4096
g6
F5.520721
sg7
S'4869'
p4097
sg9
S'2_noplate.jpg.bin'
p4098
sa(dp4099
g6
F5.4127409999999996
sg7
S'5221'
p4100
sg9
S'3_noplate.jpg.bin'
p4101
sa(dp4102
g6
F5.3486820000000002
sg7
S'4396'
p4103
sg9
S'0_noplate.jpg.bin'
p4104
sa(dp4105
g6
F5.2752910000000002
sg7
S'502'
p4106
sg9
S'5.jpg.bin'
p4107
sa(dp4108
g6
F5.1471859999999996
sg7
S'3923'
p4109
sg9
S'1_noplate.jpg.bin'
p4110
sa(dp4111
g6
F5.0792099999999998
sg7
S'5398'
p4112
sg9
S'0_noplate.jpg.bin'
p4113
sa(dp4114
g6
F5.0743619999999998
sg7
S'7236'
p4115
sg9
S'4.jpg.bin'
p4116
sa(dp4117
g6
F4.7866460000000002
sg7
S'7134'
p4118
sg9
S'5_noplate.jpg.bin'
p4119
sa(dp4120
g6
F4.6342509999999999
sg7
S'9155'
p4121
sg9
S'2.jpg.bin'
p4122
sa(dp4123
g6
F4.5390470000000001
sg7
S'7361'
p4124
sg9
S'1.jpg.bin'
p4125
sa(dp4126
g6
F4.5259840000000002
sg7
S'8197'
p4127
sg9
S'5.jpg.bin'
p4128
sa(dp4129
g6
F4.4801479999999998
sg7
S'8372'
p4130
sg9
S'3_noplate.jpg.bin'
p4131
sa(dp4132
g6
F4.1279349999999999
sg7
S'3446'
p4133
sg9
S'1.jpg.bin'
p4134
sa(dp4135
g6
F4.0370749999999997
sg7
S'7960'
p4136
sg9
S'1_noplate.jpg.bin'
p4137
sa(dp4138
g6
F3.9226459999999999
sg7
S'1820'
p4139
sg9
S'3_noplate.jpg.bin'
p4140
sa(dp4141
g6
F3.9211119999999999
sg7
S'7491'
p4142
sg9
S'0_noplate.jpg.bin'
p4143
sa(dp4144
g6
F3.8977029999999999
sg7
S'5122'
p4145
sg9
S'1_noplate.jpg.bin'
p4146
sa(dp4147
g6
F3.6858270000000002
sg7
S'7133'
p4148
sg9
S'4_noplate.jpg.bin'
p4149
sasg7
S'30'
p4150
sg9
S'3_noplate.jpg.bin'
p4151
sa(dp4152
g3
(lp4153
(dp4154
g6
F7.833672
sg7
S'8201'
p4155
sg9
S'2_noplate.jpg.bin'
p4156
sa(dp4157
g6
F7.2976219999999996
sg7
S'1706'
p4158
sg9
S'0.jpg.bin'
p4159
sa(dp4160
g6
F7.0748100000000003
sg7
S'8453'
p4161
sg9
S'5.jpg.bin'
p4162
sa(dp4163
g6
F6.4407220000000001
sg7
S'32'
p4164
sg9
S'2.jpg.bin'
p4165
sa(dp4166
g6
F6.4306299999999998
sg7
S'9804'
p4167
sg9
S'4.jpg.bin'
p4168
sa(dp4169
g6
F6.091513
sg7
S'4108'
p4170
sg9
S'7_noplate.jpg.bin'
p4171
sa(dp4172
g6
F5.2690659999999996
sg7
S'3657'
p4173
sg9
S'5.jpg.bin'
p4174
sa(dp4175
g6
F4.6760999999999999
sg7
S'2570'
p4176
sg9
S'4.jpg.bin'
p4177
sa(dp4178
g6
F4.4484519999999996
sg7
S'1943'
p4179
sg9
S'4.jpg.bin'
p4180
sa(dp4181
g6
F4.0119740000000004
sg7
S'3329'
p4182
sg9
S'0.jpg.bin'
p4183
sa(dp4184
g6
F3.861828
sg7
S'7972'
p4185
sg9
S'3.jpg.bin'
p4186
sa(dp4187
g6
F3.7363550000000001
sg7
S'263'
p4188
sg9
S'2_noplate.jpg.bin'
p4189
sa(dp4190
g6
F3.1162969999999999
sg7
S'503'
p4191
sg9
S'5_noplate.jpg.bin'
p4192
sa(dp4193
g6
F3.0013450000000002
sg7
S'870'
p4194
sg9
S'2_noplate.jpg.bin'
p4195
sa(dp4196
g6
F2.7180900000000001
sg7
S'7474'
p4197
sg9
S'7.jpg.bin'
p4198
sa(dp4199
g6
F2.6409929999999999
sg7
S'1365'
p4200
sg9
S'3_noplate.jpg.bin'
p4201
sa(dp4202
g6
F2.3250160000000002
sg7
S'3130'
p4203
sg9
S'10.jpg.bin'
p4204
sa(dp4205
g6
F2.2175919999999998
sg7
S'3795'
p4206
sg9
S'3.jpg.bin'
p4207
sa(dp4208
g6
F2.0740829999999999
sg7
S'3402'
p4209
sg9
S'14_noplate.jpg.bin'
p4210
sa(dp4211
g6
F1.975063
sg7
S'3267'
p4212
sg9
S'2.jpg.bin'
p4213
sasg7
S'32'
p4214
sg9
S'6.jpg.bin'
p4215
sa(dp4216
g3
(lp4217
(dp4218
g6
F11.500496
sg7
S'8768'
p4219
sg9
S'1.jpg.bin'
p4220
sa(dp4221
g6
F10.691456000000001
sg7
S'4763'
p4222
sg9
S'4_noplate.jpg.bin'
p4223
sa(dp4224
g6
F10.671082
sg7
S'1403'
p4225
sg9
S'0_noplate.jpg.bin'
p4226
sa(dp4227
g6
F10.358904000000001
sg7
S'5134'
p4228
sg9
S'3_noplate.jpg.bin'
p4229
sa(dp4230
g6
F10.341972
sg7
S'4409'
p4231
sg9
S'0.jpg.bin'
p4232
sa(dp4233
g6
F10.335692999999999
sg7
S'7432'
p4234
sg9
S'2_noplate.jpg.bin'
p4235
sa(dp4236
g6
F9.1890280000000004
sg7
S'3718'
p4237
sg9
S'6.jpg.bin'
p4238
sa(dp4239
g6
F9.1531520000000004
sg7
S'815'
p4240
sg9
S'6_noplate.jpg.bin'
p4241
sa(dp4242
g6
F9.1330489999999998
sg7
S'9540'
p4243
sg9
S'4.jpg.bin'
p4244
sa(dp4245
g6
F9.0531710000000007
sg7
S'9825'
p4246
sg9
S'4_noplate.jpg.bin'
p4247
sa(dp4248
g6
F8.8752940000000002
sg7
S'8478'
p4249
sg9
S'3.jpg.bin'
p4250
sa(dp4251
g6
F8.7550640000000008
sg7
S'7779'
p4252
sg9
S'3.jpg.bin'
p4253
sa(dp4254
g6
F8.7236159999999998
sg7
S'728'
p4255
sg9
S'6_noplate.jpg.bin'
p4256
sa(dp4257
g6
F8.6180950000000003
sg7
S'5954'
p4258
sg9
S'5.jpg.bin'
p4259
sa(dp4260
g6
F8.5942080000000001
sg7
S'1771'
p4261
sg9
S'5_noplate.jpg.bin'
p4262
sa(dp4263
g6
F8.5285720000000005
sg7
S'5643'
p4264
sg9
S'2_noplate.jpg.bin'
p4265
sa(dp4266
g6
F8.4045679999999994
sg7
S'9145'
p4267
sg9
S'6_noplate.jpg.bin'
p4268
sa(dp4269
g6
F8.3703819999999993
sg7
S'5938'
p4270
sg9
S'1_noplate.jpg.bin'
p4271
sa(dp4272
g6
F8.3136159999999997
sg7
S'1932'
p4273
sg9
S'9_noplate.jpg.bin'
p4274
sa(dp4275
g6
F8.2444100000000002
sg7
S'383'
p4276
sg9
S'5_noplate.jpg.bin'
p4277
sasg7
S'14'
p4278
sg9
S'6_noplate.jpg.bin'
p4279
sa(dp4280
g3
(lp4281
(dp4282
g6
F10.739338
sg7
S'6841'
p4283
sg9
S'1_noplate.jpg.bin'
p4284
sa(dp4285
g6
F9.3921279999999996
sg7
S'7444'
p4286
sg9
S'9.jpg.bin'
p4287
sa(dp4288
g6
F9.163843
sg7
S'5816'
p4289
sg9
S'11.jpg.bin'
p4290
sa(dp4291
g6
F8.1161919999999999
sg7
S'1093'
p4292
sg9
S'0_noplate.jpg.bin'
p4293
sa(dp4294
g6
F7.4448359999999996
sg7
S'44'
p4295
sg9
S'1.jpg.bin'
p4296
sa(dp4297
g6
F7.1504950000000003
sg7
S'5926'
p4298
sg9
S'3_noplate.jpg.bin'
p4299
sa(dp4300
g6
F6.9603029999999997
sg7
S'9516'
p4301
sg9
S'13_noplate.jpg.bin'
p4302
sa(dp4303
g6
F6.230429
sg7
S'963'
p4304
sg9
S'2_noplate.jpg.bin'
p4305
sa(dp4306
g6
F4.6794929999999999
sg7
S'6164'
p4307
sg9
S'5_noplate.jpg.bin'
p4308
sa(dp4309
g6
F4.0189089999999998
sg7
S'4876'
p4310
sg9
S'0.jpg.bin'
p4311
sa(dp4312
g6
F3.906981
sg7
S'2593'
p4313
sg9
S'5_noplate.jpg.bin'
p4314
sa(dp4315
g6
F3.5705589999999998
sg7
S'1910'
p4316
sg9
S'7.jpg.bin'
p4317
sa(dp4318
g6
F3.4208240000000001
sg7
S'5404'
p4319
sg9
S'3.jpg.bin'
p4320
sa(dp4321
g6
F3.3450639999999998
sg7
S'1168'
p4322
sg9
S'1_noplate.jpg.bin'
p4323
sa(dp4324
g6
F3.3343240000000001
sg7
S'7191'
p4325
sg9
S'1_noplate.jpg.bin'
p4326
sa(dp4327
g6
F3.1742650000000001
sg7
S'1330'
p4328
sg9
S'1.jpg.bin'
p4329
sa(dp4330
g6
F3.0104600000000001
sg7
S'6123'
p4331
sg9
S'0_noplate.jpg.bin'
p4332
sa(dp4333
g6
F2.50379
sg7
S'821'
p4334
sg9
S'2.jpg.bin'
p4335
sa(dp4336
g6
F2.502005
sg7
S'145'
p4337
sg9
S'3_noplate.jpg.bin'
p4338
sa(dp4339
g6
F2.4383789999999999
sg7
S'7381'
p4340
sg9
S'1_noplate.jpg.bin'
p4341
sasg7
S'44'
p4342
sg9
S'3.jpg.bin'
p4343
sa(dp4344
g3
(lp4345
(dp4346
g6
F6.8895600000000004
sg7
S'29'
p4347
sg9
S'3_noplate.jpg.bin'
p4348
sa(dp4349
g6
F6.2693810000000001
sg7
S'5808'
p4350
sg9
S'3.jpg.bin'
p4351
sa(dp4352
g6
F6.1144809999999996
sg7
S'6003'
p4353
sg9
S'0_noplate.jpg.bin'
p4354
sa(dp4355
g6
F5.629257
sg7
S'3148'
p4356
sg9
S'1.jpg.bin'
p4357
sa(dp4358
g6
F5.4070320000000001
sg7
S'8730'
p4359
sg9
S'4_noplate.jpg.bin'
p4360
sa(dp4361
g6
F5.187138
sg7
S'5160'
p4362
sg9
S'2.jpg.bin'
p4363
sa(dp4364
g6
F5.1563169999999996
sg7
S'7307'
p4365
sg9
S'1_noplate.jpg.bin'
p4366
sa(dp4367
g6
F5.1145500000000004
sg7
S'2689'
p4368
sg9
S'4_noplate.jpg.bin'
p4369
sa(dp4370
g6
F5.0084150000000003
sg7
S'9313'
p4371
sg9
S'1.jpg.bin'
p4372
sa(dp4373
g6
F4.9405859999999997
sg7
S'2688'
p4374
sg9
S'3_noplate.jpg.bin'
p4375
sa(dp4376
g6
F4.8356380000000003
sg7
S'3176'
p4377
sg9
S'4_noplate.jpg.bin'
p4378
sa(dp4379
g6
F4.7108670000000004
sg7
S'2641'
p4380
sg9
S'1_noplate.jpg.bin'
p4381
sa(dp4382
g6
F4.63706
sg7
S'398'
p4383
sg9
S'0_noplate.jpg.bin'
p4384
sa(dp4385
g6
F4.6018869999999996
sg7
S'211'
p4386
sg9
S'10.jpg.bin'
p4387
sa(dp4388
g6
F4.5125270000000004
sg7
S'6035'
p4389
sg9
S'2.jpg.bin'
p4390
sa(dp4391
g6
F4.453068
sg7
S'4801'
p4392
sg9
S'7.jpg.bin'
p4393
sa(dp4394
g6
F4.2428229999999996
sg7
S'63'
p4395
sg9
S'4.jpg.bin'
p4396
sa(dp4397
g6
F4.2153
sg7
S'3200'
p4398
sg9
S'0_noplate.jpg.bin'
p4399
sa(dp4400
g6
F4.1670680000000004
sg7
S'4964'
p4401
sg9
S'9_noplate.jpg.bin'
p4402
sa(dp4403
g6
F4.1180260000000004
sg7
S'3069'
p4404
sg9
S'2_noplate.jpg.bin'
p4405
sasg7
S'29'
p4406
sg9
S'2.jpg.bin'
p4407
sa(dp4408
g3
(lp4409
(dp4410
g6
F11.588464999999999
sg7
S'76'
p4411
sg9
S'1.jpg.bin'
p4412
sa(dp4413
g6
F7.6018720000000002
sg7
S'7624'
p4414
sg9
S'3_noplate.jpg.bin'
p4415
sa(dp4416
g6
F5.9846899999999996
sg7
S'5479'
p4417
sg9
S'8.jpg.bin'
p4418
sa(dp4419
g6
F4.1907750000000004
sg7
S'4943'
p4420
sg9
S'2.jpg.bin'
p4421
sa(dp4422
g6
F3.4896739999999999
sg7
S'8838'
p4423
sg9
S'6.jpg.bin'
p4424
sa(dp4425
g6
F3.096209
sg7
S'7121'
p4426
sg9
S'5_noplate.jpg.bin'
p4427
sa(dp4428
g6
F3.0476070000000002
sg7
S'5739'
p4429
sg9
S'0_noplate.jpg.bin'
p4430
sa(dp4431
g6
F3.0216029999999998
sg7
S'5158'
p4432
sg9
S'2.jpg.bin'
p4433
sa(dp4434
g6
F2.2650549999999998
sg7
S'6413'
p4435
sg9
S'0_noplate.jpg.bin'
p4436
sa(dp4437
g6
F2.196205
sg7
S'616'
p4438
sg9
S'0_noplate.jpg.bin'
p4439
sa(dp4440
g6
F2.1402549999999998
sg7
S'7498'
p4441
sg9
S'0_noplate.jpg.bin'
p4442
sa(dp4443
g6
F1.7598130000000001
sg7
S'8442'
p4444
sg9
S'2_noplate.jpg.bin'
p4445
sa(dp4446
g6
F1.7256279999999999
sg7
S'4814'
p4447
sg9
S'4.jpg.bin'
p4448
sa(dp4449
g6
F1.690685
sg7
S'7316'
p4450
sg9
S'2_noplate.jpg.bin'
p4451
sa(dp4452
g6
F1.661154
sg7
S'8274'
p4453
sg9
S'3_noplate.jpg.bin'
p4454
sa(dp4455
g6
F1.636639
sg7
S'1661'
p4456
sg9
S'3_noplate.jpg.bin'
p4457
sa(dp4458
g6
F1.6085259999999999
sg7
S'8852'
p4459
sg9
S'8.jpg.bin'
p4460
sa(dp4461
g6
F1.5983510000000001
sg7
S'1578'
p4462
sg9
S'4.jpg.bin'
p4463
sa(dp4464
g6
F1.5575939999999999
sg7
S'2217'
p4465
sg9
S'3.jpg.bin'
p4466
sa(dp4467
g6
F1.539865
sg7
S'1008'
p4468
sg9
S'4_noplate.jpg.bin'
p4469
sasg7
S'76'
p4470
sg9
S'2_noplate.jpg.bin'
p4471
sa(dp4472
g3
(lp4473
(dp4474
g6
F12.065391999999999
sg7
S'49'
p4475
sg9
S'7_noplate.jpg.bin'
p4476
sa(dp4477
g6
F8.4438230000000001
sg7
S'300'
p4478
sg9
S'2_noplate.jpg.bin'
p4479
sa(dp4480
g6
F7.5407510000000002
sg7
S'5579'
p4481
sg9
S'2_noplate.jpg.bin'
p4482
sa(dp4483
g6
F6.2029300000000003
sg7
S'488'
p4484
sg9
S'0.jpg.bin'
p4485
sa(dp4486
g6
F5.8693220000000004
sg7
S'8205'
p4487
sg9
S'4_noplate.jpg.bin'
p4488
sa(dp4489
g6
F5.6953069999999997
sg7
S'6936'
p4490
sg9
S'108_noplate.jpg.bin'
p4491
sa(dp4492
g6
F5.5309929999999996
sg7
S'3881'
p4493
sg9
S'5.jpg.bin'
p4494
sa(dp4495
g6
F5.3781990000000004
sg7
S'2917'
p4496
sg9
S'1.jpg.bin'
p4497
sa(dp4498
g6
F5.3661500000000002
sg7
S'9766'
p4499
sg9
S'2_noplate.jpg.bin'
p4500
sa(dp4501
g6
F5.3420050000000003
sg7
S'288'
p4502
sg9
S'15_noplate.jpg.bin'
p4503
sa(dp4504
g6
F5.3146019999999998
sg7
S'6233'
p4505
sg9
S'0_noplate.jpg.bin'
p4506
sa(dp4507
g6
F5.2691990000000004
sg7
S'6239'
p4508
sg9
S'2_noplate.jpg.bin'
p4509
sa(dp4510
g6
F5.2395630000000004
sg7
S'1408'
p4511
sg9
S'1.jpg.bin'
p4512
sa(dp4513
g6
F5.164085
sg7
S'8090'
p4514
sg9
S'8.jpg.bin'
p4515
sa(dp4516
g6
F5.1384410000000003
sg7
S'1525'
p4517
sg9
S'158_noplate.jpg.bin'
p4518
sa(dp4519
g6
F4.9845119999999996
sg7
S'3484'
p4520
sg9
S'6_noplate.jpg.bin'
p4521
sa(dp4522
g6
F4.9723050000000004
sg7
S'2867'
p4523
sg9
S'0.jpg.bin'
p4524
sa(dp4525
g6
F4.7857799999999999
sg7
S'420'
p4526
sg9
S'0.jpg.bin'
p4527
sa(dp4528
g6
F4.5150410000000001
sg7
S'9954'
p4529
sg9
S'130.jpg.bin'
p4530
sa(dp4531
g6
F4.4289399999999999
sg7
S'5464'
p4532
sg9
S'5.jpg.bin'
p4533
sasg7
S'49'
p4534
sg9
S'1.jpg.bin'
p4535
sa(dp4536
g3
(lp4537
(dp4538
g6
F12.837975999999999
sg7
S'21'
p4539
sg9
S'5.jpg.bin'
p4540
sa(dp4541
g6
F8.3684270000000005
sg7
S'245'
p4542
sg9
S'12.jpg.bin'
p4543
sa(dp4544
g6
F7.0350739999999998
sg7
S'288'
p4545
sg9
S'15_noplate.jpg.bin'
p4546
sa(dp4547
g6
F6.7182539999999999
sg7
S'9462'
p4548
sg9
S'5.jpg.bin'
p4549
sa(dp4550
g6
F6.1469969999999998
sg7
S'8570'
p4551
sg9
S'0_noplate.jpg.bin'
p4552
sa(dp4553
g6
F4.7309669999999997
sg7
S'682'
p4554
sg9
S'7.jpg.bin'
p4555
sa(dp4556
g6
F4.2917880000000004
sg7
S'49'
p4557
sg9
S'7_noplate.jpg.bin'
p4558
sa(dp4559
g6
F3.9635579999999999
sg7
S'5604'
p4560
sg9
S'0.jpg.bin'
p4561
sa(dp4562
g6
F3.8457699999999999
sg7
S'1303'
p4563
sg9
S'1.jpg.bin'
p4564
sa(dp4565
g6
F3.7790780000000002
sg7
S'5266'
p4566
sg9
S'20_noplate.jpg.bin'
p4567
sa(dp4568
g6
F3.7470249999999998
sg7
S'8051'
p4569
sg9
S'3_noplate.jpg.bin'
p4570
sa(dp4571
g6
F3.5548730000000002
sg7
S'7542'
p4572
sg9
S'0.jpg.bin'
p4573
sa(dp4574
g6
F3.5428030000000001
sg7
S'4711'
p4575
sg9
S'2_noplate.jpg.bin'
p4576
sa(dp4577
g6
F3.308643
sg7
S'1792'
p4578
sg9
S'3_noplate.jpg.bin'
p4579
sa(dp4580
g6
F3.2474669999999999
sg7
S'7931'
p4581
sg9
S'4_noplate.jpg.bin'
p4582
sa(dp4583
g6
F3.1809270000000001
sg7
S'3753'
p4584
sg9
S'1.jpg.bin'
p4585
sa(dp4586
g6
F3.0288599999999999
sg7
S'3336'
p4587
sg9
S'1_noplate.jpg.bin'
p4588
sa(dp4589
g6
F2.743052
sg7
S'7650'
p4590
sg9
S'2.jpg.bin'
p4591
sa(dp4592
g6
F2.7251989999999999
sg7
S'571'
p4593
sg9
S'0.jpg.bin'
p4594
sa(dp4595
g6
F2.6379069999999998
sg7
S'2005'
p4596
sg9
S'3.jpg.bin'
p4597
sasg7
S'21'
p4598
sg9
S'6_noplate.jpg.bin'
p4599
sa(dp4600
g3
(lp4601
(dp4602
g6
F7.9734420000000004
sg7
S'5538'
p4603
sg9
S'2.jpg.bin'
p4604
sa(dp4605
g6
F7.378654
sg7
S'31'
p4606
sg9
S'6.jpg.bin'
p4607
sa(dp4608
g6
F6.2944789999999999
sg7
S'9838'
p4609
sg9
S'2.jpg.bin'
p4610
sa(dp4611
g6
F5.3865410000000002
sg7
S'7006'
p4612
sg9
S'1.jpg.bin'
p4613
sa(dp4614
g6
F5.2223930000000003
sg7
S'8985'
p4615
sg9
S'2_noplate.jpg.bin'
p4616
sa(dp4617
g6
F4.819248
sg7
S'458'
p4618
sg9
S'4_noplate.jpg.bin'
p4619
sa(dp4620
g6
F4.7994770000000004
sg7
S'7462'
p4621
sg9
S'1_noplate.jpg.bin'
p4622
sa(dp4623
g6
F4.2662940000000003
sg7
S'1087'
p4624
sg9
S'4_noplate.jpg.bin'
p4625
sa(dp4626
g6
F3.9383509999999999
sg7
S'3518'
p4627
sg9
S'2.jpg.bin'
p4628
sa(dp4629
g6
F3.6036869999999999
sg7
S'1040'
p4630
sg9
S'5.jpg.bin'
p4631
sa(dp4632
g6
F3.4998469999999999
sg7
S'952'
p4633
sg9
S'3.jpg.bin'
p4634
sa(dp4635
g6
F3.2004800000000002
sg7
S'3197'
p4636
sg9
S'6_noplate.jpg.bin'
p4637
sa(dp4638
g6
F3.1408079999999998
sg7
S'4470'
p4639
sg9
S'4_noplate.jpg.bin'
p4640
sa(dp4641
g6
F3.0335350000000001
sg7
S'3356'
p4642
sg9
S'1_noplate.jpg.bin'
p4643
sa(dp4644
g6
F2.9788589999999999
sg7
S'8510'
p4645
sg9
S'4_noplate.jpg.bin'
p4646
sa(dp4647
g6
F2.8934310000000001
sg7
S'4406'
p4648
sg9
S'2_noplate.jpg.bin'
p4649
sa(dp4650
g6
F2.8335080000000001
sg7
S'5054'
p4651
sg9
S'4.jpg.bin'
p4652
sa(dp4653
g6
F2.6863670000000002
sg7
S'9730'
p4654
sg9
S'5.jpg.bin'
p4655
sa(dp4656
g6
F2.5302600000000002
sg7
S'5638'
p4657
sg9
S'4.jpg.bin'
p4658
sa(dp4659
g6
F2.4341889999999999
sg7
S'1478'
p4660
sg9
S'4_noplate.jpg.bin'
p4661
sasg7
S'31'
p4662
sg9
S'5.jpg.bin'
p4663
sa(dp4664
g3
(lp4665
(dp4666
g6
F10.560915
sg7
S'83'
p4667
sg9
S'3_noplate.jpg.bin'
p4668
sa(dp4669
g6
F9.3958049999999993
sg7
S'7329'
p4670
sg9
S'1_noplate.jpg.bin'
p4671
sa(dp4672
g6
F4.9888500000000002
sg7
S'829'
p4673
sg9
S'5_noplate.jpg.bin'
p4674
sa(dp4675
g6
F4.0960239999999999
sg7
S'7386'
p4676
sg9
S'2.jpg.bin'
p4677
sa(dp4678
g6
F3.1099589999999999
sg7
S'8079'
p4679
sg9
S'0_noplate.jpg.bin'
p4680
sa(dp4681
g6
F3.0036260000000001
sg7
S'9689'
p4682
sg9
S'3_noplate.jpg.bin'
p4683
sa(dp4684
g6
F2.9509349999999999
sg7
S'6236'
p4685
sg9
S'1.jpg.bin'
p4686
sa(dp4687
g6
F2.8873350000000002
sg7
S'6033'
p4688
sg9
S'4.jpg.bin'
p4689
sa(dp4690
g6
F2.6418900000000001
sg7
S'422'
p4691
sg9
S'2_noplate.jpg.bin'
p4692
sa(dp4693
g6
F2.6137700000000001
sg7
S'3473'
p4694
sg9
S'4.jpg.bin'
p4695
sa(dp4696
g6
F2.461246
sg7
S'9921'
p4697
sg9
S'0.jpg.bin'
p4698
sa(dp4699
g6
F2.183735
sg7
S'9169'
p4700
sg9
S'4.jpg.bin'
p4701
sa(dp4702
g6
F2.0949499999999999
sg7
S'1642'
p4703
sg9
S'1.jpg.bin'
p4704
sa(dp4705
g6
F2.046837
sg7
S'7224'
p4706
sg9
S'3.jpg.bin'
p4707
sa(dp4708
g6
F1.8621080000000001
sg7
S'2637'
p4709
sg9
S'3_noplate.jpg.bin'
p4710
sa(dp4711
g6
F1.8239080000000001
sg7
S'9396'
p4712
sg9
S'5_noplate.jpg.bin'
p4713
sa(dp4714
g6
F1.656361
sg7
S'2085'
p4715
sg9
S'6_noplate.jpg.bin'
p4716
sa(dp4717
g6
F1.5581609999999999
sg7
S'4276'
p4718
sg9
S'0.jpg.bin'
p4719
sa(dp4720
g6
F1.2973790000000001
sg7
S'6882'
p4721
sg9
S'0_noplate.jpg.bin'
p4722
sa(dp4723
g6
F1.079855
sg7
S'1387'
p4724
sg9
S'2_noplate.jpg.bin'
p4725
sasg7
S'83'
p4726
sg9
S'2_noplate.jpg.bin'
p4727
sa(dp4728
g3
(lp4729
(dp4730
g6
F10.201534000000001
sg7
S'71'
p4731
sg9
S'2_noplate.jpg.bin'
p4732
sa(dp4733
g6
F7.7141390000000003
sg7
S'9002'
p4734
sg9
S'0_noplate.jpg.bin'
p4735
sa(dp4736
g6
F5.9192960000000001
sg7
S'5211'
p4737
sg9
S'2_noplate.jpg.bin'
p4738
sa(dp4739
g6
F5.648212
sg7
S'6792'
p4740
sg9
S'0_noplate.jpg.bin'
p4741
sa(dp4742
g6
F5.1145949999999996
sg7
S'9819'
p4743
sg9
S'2_noplate.jpg.bin'
p4744
sa(dp4745
g6
F4.5693970000000004
sg7
S'3210'
p4746
sg9
S'1.jpg.bin'
p4747
sa(dp4748
g6
F4.0777650000000003
sg7
S'1969'
p4749
sg9
S'7_noplate.jpg.bin'
p4750
sa(dp4751
g6
F3.9792689999999999
sg7
S'8222'
p4752
sg9
S'1_noplate.jpg.bin'
p4753
sa(dp4754
g6
F3.7926500000000001
sg7
S'5063'
p4755
sg9
S'0.jpg.bin'
p4756
sa(dp4757
g6
F3.747417
sg7
S'4487'
p4758
sg9
S'0.jpg.bin'
p4759
sa(dp4760
g6
F3.5415130000000001
sg7
S'555'
p4761
sg9
S'3_noplate.jpg.bin'
p4762
sa(dp4763
g6
F3.498678
sg7
S'7799'
p4764
sg9
S'7.jpg.bin'
p4765
sa(dp4766
g6
F2.9226930000000002
sg7
S'1931'
p4767
sg9
S'2_noplate.jpg.bin'
p4768
sa(dp4769
g6
F2.8078099999999999
sg7
S'5312'
p4770
sg9
S'1_noplate.jpg.bin'
p4771
sa(dp4772
g6
F2.7165680000000001
sg7
S'2289'
p4773
sg9
S'2_noplate.jpg.bin'
p4774
sa(dp4775
g6
F2.5661830000000001
sg7
S'4341'
p4776
sg9
S'3.jpg.bin'
p4777
sa(dp4778
g6
F2.5581299999999998
sg7
S'8815'
p4779
sg9
S'2_noplate.jpg.bin'
p4780
sa(dp4781
g6
F2.4939330000000002
sg7
S'3147'
p4782
sg9
S'5_noplate.jpg.bin'
p4783
sa(dp4784
g6
F2.2895159999999999
sg7
S'3937'
p4785
sg9
S'8_noplate.jpg.bin'
p4786
sa(dp4787
g6
F2.2855629999999998
sg7
S'7744'
p4788
sg9
S'8_noplate.jpg.bin'
p4789
sasg7
S'71'
p4790
sg9
S'10.jpg.bin'
p4791
sa(dp4792
g3
(lp4793
(dp4794
g6
F11.336379000000001
sg7
S'4920'
p4795
sg9
S'3_noplate.jpg.bin'
p4796
sa(dp4797
g6
F11.226887
sg7
S'4407'
p4798
sg9
S'5_noplate.jpg.bin'
p4799
sa(dp4800
g6
F10.606961999999999
sg7
S'5098'
p4801
sg9
S'4.jpg.bin'
p4802
sa(dp4803
g6
F10.453106
sg7
S'483'
p4804
sg9
S'1_noplate.jpg.bin'
p4805
sa(dp4806
g6
F10.177574
sg7
S'1377'
p4807
sg9
S'4.jpg.bin'
p4808
sa(dp4809
g6
F9.8525639999999992
sg7
S'8061'
p4810
sg9
S'2_noplate.jpg.bin'
p4811
sa(dp4812
g6
F9.4818879999999996
sg7
S'3468'
p4813
sg9
S'16.jpg.bin'
p4814
sa(dp4815
g6
F9.0130979999999994
sg7
S'2185'
p4816
sg9
S'3_noplate.jpg.bin'
p4817
sa(dp4818
g6
F8.7209280000000007
sg7
S'17'
p4819
sg9
S'2_noplate.jpg.bin'
p4820
sa(dp4821
g6
F8.6696489999999997
sg7
S'8739'
p4822
sg9
S'3.jpg.bin'
p4823
sa(dp4824
g6
F8.3515890000000006
sg7
S'1774'
p4825
sg9
S'0.jpg.bin'
p4826
sa(dp4827
g6
F8.3370320000000007
sg7
S'9037'
p4828
sg9
S'1_noplate.jpg.bin'
p4829
sa(dp4830
g6
F8.2654840000000007
sg7
S'7321'
p4831
sg9
S'3.jpg.bin'
p4832
sa(dp4833
g6
F8.1086849999999995
sg7
S'5169'
p4834
sg9
S'3.jpg.bin'
p4835
sa(dp4836
g6
F7.8403710000000002
sg7
S'3873'
p4837
sg9
S'5_noplate.jpg.bin'
p4838
sa(dp4839
g6
F7.738054
sg7
S'7365'
p4840
sg9
S'1.jpg.bin'
p4841
sa(dp4842
g6
F7.4209250000000004
sg7
S'6341'
p4843
sg9
S'0_noplate.jpg.bin'
p4844
sa(dp4845
g6
F7.3197320000000001
sg7
S'4362'
p4846
sg9
S'8_noplate.jpg.bin'
p4847
sa(dp4848
g6
F7.1470229999999999
sg7
S'109'
p4849
sg9
S'4_noplate.jpg.bin'
p4850
sa(dp4851
g6
F6.7573280000000002
sg7
S'6198'
p4852
sg9
S'4.jpg.bin'
p4853
sasg7
S'17'
p4854
sg9
S'0.jpg.bin'
p4855
sa(dp4856
g3
(lp4857
(dp4858
g6
F9.4857139999999998
sg7
S'3'
sg9
S'1_noplate.jpg.bin'
p4859
sa(dp4860
g6
F9.4691369999999999
sg7
S'5260'
p4861
sg9
S'3.jpg.bin'
p4862
sa(dp4863
g6
F8.8226030000000009
sg7
S'6062'
p4864
sg9
S'1_noplate.jpg.bin'
p4865
sa(dp4866
g6
F7.3472299999999997
sg7
S'839'
p4867
sg9
S'3_noplate.jpg.bin'
p4868
sa(dp4869
g6
F6.8522980000000002
sg7
S'1977'
p4870
sg9
S'5.jpg.bin'
p4871
sa(dp4872
g6
F6.1757049999999998
sg7
S'4343'
p4873
sg9
S'2.jpg.bin'
p4874
sa(dp4875
g6
F5.4964750000000002
sg7
S'1445'
p4876
sg9
S'6.jpg.bin'
p4877
sa(dp4878
g6
F4.887365
sg7
S'9810'
p4879
sg9
S'1.jpg.bin'
p4880
sa(dp4881
g6
F4.8014349999999997
sg7
S'7435'
p4882
sg9
S'8.jpg.bin'
p4883
sa(dp4884
g6
F4.752599
sg7
S'1443'
p4885
sg9
S'0_noplate.jpg.bin'
p4886
sa(dp4887
g6
F4.6680729999999997
sg7
S'8475'
p4888
sg9
S'0.jpg.bin'
p4889
sa(dp4890
g6
F4.5843119999999997
sg7
S'8052'
p4891
sg9
S'1.jpg.bin'
p4892
sa(dp4893
g6
F4.3802640000000004
sg7
S'8190'
p4894
sg9
S'2.jpg.bin'
p4895
sa(dp4896
g6
F4.1767019999999997
sg7
S'9612'
p4897
sg9
S'1.jpg.bin'
p4898
sa(dp4899
g6
F4.0990219999999997
sg7
S'2841'
p4900
sg9
S'3.jpg.bin'
p4901
sa(dp4902
g6
F4.0295540000000001
sg7
S'3147'
p4903
sg9
S'5_noplate.jpg.bin'
p4904
sa(dp4905
g6
F3.678947
sg7
S'2253'
p4906
sg9
S'1_noplate.jpg.bin'
p4907
sa(dp4908
g6
F3.6666259999999999
sg7
S'1499'
p4909
sg9
S'1_noplate.jpg.bin'
p4910
sa(dp4911
g6
F3.5823209999999999
sg7
S'7833'
p4912
sg9
S'3.jpg.bin'
p4913
sa(dp4914
g6
F3.568686
sg7
S'2953'
p4915
sg9
S'1_noplate.jpg.bin'
p4916
sasg7
S'3'
sg9
S'4.jpg.bin'
p4917
sa(dp4918
g3
(lp4919
(dp4920
g6
F6.1630609999999999
sg7
S'4458'
p4921
sg9
S'6.jpg.bin'
p4922
sa(dp4923
g6
F5.9815009999999997
sg7
S'3181'
p4924
sg9
S'5.jpg.bin'
p4925
sa(dp4926
g6
F5.7381630000000001
sg7
S'4849'
p4927
sg9
S'2_noplate.jpg.bin'
p4928
sa(dp4929
g6
F5.6060489999999996
sg7
S'9651'
p4930
sg9
S'3.jpg.bin'
p4931
sa(dp4932
g6
F5.2246699999999997
sg7
S'6150'
p4933
sg9
S'11.jpg.bin'
p4934
sa(dp4935
g6
F5.2233700000000001
sg7
S'2761'
p4936
sg9
S'1_noplate.jpg.bin'
p4937
sa(dp4938
g6
F5.141222
sg7
S'3336'
p4939
sg9
S'1_noplate.jpg.bin'
p4940
sa(dp4941
g6
F4.8234769999999996
sg7
S'4755'
p4942
sg9
S'0.jpg.bin'
p4943
sa(dp4944
g6
F4.8192649999999997
sg7
S'6616'
p4945
sg9
S'0.jpg.bin'
p4946
sa(dp4947
g6
F4.7684100000000003
sg7
S'1932'
p4948
sg9
S'9_noplate.jpg.bin'
p4949
sa(dp4950
g6
F4.6274379999999997
sg7
S'2153'
p4951
sg9
S'0.jpg.bin'
p4952
sa(dp4953
g6
F4.3443829999999997
sg7
S'9641'
p4954
sg9
S'4.jpg.bin'
p4955
sa(dp4956
g6
F4.3418770000000002
sg7
S'8570'
p4957
sg9
S'0_noplate.jpg.bin'
p4958
sa(dp4959
g6
F4.311712
sg7
S'7153'
p4960
sg9
S'3_noplate.jpg.bin'
p4961
sa(dp4962
g6
F4.1117480000000004
sg7
S'4254'
p4963
sg9
S'1.jpg.bin'
p4964
sa(dp4965
g6
F3.999479
sg7
S'7990'
p4966
sg9
S'8.jpg.bin'
p4967
sa(dp4968
g6
F3.978783
sg7
S'2655'
p4969
sg9
S'7.jpg.bin'
p4970
sa(dp4971
g6
F3.9575670000000001
sg7
S'7434'
p4972
sg9
S'1_noplate.jpg.bin'
p4973
sa(dp4974
g6
F3.8448929999999999
sg7
S'68'
p4975
sg9
S'0.jpg.bin'
p4976
sa(dp4977
g6
F3.797266
sg7
S'9291'
p4978
sg9
S'5_noplate.jpg.bin'
p4979
sasg7
S'25'
p4980
sg9
S'5_noplate.jpg.bin'
p4981
sa(dp4982
g3
(lp4983
(dp4984
g6
F6.4439640000000002
sg7
S'958'
p4985
sg9
S'17.jpg.bin'
p4986
sa(dp4987
g6
F5.9911839999999996
sg7
S'194'
p4988
sg9
S'5.jpg.bin'
p4989
sa(dp4990
g6
F5.9219970000000002
sg7
S'6823'
p4991
sg9
S'2.jpg.bin'
p4992
sa(dp4993
g6
F4.9696030000000002
sg7
S'3086'
p4994
sg9
S'3_noplate.jpg.bin'
p4995
sa(dp4996
g6
F4.6815639999999998
sg7
S'6309'
p4997
sg9
S'6.jpg.bin'
p4998
sa(dp4999
g6
F4.6438370000000004
sg7
S'3527'
p5000
sg9
S'6_noplate.jpg.bin'
p5001
sa(dp5002
g6
F4.573893
sg7
S'128'
p5003
sg9
S'1_noplate.jpg.bin'
p5004
sa(dp5005
g6
F4.5418450000000004
sg7
S'1233'
p5006
sg9
S'3.jpg.bin'
p5007
sa(dp5008
g6
F4.1190509999999998
sg7
S'7314'
p5009
sg9
S'0.jpg.bin'
p5010
sa(dp5011
g6
F4.0747999999999998
sg7
S'5905'
p5012
sg9
S'7.jpg.bin'
p5013
sa(dp5014
g6
F3.9940509999999998
sg7
S'5730'
p5015
sg9
S'2_noplate.jpg.bin'
p5016
sa(dp5017
g6
F3.5821399999999999
sg7
S'9384'
p5018
sg9
S'3_noplate.jpg.bin'
p5019
sa(dp5020
g6
F3.482615
sg7
S'7228'
p5021
sg9
S'4_noplate.jpg.bin'
p5022
sa(dp5023
g6
F3.43594
sg7
S'2645'
p5024
sg9
S'0.jpg.bin'
p5025
sa(dp5026
g6
F3.0730230000000001
sg7
S'5374'
p5027
sg9
S'1.jpg.bin'
p5028
sa(dp5029
g6
F3.0042300000000002
sg7
S'1582'
p5030
sg9
S'4_noplate.jpg.bin'
p5031
sa(dp5032
g6
F2.7053240000000001
sg7
S'3213'
p5033
sg9
S'3.jpg.bin'
p5034
sa(dp5035
g6
F2.6943450000000002
sg7
S'4544'
p5036
sg9
S'4_noplate.jpg.bin'
p5037
sa(dp5038
g6
F2.6273979999999999
sg7
S'1963'
p5039
sg9
S'7.jpg.bin'
p5040
sa(dp5041
g6
F2.380131
sg7
S'7656'
p5042
sg9
S'3_noplate.jpg.bin'
p5043
sasg7
S'43'
p5044
sg9
S'0.jpg.bin'
p5045
sa(dp5046
g3
(lp5047
(dp5048
g6
F12.933502000000001
sg7
S'66'
p5049
sg9
S'1.jpg.bin'
p5050
sa(dp5051
g6
F9.0343610000000005
sg7
S'6154'
p5052
sg9
S'1.jpg.bin'
p5053
sa(dp5054
g6
F7.8305300000000004
sg7
S'7941'
p5055
sg9
S'3_noplate.jpg.bin'
p5056
sa(dp5057
g6
F7.210934
sg7
S'4641'
p5058
sg9
S'6_noplate.jpg.bin'
p5059
sa(dp5060
g6
F7.011234
sg7
S'8492'
p5061
sg9
S'4.jpg.bin'
p5062
sa(dp5063
g6
F6.843718
sg7
S'6813'
p5064
sg9
S'4_noplate.jpg.bin'
p5065
sa(dp5066
g6
F6.563669
sg7
S'987'
p5067
sg9
S'5_noplate.jpg.bin'
p5068
sa(dp5069
g6
F6.4404339999999998
sg7
S'4602'
p5070
sg9
S'6.jpg.bin'
p5071
sa(dp5072
g6
F4.5285950000000001
sg7
S'9581'
p5073
sg9
S'4.jpg.bin'
p5074
sa(dp5075
g6
F4.5061239999999998
sg7
S'1153'
p5076
sg9
S'2.jpg.bin'
p5077
sa(dp5078
g6
F3.7792720000000002
sg7
S'8988'
p5079
sg9
S'1.jpg.bin'
p5080
sa(dp5081
g6
F3.7217389999999999
sg7
S'9578'
p5082
sg9
S'3.jpg.bin'
p5083
sa(dp5084
g6
F3.6846960000000002
sg7
S'9183'
p5085
sg9
S'2_noplate.jpg.bin'
p5086
sa(dp5087
g6
F3.6160410000000001
sg7
S'3572'
p5088
sg9
S'5.jpg.bin'
p5089
sa(dp5090
g6
F3.4545840000000001
sg7
S'663'
p5091
sg9
S'2.jpg.bin'
p5092
sa(dp5093
g6
F3.3289430000000002
sg7
S'744'
p5094
sg9
S'1.jpg.bin'
p5095
sa(dp5096
g6
F2.75
sg7
S'2836'
p5097
sg9
S'5.jpg.bin'
p5098
sa(dp5099
g6
F2.6802039999999998
sg7
S'7463'
p5100
sg9
S'10.jpg.bin'
p5101
sa(dp5102
g6
F2.645527
sg7
S'2189'
p5103
sg9
S'6_noplate.jpg.bin'
p5104
sa(dp5105
g6
F2.5848900000000001
sg7
S'9262'
p5106
sg9
S'0.jpg.bin'
p5107
sasg7
S'66'
p5108
sg9
S'0_noplate.jpg.bin'
p5109
sa(dp5110
g3
(lp5111
(dp5112
g6
F10.908096
sg7
S'24'
p5113
sg9
S'4.jpg.bin'
p5114
sa(dp5115
g6
F9.2682059999999993
sg7
S'2457'
p5116
sg9
S'8.jpg.bin'
p5117
sa(dp5118
g6
F9.2566740000000003
sg7
S'9997'
p5119
sg9
S'1.jpg.bin'
p5120
sa(dp5121
g6
F7.9745910000000002
sg7
S'8493'
p5122
sg9
S'5.jpg.bin'
p5123
sa(dp5124
g6
F7.8330919999999997
sg7
S'5381'
p5125
sg9
S'5.jpg.bin'
p5126
sa(dp5127
g6
F7.7620560000000003
sg7
S'8316'
p5128
sg9
S'1.jpg.bin'
p5129
sa(dp5130
g6
F7.7518260000000003
sg7
S'7575'
p5131
sg9
S'8.jpg.bin'
p5132
sa(dp5133
g6
F7.2999210000000003
sg7
S'2210'
p5134
sg9
S'0_noplate.jpg.bin'
p5135
sa(dp5136
g6
F6.1782630000000003
sg7
S'8299'
p5137
sg9
S'1_noplate.jpg.bin'
p5138
sa(dp5139
g6
F5.8214319999999997
sg7
S'2314'
p5140
sg9
S'2_noplate.jpg.bin'
p5141
sa(dp5142
g6
F5.5917779999999997
sg7
S'7868'
p5143
sg9
S'4.jpg.bin'
p5144
sa(dp5145
g6
F5.187424
sg7
S'2643'
p5146
sg9
S'5_noplate.jpg.bin'
p5147
sa(dp5148
g6
F5.0051019999999999
sg7
S'20'
p5149
sg9
S'4.jpg.bin'
p5150
sa(dp5151
g6
F4.8075219999999996
sg7
S'1491'
p5152
sg9
S'13_noplate.jpg.bin'
p5153
sa(dp5154
g6
F4.7425920000000001
sg7
S'9882'
p5155
sg9
S'5.jpg.bin'
p5156
sa(dp5157
g6
F4.7082249999999997
sg7
S'4206'
p5158
sg9
S'4_noplate.jpg.bin'
p5159
sa(dp5160
g6
F4.0563929999999999
sg7
S'7078'
p5161
sg9
S'3.jpg.bin'
p5162
sa(dp5163
g6
F3.9491580000000002
sg7
S'1257'
p5164
sg9
S'0_noplate.jpg.bin'
p5165
sa(dp5166
g6
F3.8819729999999999
sg7
S'416'
p5167
sg9
S'3_noplate.jpg.bin'
p5168
sa(dp5169
g6
F3.7941090000000002
sg7
S'4588'
p5170
sg9
S'4.jpg.bin'
p5171
sasg7
S'24'
p5172
sg9
S'2_noplate.jpg.bin'
p5173
sa(dp5174
g3
(lp5175
(dp5176
g6
F7.9707470000000002
sg7
S'5836'
p5177
sg9
S'5_noplate.jpg.bin'
p5178
sa(dp5179
g6
F7.9487329999999998
sg7
S'603'
p5180
sg9
S'5.jpg.bin'
p5181
sa(dp5182
g6
F7.7754539999999999
sg7
S'1835'
p5183
sg9
S'2.jpg.bin'
p5184
sa(dp5185
g6
F7.7137079999999996
sg7
S'9560'
p5186
sg9
S'1_noplate.jpg.bin'
p5187
sa(dp5188
g6
F7.7065830000000002
sg7
S'3861'
p5189
sg9
S'1_noplate.jpg.bin'
p5190
sa(dp5191
g6
F7.7049979999999998
sg7
S'4548'
p5192
sg9
S'2_noplate.jpg.bin'
p5193
sa(dp5194
g6
F7.691414
sg7
S'3755'
p5195
sg9
S'3_noplate.jpg.bin'
p5196
sa(dp5197
g6
F7.4845629999999996
sg7
S'4230'
p5198
sg9
S'1_noplate.jpg.bin'
p5199
sa(dp5200
g6
F7.4684730000000004
sg7
S'5287'
p5201
sg9
S'2_noplate.jpg.bin'
p5202
sa(dp5203
g6
F7.4580229999999998
sg7
S'8429'
p5204
sg9
S'3.jpg.bin'
p5205
sa(dp5206
g6
F7.4556849999999999
sg7
S'8661'
p5207
sg9
S'1_noplate.jpg.bin'
p5208
sa(dp5209
g6
F7.4103479999999999
sg7
S'1043'
p5210
sg9
S'0.jpg.bin'
p5211
sa(dp5212
g6
F7.3571080000000002
sg7
S'8964'
p5213
sg9
S'4.jpg.bin'
p5214
sa(dp5215
g6
F7.3032969999999997
sg7
S'4363'
p5216
sg9
S'7.jpg.bin'
p5217
sa(dp5218
g6
F7.2665680000000004
sg7
S'1902'
p5219
sg9
S'1_noplate.jpg.bin'
p5220
sa(dp5221
g6
F7.0957090000000003
sg7
S'9215'
p5222
sg9
S'1_noplate.jpg.bin'
p5223
sa(dp5224
g6
F7.0944739999999999
sg7
S'7015'
p5225
sg9
S'3.jpg.bin'
p5226
sa(dp5227
g6
F7.0910120000000001
sg7
S'4980'
p5228
sg9
S'4.jpg.bin'
p5229
sa(dp5230
g6
F7.0428540000000002
sg7
S'93'
p5231
sg9
S'6.jpg.bin'
p5232
sa(dp5233
g6
F7.0095669999999997
sg7
S'6417'
p5234
sg9
S'1_noplate.jpg.bin'
p5235
sasg7
S'93'
p5236
sg9
S'5.jpg.bin'
p5237
sa(dp5238
g3
(lp5239
(dp5240
g6
F8.6625999999999994
sg7
S'60'
p5241
sg9
S'3.jpg.bin'
p5242
sa(dp5243
g6
F5.9550419999999997
sg7
S'1221'
p5244
sg9
S'10.jpg.bin'
p5245
sa(dp5246
g6
F5.7370950000000001
sg7
S'3290'
p5247
sg9
S'4_noplate.jpg.bin'
p5248
sa(dp5249
g6
F4.9701459999999997
sg7
S'9404'
p5250
sg9
S'7.jpg.bin'
p5251
sa(dp5252
g6
F4.7116449999999999
sg7
S'9767'
p5253
sg9
S'4.jpg.bin'
p5254
sa(dp5255
g6
F4.6155189999999999
sg7
S'3906'
p5256
sg9
S'2.jpg.bin'
p5257
sa(dp5258
g6
F4.4396170000000001
sg7
S'9890'
p5259
sg9
S'5.jpg.bin'
p5260
sa(dp5261
g6
F4.2938789999999996
sg7
S'8957'
p5262
sg9
S'4.jpg.bin'
p5263
sa(dp5264
g6
F4.1978
sg7
S'5870'
p5265
sg9
S'0_noplate.jpg.bin'
p5266
sa(dp5267
g6
F3.5446070000000001
sg7
S'3384'
p5268
sg9
S'0_noplate.jpg.bin'
p5269
sa(dp5270
g6
F3.1833040000000001
sg7
S'4396'
p5271
sg9
S'0_noplate.jpg.bin'
p5272
sa(dp5273
g6
F3.1491280000000001
sg7
S'4244'
p5274
sg9
S'11.jpg.bin'
p5275
sa(dp5276
g6
F3.0468579999999998
sg7
S'3708'
p5277
sg9
S'3.jpg.bin'
p5278
sa(dp5279
g6
F3.0455399999999999
sg7
S'7670'
p5280
sg9
S'2.jpg.bin'
p5281
sa(dp5282
g6
F2.9537070000000001
sg7
S'8757'
p5283
sg9
S'0.jpg.bin'
p5284
sa(dp5285
g6
F2.7665099999999998
sg7
S'357'
p5286
sg9
S'0_noplate.jpg.bin'
p5287
sa(dp5288
g6
F2.6104120000000002
sg7
S'7553'
p5289
sg9
S'5_noplate.jpg.bin'
p5290
sa(dp5291
g6
F2.5649739999999999
sg7
S'6887'
p5292
sg9
S'6_noplate.jpg.bin'
p5293
sa(dp5294
g6
F2.4277289999999998
sg7
S'4552'
p5295
sg9
S'13_noplate.jpg.bin'
p5296
sa(dp5297
g6
F2.2763460000000002
sg7
S'2650'
p5298
sg9
S'2_noplate.jpg.bin'
p5299
sasg7
S'60'
p5300
sg9
S'4.jpg.bin'
p5301
sa(dp5302
g3
(lp5303
(dp5304
g6
F7.6469529999999999
sg7
S'8186'
p5305
sg9
S'3.jpg.bin'
p5306
sa(dp5307
g6
F7.2194979999999997
sg7
S'9826'
p5308
sg9
S'1.jpg.bin'
p5309
sa(dp5310
g6
F7.0377840000000003
sg7
S'1164'
p5311
sg9
S'3_noplate.jpg.bin'
p5312
sa(dp5313
g6
F6.0224299999999999
sg7
S'3888'
p5314
sg9
S'3_noplate.jpg.bin'
p5315
sa(dp5316
g6
F5.804659
sg7
S'292'
p5317
sg9
S'1.jpg.bin'
p5318
sa(dp5319
g6
F5.0904930000000004
sg7
S'1466'
p5320
sg9
S'5_noplate.jpg.bin'
p5321
sa(dp5322
g6
F5.0597560000000001
sg7
S'183'
p5323
sg9
S'4_noplate.jpg.bin'
p5324
sa(dp5325
g6
F4.076803
sg7
S'703'
p5326
sg9
S'4.jpg.bin'
p5327
sa(dp5328
g6
F4.0619120000000004
sg7
S'13'
p5329
sg9
S'5.jpg.bin'
p5330
sa(dp5331
g6
F3.6934969999999998
sg7
S'3131'
p5332
sg9
S'8_noplate.jpg.bin'
p5333
sa(dp5334
g6
F3.575628
sg7
S'8779'
p5335
sg9
S'4.jpg.bin'
p5336
sa(dp5337
g6
F3.4834480000000001
sg7
S'3560'
p5338
sg9
S'0.jpg.bin'
p5339
sa(dp5340
g6
F3.4218479999999998
sg7
S'8009'
p5341
sg9
S'4.jpg.bin'
p5342
sa(dp5343
g6
F3.3146230000000001
sg7
S'573'
p5344
sg9
S'2.jpg.bin'
p5345
sa(dp5346
g6
F3.2518389999999999
sg7
S'8302'
p5347
sg9
S'4.jpg.bin'
p5348
sa(dp5349
g6
F3.0512130000000002
sg7
S'7848'
p5350
sg9
S'0.jpg.bin'
p5351
sa(dp5352
g6
F3.020451
sg7
S'8505'
p5353
sg9
S'1_noplate.jpg.bin'
p5354
sa(dp5355
g6
F2.7986279999999999
sg7
S'7706'
p5356
sg9
S'3_noplate.jpg.bin'
p5357
sa(dp5358
g6
F2.729816
sg7
S'78'
p5359
sg9
S'4_noplate.jpg.bin'
p5360
sa(dp5361
g6
F2.7228309999999998
sg7
S'8224'
p5362
sg9
S'5.jpg.bin'
p5363
sasg7
S'13'
p5364
sg9
S'0.jpg.bin'
p5365
sa(dp5366
g3
(lp5367
(dp5368
g6
F10.155542000000001
sg7
S'15'
p5369
sg9
S'9.jpg.bin'
p5370
sa(dp5371
g6
F5.6862950000000003
sg7
S'3819'
p5372
sg9
S'0_noplate.jpg.bin'
p5373
sa(dp5374
g6
F5.2539829999999998
sg7
S'9688'
p5375
sg9
S'3_noplate.jpg.bin'
p5376
sa(dp5377
g6
F5.2424739999999996
sg7
S'2600'
p5378
sg9
S'4_noplate.jpg.bin'
p5379
sa(dp5380
g6
F4.6490520000000002
sg7
S'5236'
p5381
sg9
S'3.jpg.bin'
p5382
sa(dp5383
g6
F4.5810259999999996
sg7
S'2506'
p5384
sg9
S'3.jpg.bin'
p5385
sa(dp5386
g6
F4.0500179999999997
sg7
S'7811'
p5387
sg9
S'1.jpg.bin'
p5388
sa(dp5389
g6
F3.9829349999999999
sg7
S'1888'
p5390
sg9
S'5_noplate.jpg.bin'
p5391
sa(dp5392
g6
F3.7805369999999998
sg7
S'7953'
p5393
sg9
S'2_noplate.jpg.bin'
p5394
sa(dp5395
g6
F3.724024
sg7
S'5522'
p5396
sg9
S'5_noplate.jpg.bin'
p5397
sa(dp5398
g6
F3.634998
sg7
S'9286'
p5399
sg9
S'2.jpg.bin'
p5400
sa(dp5401
g6
F3.2411080000000001
sg7
S'5620'
p5402
sg9
S'3.jpg.bin'
p5403
sa(dp5404
g6
F3.2292290000000001
sg7
S'6590'
p5405
sg9
S'2_noplate.jpg.bin'
p5406
sa(dp5407
g6
F3.2075309999999999
sg7
S'5475'
p5408
sg9
S'3_noplate.jpg.bin'
p5409
sa(dp5410
g6
F3.077385
sg7
S'1804'
p5411
sg9
S'6.jpg.bin'
p5412
sa(dp5413
g6
F3.0037780000000001
sg7
S'3043'
p5414
sg9
S'6.jpg.bin'
p5415
sa(dp5416
g6
F2.550713
sg7
S'7835'
p5417
sg9
S'20.jpg.bin'
p5418
sa(dp5419
g6
F2.5044499999999998
sg7
S'6968'
p5420
sg9
S'4.jpg.bin'
p5421
sa(dp5422
g6
F2.4710749999999999
sg7
S'5583'
p5423
sg9
S'2_noplate.jpg.bin'
p5424
sa(dp5425
g6
F2.3683169999999998
sg7
S'2646'
p5426
sg9
S'1.jpg.bin'
p5427
sasg7
S'15'
p5428
sg9
S'8.jpg.bin'
p5429
sa(dp5430
g3
(lp5431
(dp5432
g6
F7.7354770000000004
sg7
S'64'
p5433
sg9
S'4.jpg.bin'
p5434
sa(dp5435
g6
F4.1698110000000002
sg7
S'723'
p5436
sg9
S'5.jpg.bin'
p5437
sa(dp5438
g6
F4.138166
sg7
S'4064'
p5439
sg9
S'1_noplate.jpg.bin'
p5440
sa(dp5441
g6
F3.1139739999999998
sg7
S'4162'
p5442
sg9
S'7.jpg.bin'
p5443
sa(dp5444
g6
F2.641216
sg7
S'5397'
p5445
sg9
S'3_noplate.jpg.bin'
p5446
sa(dp5447
g6
F2.516823
sg7
S'5612'
p5448
sg9
S'2.jpg.bin'
p5449
sa(dp5450
g6
F2.150372
sg7
S'9213'
p5451
sg9
S'1.jpg.bin'
p5452
sa(dp5453
g6
F1.9003570000000001
sg7
S'4068'
p5454
sg9
S'4_noplate.jpg.bin'
p5455
sa(dp5456
g6
F1.892315
sg7
S'4584'
p5457
sg9
S'4_noplate.jpg.bin'
p5458
sa(dp5459
g6
F1.841688
sg7
S'829'
p5460
sg9
S'5_noplate.jpg.bin'
p5461
sa(dp5462
g6
F1.3095460000000001
sg7
S'9208'
p5463
sg9
S'0_noplate.jpg.bin'
p5464
sa(dp5465
g6
F1.2053430000000001
sg7
S'9556'
p5466
sg9
S'0_noplate.jpg.bin'
p5467
sa(dp5468
g6
F1.165422
sg7
S'9921'
p5469
sg9
S'0.jpg.bin'
p5470
sa(dp5471
g6
F1.0332159999999999
sg7
S'6912'
p5472
sg9
S'4.jpg.bin'
p5473
sa(dp5474
g6
F1.028389
sg7
S'3134'
p5475
sg9
S'3_noplate.jpg.bin'
p5476
sa(dp5477
g6
F0.98504100000000006
sg7
S'5484'
p5478
sg9
S'1_noplate.jpg.bin'
p5479
sa(dp5480
g6
F0.85428000000000004
sg7
S'7881'
p5481
sg9
S'3.jpg.bin'
p5482
sa(dp5483
g6
F0.60789899999999997
sg7
S'5348'
p5484
sg9
S'1_noplate.jpg.bin'
p5485
sa(dp5486
g6
F0.56906699999999999
sg7
S'1410'
p5487
sg9
S'3.jpg.bin'
p5488
sa(dp5489
g6
F0.404945
sg7
S'7086'
p5490
sg9
S'0_noplate.jpg.bin'
p5491
sasg7
S'64'
p5492
sg9
S'2_noplate.jpg.bin'
p5493
sa(dp5494
g3
(lp5495
(dp5496
g6
F8.4134220000000006
sg7
S'4687'
p5497
sg9
S'2_noplate.jpg.bin'
p5498
sa(dp5499
g6
F8.0988860000000003
sg7
S'6734'
p5500
sg9
S'0_noplate.jpg.bin'
p5501
sa(dp5502
g6
F7.9276999999999997
sg7
S'4561'
p5503
sg9
S'0.jpg.bin'
p5504
sa(dp5505
g6
F7.8486960000000003
sg7
S'3474'
p5506
sg9
S'1_noplate.jpg.bin'
p5507
sa(dp5508
g6
F7.6009000000000002
sg7
S'178'
p5509
sg9
S'7_noplate.jpg.bin'
p5510
sa(dp5511
g6
F7.448251
sg7
S'5212'
p5512
sg9
S'3_noplate.jpg.bin'
p5513
sa(dp5514
g6
F7.3876999999999997
sg7
S'8942'
p5515
sg9
S'6_noplate.jpg.bin'
p5516
sa(dp5517
g6
F7.0651279999999996
sg7
S'11'
p5518
sg9
S'5_noplate.jpg.bin'
p5519
sa(dp5520
g6
F6.7308019999999997
sg7
S'6284'
p5521
sg9
S'4_noplate.jpg.bin'
p5522
sa(dp5523
g6
F6.5676899999999998
sg7
S'5840'
p5524
sg9
S'1.jpg.bin'
p5525
sa(dp5526
g6
F6.095758
sg7
S'2963'
p5527
sg9
S'0_noplate.jpg.bin'
p5528
sa(dp5529
g6
F5.6909049999999999
sg7
S'7684'
p5530
sg9
S'2.jpg.bin'
p5531
sa(dp5532
g6
F5.5662070000000003
sg7
S'6926'
p5533
sg9
S'3.jpg.bin'
p5534
sa(dp5535
g6
F5.2530349999999997
sg7
S'6205'
p5536
sg9
S'4_noplate.jpg.bin'
p5537
sa(dp5538
g6
F4.9450919999999998
sg7
S'2277'
p5539
sg9
S'1_noplate.jpg.bin'
p5540
sa(dp5541
g6
F4.8832610000000001
sg7
S'9595'
p5542
sg9
S'4.jpg.bin'
p5543
sa(dp5544
g6
F4.7964039999999999
sg7
S'8261'
p5545
sg9
S'0.jpg.bin'
p5546
sa(dp5547
g6
F4.3695240000000002
sg7
S'3120'
p5548
sg9
S'0_noplate.jpg.bin'
p5549
sa(dp5550
g6
F4.3463099999999999
sg7
S'9308'
p5551
sg9
S'0_noplate.jpg.bin'
p5552
sa(dp5553
g6
F4.2260419999999996
sg7
S'7547'
p5554
sg9
S'1.jpg.bin'
p5555
sasg7
S'11'
p5556
sg9
S'4.jpg.bin'
p5557
sa(dp5558
g3
(lp5559
(dp5560
g6
F12.438471
sg7
S'33'
p5561
sg9
S'8.jpg.bin'
p5562
sa(dp5563
g6
F6.3239270000000003
sg7
S'5040'
p5564
sg9
S'0_noplate.jpg.bin'
p5565
sa(dp5566
g6
F6.0321350000000002
sg7
S'3043'
p5567
sg9
S'6.jpg.bin'
p5568
sa(dp5569
g6
F5.9402470000000003
sg7
S'4676'
p5570
sg9
S'0.jpg.bin'
p5571
sa(dp5572
g6
F4.246378
sg7
S'6797'
p5573
sg9
S'9_noplate.jpg.bin'
p5574
sa(dp5575
g6
F4.0827390000000001
sg7
S'8445'
p5576
sg9
S'21_noplate.jpg.bin'
p5577
sa(dp5578
g6
F3.3848099999999999
sg7
S'9562'
p5579
sg9
S'0_noplate.jpg.bin'
p5580
sa(dp5581
g6
F3.2912270000000001
sg7
S'5475'
p5582
sg9
S'3_noplate.jpg.bin'
p5583
sa(dp5584
g6
F3.259563
sg7
S'3859'
p5585
sg9
S'0.jpg.bin'
p5586
sa(dp5587
g6
F3.0893229999999998
sg7
S'1725'
p5588
sg9
S'0_noplate.jpg.bin'
p5589
sa(dp5590
g6
F2.7464330000000001
sg7
S'1970'
p5591
sg9
S'4_noplate.jpg.bin'
p5592
sa(dp5593
g6
F2.6318299999999999
sg7
S'5909'
p5594
sg9
S'0.jpg.bin'
p5595
sa(dp5596
g6
F2.390263
sg7
S'1888'
p5597
sg9
S'5_noplate.jpg.bin'
p5598
sa(dp5599
g6
F2.2677960000000001
sg7
S'9950'
p5600
sg9
S'1_noplate.jpg.bin'
p5601
sa(dp5602
g6
F1.978874
sg7
S'15'
p5603
sg9
S'9.jpg.bin'
p5604
sa(dp5605
g6
F1.7449319999999999
sg7
S'6657'
p5606
sg9
S'0_noplate.jpg.bin'
p5607
sa(dp5608
g6
F1.386398
sg7
S'4574'
p5609
sg9
S'2_noplate.jpg.bin'
p5610
sa(dp5611
g6
F1.2972870000000001
sg7
S'9648'
p5612
sg9
S'3_noplate.jpg.bin'
p5613
sa(dp5614
g6
F1.199673
sg7
S'2143'
p5615
sg9
S'7_noplate.jpg.bin'
p5616
sa(dp5617
g6
F1.1965030000000001
sg7
S'4813'
p5618
sg9
S'0_noplate.jpg.bin'
p5619
sasg7
S'33'
p5620
sg9
S'7.jpg.bin'
p5621
sa(dp5622
g3
(lp5623
(dp5624
g6
F9.6579320000000006
sg7
S'5368'
p5625
sg9
S'5_noplate.jpg.bin'
p5626
sa(dp5627
g6
F7.4702380000000002
sg7
S'2010'
p5628
sg9
S'4.jpg.bin'
p5629
sa(dp5630
g6
F5.6956290000000003
sg7
S'9256'
p5631
sg9
S'3_noplate.jpg.bin'
p5632
sa(dp5633
g6
F5.3468460000000002
sg7
S'6668'
p5634
sg9
S'3_noplate.jpg.bin'
p5635
sa(dp5636
g6
F4.4128930000000004
sg7
S'5330'
p5637
sg9
S'2.jpg.bin'
p5638
sa(dp5639
g6
F3.8640789999999998
sg7
S'9911'
p5640
sg9
S'3_noplate.jpg.bin'
p5641
sa(dp5642
g6
F2.9049049999999998
sg7
S'7959'
p5643
sg9
S'4.jpg.bin'
p5644
sa(dp5645
g6
F2.8287049999999998
sg7
S'3210'
p5646
sg9
S'1.jpg.bin'
p5647
sa(dp5648
g6
F2.787201
sg7
S'151'
p5649
sg9
S'3_noplate.jpg.bin'
p5650
sa(dp5651
g6
F2.6852550000000002
sg7
S'2942'
p5652
sg9
S'3.jpg.bin'
p5653
sa(dp5654
g6
F2.4406639999999999
sg7
S'7883'
p5655
sg9
S'5_noplate.jpg.bin'
p5656
sa(dp5657
g6
F2.31575
sg7
S'8449'
p5658
sg9
S'2.jpg.bin'
p5659
sa(dp5660
g6
F2.2903289999999998
sg7
S'7053'
p5661
sg9
S'2_noplate.jpg.bin'
p5662
sa(dp5663
g6
F2.2104780000000002
sg7
S'38'
p5664
sg9
S'7.jpg.bin'
p5665
sa(dp5666
g6
F2.195551
sg7
S'5282'
p5667
sg9
S'4.jpg.bin'
p5668
sa(dp5669
g6
F2.1119059999999998
sg7
S'8873'
p5670
sg9
S'1.jpg.bin'
p5671
sa(dp5672
g6
F2.0013200000000002
sg7
S'9707'
p5673
sg9
S'5_noplate.jpg.bin'
p5674
sa(dp5675
g6
F1.817242
sg7
S'4943'
p5676
sg9
S'2.jpg.bin'
p5677
sa(dp5678
g6
F1.70018
sg7
S'6610'
p5679
sg9
S'4.jpg.bin'
p5680
sa(dp5681
g6
F1.699867
sg7
S'3561'
p5682
sg9
S'1_noplate.jpg.bin'
p5683
sasg7
S'38'
p5684
sg9
S'2_noplate.jpg.bin'
p5685
sa(dp5686
g3
(lp5687
(dp5688
g6
F7.7105410000000001
sg7
S'9'
sg9
S'3.jpg.bin'
p5689
sa(dp5690
g6
F7.0222619999999996
sg7
S'262'
p5691
sg9
S'1_noplate.jpg.bin'
p5692
sa(dp5693
g6
F6.8791099999999998
sg7
S'5251'
p5694
sg9
S'6_noplate.jpg.bin'
p5695
sa(dp5696
g6
F6.6519769999999996
sg7
S'7444'
p5697
sg9
S'9.jpg.bin'
p5698
sa(dp5699
g6
F6.1935669999999998
sg7
S'3544'
p5700
sg9
S'3.jpg.bin'
p5701
sa(dp5702
g6
F5.6722429999999999
sg7
S'5816'
p5703
sg9
S'11.jpg.bin'
p5704
sa(dp5705
g6
F5.6121679999999996
sg7
S'5926'
p5706
sg9
S'3_noplate.jpg.bin'
p5707
sa(dp5708
g6
F5.5262690000000001
sg7
S'4101'
p5709
sg9
S'3_noplate.jpg.bin'
p5710
sa(dp5711
g6
F5.1198249999999996
sg7
S'2417'
p5712
sg9
S'3.jpg.bin'
p5713
sa(dp5714
g6
F5.039587
sg7
S'2923'
p5715
sg9
S'4_noplate.jpg.bin'
p5716
sa(dp5717
g6
F4.5320549999999997
sg7
S'44'
p5718
sg9
S'1.jpg.bin'
p5719
sa(dp5720
g6
F4.5213999999999999
sg7
S'1782'
p5721
sg9
S'3_noplate.jpg.bin'
p5722
sa(dp5723
g6
F4.5156710000000002
sg7
S'821'
p5724
sg9
S'2.jpg.bin'
p5725
sa(dp5726
g6
F4.2623420000000003
sg7
S'3120'
p5727
sg9
S'0_noplate.jpg.bin'
p5728
sa(dp5729
g6
F4.1433489999999997
sg7
S'1168'
p5730
sg9
S'1_noplate.jpg.bin'
p5731
sa(dp5732
g6
F4.1292499999999999
sg7
S'168'
p5733
sg9
S'4.jpg.bin'
p5734
sa(dp5735
g6
F3.9928180000000002
sg7
S'4583'
p5736
sg9
S'3.jpg.bin'
p5737
sa(dp5738
g6
F3.8882500000000002
sg7
S'2593'
p5739
sg9
S'5_noplate.jpg.bin'
p5740
sa(dp5741
g6
F3.8189320000000002
sg7
S'6841'
p5742
sg9
S'1_noplate.jpg.bin'
p5743
sa(dp5744
g6
F3.7655620000000001
sg7
S'3633'
p5745
sg9
S'2_noplate.jpg.bin'
p5746
sasg7
S'9'
sg9
S'4_noplate.jpg.bin'
p5747
sa(dp5748
g3
(lp5749
(dp5750
g6
F9.96129
sg7
S'2039'
p5751
sg9
S'6.jpg.bin'
p5752
sa(dp5753
g6
F7.0313420000000004
sg7
S'22'
p5754
sg9
S'1.jpg.bin'
p5755
sa(dp5756
g6
F5.7164080000000004
sg7
S'2803'
p5757
sg9
S'2_noplate.jpg.bin'
p5758
sa(dp5759
g6
F4.7365130000000004
sg7
S'335'
p5760
sg9
S'5_noplate.jpg.bin'
p5761
sa(dp5762
g6
F3.9788130000000002
sg7
S'2308'
p5763
sg9
S'0.jpg.bin'
p5764
sa(dp5765
g6
F3.5202049999999998
sg7
S'5170'
p5766
sg9
S'0_noplate.jpg.bin'
p5767
sa(dp5768
g6
F3.423197
sg7
S'1519'
p5769
sg9
S'4.jpg.bin'
p5770
sa(dp5771
g6
F3.2983910000000001
sg7
S'404'
p5772
sg9
S'2.jpg.bin'
p5773
sa(dp5774
g6
F3.2296640000000001
sg7
S'6035'
p5775
sg9
S'2.jpg.bin'
p5776
sa(dp5777
g6
F2.6060560000000002
sg7
S'3176'
p5778
sg9
S'4_noplate.jpg.bin'
p5779
sa(dp5780
g6
F2.522316
sg7
S'5824'
p5781
sg9
S'2.jpg.bin'
p5782
sa(dp5783
g6
F2.4647389999999998
sg7
S'5993'
p5784
sg9
S'4_noplate.jpg.bin'
p5785
sa(dp5786
g6
F2.3090899999999999
sg7
S'3093'
p5787
sg9
S'3_noplate.jpg.bin'
p5788
sa(dp5789
g6
F2.2530519999999998
sg7
S'924'
p5790
sg9
S'1_noplate.jpg.bin'
p5791
sa(dp5792
g6
F2.1690269999999998
sg7
S'2550'
p5793
sg9
S'3.jpg.bin'
p5794
sa(dp5795
g6
F2.1231879999999999
sg7
S'3849'
p5796
sg9
S'1.jpg.bin'
p5797
sa(dp5798
g6
F2.0650539999999999
sg7
S'493'
p5799
sg9
S'4_noplate.jpg.bin'
p5800
sa(dp5801
g6
F2.0390609999999998
sg7
S'2882'
p5802
sg9
S'3_noplate.jpg.bin'
p5803
sa(dp5804
g6
F2.0236390000000002
sg7
S'208'
p5805
sg9
S'3_noplate.jpg.bin'
p5806
sa(dp5807
g6
F1.7888120000000001
sg7
S'3222'
p5808
sg9
S'1.jpg.bin'
p5809
sasg7
S'22'
p5810
sg9
S'3_noplate.jpg.bin'
p5811
sa(dp5812
g3
(lp5813
(dp5814
g6
F11.291370000000001
sg7
S'1'
sg9
S'2.jpg.bin'
p5815
sa(dp5816
g6
F4.4050500000000001
sg7
S'9817'
p5817
sg9
S'5_noplate.jpg.bin'
p5818
sa(dp5819
g6
F2.998005
sg7
S'5507'
p5820
sg9
S'5_noplate.jpg.bin'
p5821
sa(dp5822
g6
F2.5505239999999998
sg7
S'7224'
p5823
sg9
S'3.jpg.bin'
p5824
sa(dp5825
g6
F1.85107
sg7
S'3267'
p5826
sg9
S'2.jpg.bin'
p5827
sa(dp5828
g6
F1.682493
sg7
S'7986'
p5829
sg9
S'4_noplate.jpg.bin'
p5830
sa(dp5831
g6
F1.6006910000000001
sg7
S'1645'
p5832
sg9
S'2_noplate.jpg.bin'
p5833
sa(dp5834
g6
F1.2271350000000001
sg7
S'1141'
p5835
sg9
S'1.jpg.bin'
p5836
sa(dp5837
g6
F1.2266049999999999
sg7
S'3025'
p5838
sg9
S'2.jpg.bin'
p5839
sa(dp5840
g6
F1.1510640000000001
sg7
S'918'
p5841
sg9
S'1_noplate.jpg.bin'
p5842
sa(dp5843
g6
F0.96537799999999996
sg7
S'4068'
p5844
sg9
S'4_noplate.jpg.bin'
p5845
sa(dp5846
g6
F0.92568399999999995
sg7
S'1176'
p5847
sg9
S'5.jpg.bin'
p5848
sa(dp5849
g6
F0.90279399999999999
sg7
S'6935'
p5850
sg9
S'7_noplate.jpg.bin'
p5851
sa(dp5852
g6
F0.87124299999999999
sg7
S'829'
p5853
sg9
S'5_noplate.jpg.bin'
p5854
sa(dp5855
g6
F0.84353900000000004
sg7
S'9198'
p5856
sg9
S'4.jpg.bin'
p5857
sa(dp5858
g6
F0.79895000000000005
sg7
S'5797'
p5859
sg9
S'9_noplate.jpg.bin'
p5860
sa(dp5861
g6
F0.53647599999999995
sg7
S'8064'
p5862
sg9
S'3.jpg.bin'
p5863
sa(dp5864
g6
F0.53575300000000003
sg7
S'3410'
p5865
sg9
S'3.jpg.bin'
p5866
sa(dp5867
g6
F0.45166000000000001
sg7
S'2939'
p5868
sg9
S'3_noplate.jpg.bin'
p5869
sa(dp5870
g6
F0.35534399999999999
sg7
S'3804'
p5871
sg9
S'1_noplate.jpg.bin'
p5872
sasg7
S'1'
sg9
S'5.jpg.bin'
p5873
sa(dp5874
g3
(lp5875
(dp5876
g6
F12.417446
sg7
S'3730'
p5877
sg9
S'4.jpg.bin'
p5878
sa(dp5879
g6
F12.157323999999999
sg7
S'8032'
p5880
sg9
S'4.jpg.bin'
p5881
sa(dp5882
g6
F12.134327000000001
sg7
S'946'
p5883
sg9
S'1.jpg.bin'
p5884
sa(dp5885
g6
F12.015636000000001
sg7
S'443'
p5886
sg9
S'4.jpg.bin'
p5887
sa(dp5888
g6
F10.492229
sg7
S'18'
p5889
sg9
S'1_noplate.jpg.bin'
p5890
sa(dp5891
g6
F10.32691
sg7
S'2688'
p5892
sg9
S'3_noplate.jpg.bin'
p5893
sa(dp5894
g6
F9.9747050000000002
sg7
S'7563'
p5895
sg9
S'2_noplate.jpg.bin'
p5896
sa(dp5897
g6
F9.8165320000000005
sg7
S'7226'
p5898
sg9
S'2_noplate.jpg.bin'
p5899
sa(dp5900
g6
F8.6887869999999996
sg7
S'1389'
p5901
sg9
S'0_noplate.jpg.bin'
p5902
sa(dp5903
g6
F8.6741220000000006
sg7
S'165'
p5904
sg9
S'4_noplate.jpg.bin'
p5905
sa(dp5906
g6
F8.5921970000000005
sg7
S'9191'
p5907
sg9
S'1_noplate.jpg.bin'
p5908
sa(dp5909
g6
F8.3321380000000005
sg7
S'1082'
p5910
sg9
S'8.jpg.bin'
p5911
sa(dp5912
g6
F8.3102129999999992
sg7
S'5899'
p5913
sg9
S'1_noplate.jpg.bin'
p5914
sa(dp5915
g6
F8.0813939999999995
sg7
S'6725'
p5916
sg9
S'1.jpg.bin'
p5917
sa(dp5918
g6
F7.9659979999999999
sg7
S'6837'
p5919
sg9
S'8.jpg.bin'
p5920
sa(dp5921
g6
F7.9270379999999996
sg7
S'2241'
p5922
sg9
S'2.jpg.bin'
p5923
sa(dp5924
g6
F7.8555200000000003
sg7
S'310'
p5925
sg9
S'7_noplate.jpg.bin'
p5926
sa(dp5927
g6
F7.6177900000000003
sg7
S'6686'
p5928
sg9
S'0_noplate.jpg.bin'
p5929
sa(dp5930
g6
F7.2604030000000002
sg7
S'174'
p5931
sg9
S'4.jpg.bin'
p5932
sa(dp5933
g6
F6.3901269999999997
sg7
S'3760'
p5934
sg9
S'9_noplate.jpg.bin'
p5935
sasg7
S'18'
p5936
sg9
S'2_noplate.jpg.bin'
p5937
sa(dp5938
g3
(lp5939
(dp5940
g6
F12.039125
sg7
S'12'
p5941
sg9
S'5_noplate.jpg.bin'
p5942
sa(dp5943
g6
F9.3322470000000006
sg7
S'8487'
p5944
sg9
S'3_noplate.jpg.bin'
p5945
sa(dp5946
g6
F8.5283219999999993
sg7
S'9644'
p5947
sg9
S'1.jpg.bin'
p5948
sa(dp5949
g6
F7.0472950000000001
sg7
S'6821'
p5950
sg9
S'9.jpg.bin'
p5951
sa(dp5952
g6
F6.8359759999999996
sg7
S'3520'
p5953
sg9
S'5.jpg.bin'
p5954
sa(dp5955
g6
F6.6831420000000001
sg7
S'1514'
p5956
sg9
S'0_noplate.jpg.bin'
p5957
sa(dp5958
g6
F5.8265479999999998
sg7
S'730'
p5959
sg9
S'7_noplate.jpg.bin'
p5960
sa(dp5961
g6
F5.4591050000000001
sg7
S'9296'
p5962
sg9
S'3_noplate.jpg.bin'
p5963
sa(dp5964
g6
F5.2253280000000002
sg7
S'4604'
p5965
sg9
S'0.jpg.bin'
p5966
sa(dp5967
g6
F5.066732
sg7
S'6745'
p5968
sg9
S'4.jpg.bin'
p5969
sa(dp5970
g6
F4.8825659999999997
sg7
S'8157'
p5971
sg9
S'7_noplate.jpg.bin'
p5972
sa(dp5973
g6
F4.857183
sg7
S'6820'
p5974
sg9
S'4.jpg.bin'
p5975
sa(dp5976
g6
F4.8064099999999996
sg7
S'791'
p5977
sg9
S'1_noplate.jpg.bin'
p5978
sa(dp5979
g6
F4.7556079999999996
sg7
S'8449'
p5980
sg9
S'2.jpg.bin'
p5981
sa(dp5982
g6
F4.7056389999999997
sg7
S'5117'
p5983
sg9
S'3_noplate.jpg.bin'
p5984
sa(dp5985
g6
F4.6454050000000002
sg7
S'142'
p5986
sg9
S'1.jpg.bin'
p5987
sa(dp5988
g6
F4.5337100000000001
sg7
S'1501'
p5989
sg9
S'0_noplate.jpg.bin'
p5990
sa(dp5991
g6
F4.5013389999999998
sg7
S'4368'
p5992
sg9
S'7_noplate.jpg.bin'
p5993
sa(dp5994
g6
F4.4688699999999999
sg7
S'6411'
p5995
sg9
S'0_noplate.jpg.bin'
p5996
sa(dp5997
g6
F4.4678969999999998
sg7
S'9199'
p5998
sg9
S'1.jpg.bin'
p5999
sasg7
S'12'
p6000
sg9
S'3_noplate.jpg.bin'
p6001
sa(dp6002
g3
(lp6003
(dp6004
g6
F18.831181999999998
sg7
S'90'
p6005
sg9
S'1_noplate.jpg.bin'
p6006
sa(dp6007
g6
F8.156307
sg7
S'5434'
p6008
sg9
S'3_noplate.jpg.bin'
p6009
sa(dp6010
g6
F5.3918270000000001
sg7
S'7116'
p6011
sg9
S'0_noplate.jpg.bin'
p6012
sa(dp6013
g6
F4.2264609999999996
sg7
S'8996'
p6014
sg9
S'5.jpg.bin'
p6015
sa(dp6016
g6
F4.1954729999999998
sg7
S'6742'
p6017
sg9
S'2_noplate.jpg.bin'
p6018
sa(dp6019
g6
F3.9504109999999999
sg7
S'874'
p6020
sg9
S'5.jpg.bin'
p6021
sa(dp6022
g6
F3.2477990000000001
sg7
S'2646'
p6023
sg9
S'1.jpg.bin'
p6024
sa(dp6025
g6
F2.8160669999999999
sg7
S'7053'
p6026
sg9
S'2_noplate.jpg.bin'
p6027
sa(dp6028
g6
F2.8087409999999999
sg7
S'1476'
p6029
sg9
S'1.jpg.bin'
p6030
sa(dp6031
g6
F2.6743260000000002
sg7
S'2137'
p6032
sg9
S'4_noplate.jpg.bin'
p6033
sa(dp6034
g6
F2.6731009999999999
sg7
S'4389'
p6035
sg9
S'4_noplate.jpg.bin'
p6036
sa(dp6037
g6
F2.2808280000000001
sg7
S'5218'
p6038
sg9
S'14_noplate.jpg.bin'
p6039
sa(dp6040
g6
F2.1872500000000001
sg7
S'1402'
p6041
sg9
S'1.jpg.bin'
p6042
sa(dp6043
g6
F2.1818550000000001
sg7
S'6281'
p6044
sg9
S'1.jpg.bin'
p6045
sa(dp6046
g6
F1.9697249999999999
sg7
S'1546'
p6047
sg9
S'4.jpg.bin'
p6048
sa(dp6049
g6
F1.9537519999999999
sg7
S'6083'
p6050
sg9
S'4.jpg.bin'
p6051
sa(dp6052
g6
F1.9022520000000001
sg7
S'4219'
p6053
sg9
S'15.jpg.bin'
p6054
sa(dp6055
g6
F1.886512
sg7
S'5631'
p6056
sg9
S'2_noplate.jpg.bin'
p6057
sa(dp6058
g6
F1.8823639999999999
sg7
S'4441'
p6059
sg9
S'16_noplate.jpg.bin'
p6060
sa(dp6061
g6
F1.867075
sg7
S'718'
p6062
sg9
S'6.jpg.bin'
p6063
sasg7
S'90'
p6064
sg9
S'1.jpg.bin'
p6065
sa(dp6066
g3
(lp6067
(dp6068
g6
F10.039963
sg7
S'1688'
p6069
sg9
S'2.jpg.bin'
p6070
sa(dp6071
g6
F9.7275709999999993
sg7
S'2204'
p6072
sg9
S'2_noplate.jpg.bin'
p6073
sa(dp6074
g6
F9.6289289999999994
sg7
S'95'
p6075
sg9
S'1.jpg.bin'
p6076
sa(dp6077
g6
F9.4987739999999992
sg7
S'6058'
p6078
sg9
S'3_noplate.jpg.bin'
p6079
sa(dp6080
g6
F9.4296050000000005
sg7
S'737'
p6081
sg9
S'4_noplate.jpg.bin'
p6082
sa(dp6083
g6
F9.4087219999999991
sg7
S'4977'
p6084
sg9
S'3.jpg.bin'
p6085
sa(dp6086
g6
F8.7535950000000007
sg7
S'5113'
p6087
sg9
S'5_noplate.jpg.bin'
p6088
sa(dp6089
g6
F6.6876280000000001
sg7
S'3092'
p6090
sg9
S'2.jpg.bin'
p6091
sa(dp6092
g6
F6.651764
sg7
S'4295'
p6093
sg9
S'0_noplate.jpg.bin'
p6094
sa(dp6095
g6
F6.0290549999999996
sg7
S'3527'
p6096
sg9
S'6_noplate.jpg.bin'
p6097
sa(dp6098
g6
F5.9243930000000002
sg7
S'6273'
p6099
sg9
S'5.jpg.bin'
p6100
sa(dp6101
g6
F5.6394390000000003
sg7
S'4853'
p6102
sg9
S'5.jpg.bin'
p6103
sa(dp6104
g6
F4.9705979999999998
sg7
S'6107'
p6105
sg9
S'1.jpg.bin'
p6106
sa(dp6107
g6
F4.6421700000000001
sg7
S'3457'
p6108
sg9
S'1_noplate.jpg.bin'
p6109
sa(dp6110
g6
F4.5162069999999996
sg7
S'2807'
p6111
sg9
S'4_noplate.jpg.bin'
p6112
sa(dp6113
g6
F4.4694120000000002
sg7
S'1179'
p6114
sg9
S'1_noplate.jpg.bin'
p6115
sa(dp6116
g6
F4.3758010000000001
sg7
S'615'
p6117
sg9
S'4.jpg.bin'
p6118
sa(dp6119
g6
F4.2794930000000004
sg7
S'1609'
p6120
sg9
S'6_noplate.jpg.bin'
p6121
sa(dp6122
g6
F4.1805110000000001
sg7
S'3982'
p6123
sg9
S'0.jpg.bin'
p6124
sa(dp6125
g6
F3.7323819999999999
sg7
S'8322'
p6126
sg9
S'5_noplate.jpg.bin'
p6127
sasg7
S'95'
p6128
sg9
S'3_noplate.jpg.bin'
p6129
sa(dp6130
g3
(lp6131
(dp6132
g6
F10.439857
sg7
S'8253'
p6133
sg9
S'0.jpg.bin'
p6134
sa(dp6135
g6
F10.244902
sg7
S'970'
p6136
sg9
S'6_noplate.jpg.bin'
p6137
sa(dp6138
g6
F10.089411
sg7
S'3365'
p6139
sg9
S'4_noplate.jpg.bin'
p6140
sa(dp6141
g6
F9.4424189999999992
sg7
S'3257'
p6142
sg9
S'4.jpg.bin'
p6143
sa(dp6144
g6
F9.3535690000000002
sg7
S'1118'
p6145
sg9
S'3.jpg.bin'
p6146
sa(dp6147
g6
F9.2598839999999996
sg7
S'3201'
p6148
sg9
S'3_noplate.jpg.bin'
p6149
sa(dp6150
g6
F9.2564449999999994
sg7
S'65'
p6151
sg9
S'1.jpg.bin'
p6152
sa(dp6153
g6
F9.0447559999999996
sg7
S'7315'
p6154
sg9
S'1_noplate.jpg.bin'
p6155
sa(dp6156
g6
F8.9611420000000006
sg7
S'8295'
p6157
sg9
S'1.jpg.bin'
p6158
sa(dp6159
g6
F8.9490909999999992
sg7
S'6980'
p6160
sg9
S'3_noplate.jpg.bin'
p6161
sa(dp6162
g6
F8.8279929999999993
sg7
S'8568'
p6163
sg9
S'13.jpg.bin'
p6164
sa(dp6165
g6
F8.7983910000000005
sg7
S'9540'
p6166
sg9
S'4.jpg.bin'
p6167
sa(dp6168
g6
F8.7820719999999994
sg7
S'6727'
p6169
sg9
S'4_noplate.jpg.bin'
p6170
sa(dp6171
g6
F8.6782909999999998
sg7
S'5938'
p6172
sg9
S'1_noplate.jpg.bin'
p6173
sa(dp6174
g6
F8.6295800000000007
sg7
S'8338'
p6175
sg9
S'4.jpg.bin'
p6176
sa(dp6177
g6
F8.6283259999999995
sg7
S'6174'
p6178
sg9
S'0_noplate.jpg.bin'
p6179
sa(dp6180
g6
F8.607189
sg7
S'3052'
p6181
sg9
S'6.jpg.bin'
p6182
sa(dp6183
g6
F8.6043990000000008
sg7
S'584'
p6184
sg9
S'3_noplate.jpg.bin'
p6185
sa(dp6186
g6
F8.5074649999999998
sg7
S'1506'
p6187
sg9
S'6_noplate.jpg.bin'
p6188
sa(dp6189
g6
F8.2725279999999994
sg7
S'14'
p6190
sg9
S'1_noplate.jpg.bin'
p6191
sasg7
S'65'
p6192
sg9
S'2.jpg.bin'
p6193
sa(dp6194
g3
(lp6195
(dp6196
g6
F16.143255
sg7
S'82'
p6197
sg9
S'1_noplate.jpg.bin'
p6198
sa(dp6199
g6
F6.9915510000000003
sg7
S'7856'
p6200
sg9
S'5_noplate.jpg.bin'
p6201
sa(dp6202
g6
F6.0764930000000001
sg7
S'6986'
p6203
sg9
S'15.jpg.bin'
p6204
sa(dp6205
g6
F5.9002569999999999
sg7
S'6632'
p6206
sg9
S'1_noplate.jpg.bin'
p6207
sa(dp6208
g6
F5.6729289999999999
sg7
S'6571'
p6209
sg9
S'3_noplate.jpg.bin'
p6210
sa(dp6211
g6
F5.4367049999999999
sg7
S'6315'
p6212
sg9
S'7_noplate.jpg.bin'
p6213
sa(dp6214
g6
F5.4013540000000004
sg7
S'3967'
p6215
sg9
S'0.jpg.bin'
p6216
sa(dp6217
g6
F5.2225169999999999
sg7
S'7762'
p6218
sg9
S'0_noplate.jpg.bin'
p6219
sa(dp6220
g6
F4.4751529999999997
sg7
S'8112'
p6221
sg9
S'1_noplate.jpg.bin'
p6222
sa(dp6223
g6
F4.2191660000000004
sg7
S'435'
p6224
sg9
S'4_noplate.jpg.bin'
p6225
sa(dp6226
g6
F4.0408920000000004
sg7
S'98'
p6227
sg9
S'2.jpg.bin'
p6228
sa(dp6229
g6
F3.913986
sg7
S'1135'
p6230
sg9
S'4.jpg.bin'
p6231
sa(dp6232
g6
F3.8324150000000001
sg7
S'4632'
p6233
sg9
S'1_noplate.jpg.bin'
p6234
sa(dp6235
g6
F3.7221600000000001
sg7
S'8183'
p6236
sg9
S'2.jpg.bin'
p6237
sa(dp6238
g6
F3.2548710000000001
sg7
S'5488'
p6239
sg9
S'2.jpg.bin'
p6240
sa(dp6241
g6
F3.2421690000000001
sg7
S'7194'
p6242
sg9
S'0_noplate.jpg.bin'
p6243
sa(dp6244
g6
F3.1558799999999998
sg7
S'2570'
p6245
sg9
S'4.jpg.bin'
p6246
sa(dp6247
g6
F2.54386
sg7
S'7634'
p6248
sg9
S'9.jpg.bin'
p6249
sa(dp6250
g6
F2.426733
sg7
S'8391'
p6251
sg9
S'8_noplate.jpg.bin'
p6252
sa(dp6253
g6
F2.4003770000000002
sg7
S'1648'
p6254
sg9
S'1.jpg.bin'
p6255
sasg7
S'82'
p6256
sg9
S'1.jpg.bin'
p6257
sa(dp6258
g3
(lp6259
(dp6260
g6
F7.1544689999999997
sg7
S'1682'
p6261
sg9
S'4.jpg.bin'
p6262
sa(dp6263
g6
F5.210394
sg7
S'6872'
p6264
sg9
S'0_noplate.jpg.bin'
p6265
sa(dp6266
g6
F5.0558500000000004
sg7
S'9596'
p6267
sg9
S'4.jpg.bin'
p6268
sa(dp6269
g6
F4.7066730000000003
sg7
S'1004'
p6270
sg9
S'11_noplate.jpg.bin'
p6271
sa(dp6272
g6
F4.6827719999999999
sg7
S'1314'
p6273
sg9
S'4.jpg.bin'
p6274
sa(dp6275
g6
F4.5340629999999997
sg7
S'4056'
p6276
sg9
S'3_noplate.jpg.bin'
p6277
sa(dp6278
g6
F4.3651850000000003
sg7
S'7689'
p6279
sg9
S'3.jpg.bin'
p6280
sa(dp6281
g6
F4.2903460000000004
sg7
S'8921'
p6282
sg9
S'2_noplate.jpg.bin'
p6283
sa(dp6284
g6
F4.2841170000000002
sg7
S'888'
p6285
sg9
S'4_noplate.jpg.bin'
p6286
sa(dp6287
g6
F4.2377890000000003
sg7
S'4938'
p6288
sg9
S'1_noplate.jpg.bin'
p6289
sa(dp6290
g6
F4.1782760000000003
sg7
S'2385'
p6291
sg9
S'0.jpg.bin'
p6292
sa(dp6293
g6
F4.149305
sg7
S'9951'
p6294
sg9
S'0_noplate.jpg.bin'
p6295
sa(dp6296
g6
F4.0415780000000003
sg7
S'2274'
p6297
sg9
S'2_noplate.jpg.bin'
p6298
sa(dp6299
g6
F3.9611700000000001
sg7
S'57'
p6300
sg9
S'3.jpg.bin'
p6301
sa(dp6302
g6
F3.8108919999999999
sg7
S'6186'
p6303
sg9
S'4.jpg.bin'
p6304
sa(dp6305
g6
F3.5999680000000001
sg7
S'4296'
p6306
sg9
S'2.jpg.bin'
p6307
sa(dp6308
g6
F3.5698340000000002
sg7
S'5228'
p6309
sg9
S'3.jpg.bin'
p6310
sa(dp6311
g6
F3.5540500000000002
sg7
S'4985'
p6312
sg9
S'7.jpg.bin'
p6313
sa(dp6314
g6
F3.496286
sg7
S'831'
p6315
sg9
S'3_noplate.jpg.bin'
p6316
sa(dp6317
g6
F3.4934249999999998
sg7
S'8825'
p6318
sg9
S'1_noplate.jpg.bin'
p6319
sasg7
S'57'
p6320
sg9
S'6_noplate.jpg.bin'
p6321
sa(dp6322
g3
(lp6323
(dp6324
g6
F8.1266750000000005
sg7
S'8046'
p6325
sg9
S'4.jpg.bin'
p6326
sa(dp6327
g6
F6.2310980000000002
sg7
S'59'
p6328
sg9
S'3.jpg.bin'
p6329
sa(dp6330
g6
F5.1422639999999999
sg7
S'6844'
p6331
sg9
S'4.jpg.bin'
p6332
sa(dp6333
g6
F4.7470869999999996
sg7
S'9377'
p6334
sg9
S'8.jpg.bin'
p6335
sa(dp6336
g6
F4.2233700000000001
sg7
S'6636'
p6337
sg9
S'5_noplate.jpg.bin'
p6338
sa(dp6339
g6
F4.0577430000000003
sg7
S'2025'
p6340
sg9
S'3.jpg.bin'
p6341
sa(dp6342
g6
F3.8512249999999999
sg7
S'2082'
p6343
sg9
S'4.jpg.bin'
p6344
sa(dp6345
g6
F3.5813790000000001
sg7
S'9998'
p6346
sg9
S'3.jpg.bin'
p6347
sa(dp6348
g6
F3.5807929999999999
sg7
S'643'
p6349
sg9
S'9.jpg.bin'
p6350
sa(dp6351
g6
F3.4831050000000001
sg7
S'1877'
p6352
sg9
S'1.jpg.bin'
p6353
sa(dp6354
g6
F3.3850750000000001
sg7
S'9213'
p6355
sg9
S'1.jpg.bin'
p6356
sa(dp6357
g6
F3.1985929999999998
sg7
S'2504'
p6358
sg9
S'2_noplate.jpg.bin'
p6359
sa(dp6360
g6
F3.1191140000000002
sg7
S'7798'
p6361
sg9
S'7.jpg.bin'
p6362
sa(dp6363
g6
F3.1022970000000001
sg7
S'8646'
p6364
sg9
S'10.jpg.bin'
p6365
sa(dp6366
g6
F3.000156
sg7
S'4871'
p6367
sg9
S'0_noplate.jpg.bin'
p6368
sa(dp6369
g6
F2.9920969999999998
sg7
S'8696'
p6370
sg9
S'5.jpg.bin'
p6371
sa(dp6372
g6
F2.803172
sg7
S'148'
p6373
sg9
S'1.jpg.bin'
p6374
sa(dp6375
g6
F2.3705310000000002
sg7
S'7507'
p6376
sg9
S'2.jpg.bin'
p6377
sa(dp6378
g6
F2.3536609999999998
sg7
S'5059'
p6379
sg9
S'4_noplate.jpg.bin'
p6380
sa(dp6381
g6
F2.3124889999999998
sg7
S'9184'
p6382
sg9
S'4_noplate.jpg.bin'
p6383
sasg7
S'59'
p6384
sg9
S'5_noplate.jpg.bin'
p6385
sa.